 goahead

 Timestamp is 55cd3a9f (Thu Aug 13 17:47:27 2015)

 Preferred load address is 00400000

 Start         Length     Name                   Class
 0001:00000000 00002015H .text$di                CODE
 0001:00002020 00069cdcH .text$mn                CODE
 0001:0006bd00 00005656H .text$x                 CODE
 0001:00071360 00000234H .text$yd                CODE
 0002:00000000 000002e8H .idata$5                DATA
 0002:000002e8 00000004H .CRT$XCA                DATA
 0002:000002ec 000000d0H .CRT$XCU                DATA
 0002:000003bc 00000004H .CRT$XCZ                DATA
 0002:000003c0 00000004H .CRT$XIA                DATA
 0002:000003c4 00000010H .CRT$XIC                DATA
 0002:000003d4 00000004H .CRT$XIY                DATA
 0002:000003d8 00000004H .CRT$XIZ                DATA
 0002:000003dc 00000004H .CRT$XPA                DATA
 0002:000003e0 00000008H .CRT$XPX                DATA
 0002:000003e8 00000004H .CRT$XPXA               DATA
 0002:000003ec 00000004H .CRT$XPZ                DATA
 0002:000003f0 00000004H .CRT$XTA                DATA
 0002:000003f4 00000004H .CRT$XTZ                DATA
 0002:00000400 0000d888H .rdata                  DATA
 0002:0000dc88 0000007cH .rdata$debug            DATA
 0002:0000dd04 00001704H .rdata$r                DATA
 0002:0000f410 0000041cH .rdata$sxdata           DATA
 0002:0000f82c 00000004H .rtc$IAA                DATA
 0002:0000f830 00000004H .rtc$IZZ                DATA
 0002:0000f834 00000004H .rtc$TAA                DATA
 0002:0000f838 00000004H .rtc$TZZ                DATA
 0002:0000f840 00004b3cH .xdata$x                DATA
 0002:0001437c 00000000H .edata                  DATA
 0002:0001437c 00000078H .idata$2                DATA
 0002:000143f4 00000014H .idata$3                DATA
 0002:00014408 000002e8H .idata$4                DATA
 0002:000146f0 00000c24H .idata$6                DATA
 0003:00000000 000039f0H .data                   DATA
 0003:000039f0 00000840H .data$r                 DATA
 0003:00004240 00003e1cH .bss                    DATA
 0004:00000000 00000058H .rsrc$01                DATA
 0004:00000060 00000188H .rsrc$02                DATA

  Address         Publics by Value              Rva+Base       Lib:Object

 0000:00000000       ___guard_fids_count        00000000     <absolute>
 0000:00000000       ___guard_fids_table        00000000     <absolute>
 0000:00000000       ___guard_flags             00000000     <absolute>
 0000:00000000       __except_list              00000000     <absolute>
 0000:00000107       ___safe_se_handler_count   00000107     <absolute>
 0000:00000000       ___ImageBase               00400000     <linker-defined>
 0001:00002020       ?isValid@JsonObject@@QBE_NXZ 00403020 f i WebApi:WebApi.obj
 0001:00002030       ??0PE_Debug@@QAE@XZ        00403030 f i WebApi:WebApi.obj
 0001:00002090       ??1PE_Debug@@QAE@XZ        00403090 f i WebApi:WebApi.obj
 0001:000020f0       ?ClearReport@PE_Debug@@QAEXXZ 004030f0 f i WebApi:WebApi.obj
 0001:00002100       ?DumpDebugInfo@PE_Debug@@QAEXPBEPAUHINSTANCE__@@@Z 00403100 f i WebApi:WebApi.obj
 0001:000021d0       ?ClearDebugPtrs@PE_Debug@@IAEXXZ 004031d0 f i WebApi:WebApi.obj
 0001:00002210       ?ClearFileCache@PE_Debug@@IAEXXZ 00403210 f i WebApi:WebApi.obj
 0001:00002270       ?DumpLineNumber@PE_Debug@@IAEXK@Z 00403270 f i WebApi:WebApi.obj
 0001:000022e0       ?GetSymbolName@PE_Debug@@IAEPBDPAU_IMAGE_SYMBOL@@@Z 004032e0 f i WebApi:WebApi.obj
 0001:00002340       ?DumpSymbolInfo@PE_Debug@@IAEXK@Z 00403340 f i WebApi:WebApi.obj
 0001:00002520       ?SectionHeaderFromName@PE_Debug@@IAEPAU_IMAGE_SECTION_HEADER@@PBD@Z 00403520 f i WebApi:WebApi.obj
 0001:00002590       ?GetDebugHeader@PE_Debug@@IAEPAU_IMAGE_COFF_SYMBOLS_HEADER@@XZ 00403590 f i WebApi:WebApi.obj
 0001:00002660       ?FindDebugInfo@PE_Debug@@IAEXXZ 00403660 f i WebApi:WebApi.obj
 0001:00002710       ?MapFileInMemory@PE_Debug@@IAEXPBD@Z 00403710 f i WebApi:WebApi.obj
 0001:000027d0       ?DumpExceptionDescr@@YAXK@Z 004037d0 f   WebApi:WebApi.obj
 0001:00002810       ?StackDump@@YAXKK@Z        00403810 f   WebApi:WebApi.obj
 0001:00002950       ?DumpExceptCallsStack@@YAXKK@Z 00403950 f   WebApi:WebApi.obj
 0001:00002990       ?WapiCrashHandler@@YGJPAU_EXCEPTION_POINTERS@@@Z 00403990 f   WebApi:WebApi.obj
 0001:00002b60       _customHttpError           00403b60 f   WebApi:WebApi.obj
 0001:00002cc0       _initWeApiCrashHandler     00403cc0 f   WebApi:WebApi.obj
 0001:00002d00       _registerWebApiActions     00403d00 f   WebApi:WebApi.obj
 0001:00002d40       _lumiGrowSetControllerAddr 00403d40 f   WebApi:WebApi.obj
 0001:00003210       _apiAuthtokenAction        00404210 f   WebApi:WebApi.obj
 0001:000033b0       _apiAuthuserAction         004043b0 f   WebApi:WebApi.obj
 0001:00003760       _apiUserAction             00404760 f   WebApi:WebApi.obj
 0001:00003a20       _apiZoneAction             00404a20 f   WebApi:WebApi.obj
 0001:00003c70       _apiFixtureAction          00404c70 f   WebApi:WebApi.obj
 0001:00003ed0       _apiProgramAction          00404ed0 f   WebApi:WebApi.obj
 0001:00004100       _apiProgramStepAction      00405100 f   WebApi:WebApi.obj
 0001:00004340       _apiAlertAction            00405340 f   WebApi:WebApi.obj
 0001:00004740       _apiNetworkAction          00405740 f   WebApi:WebApi.obj
 0001:00004930       _apiRfConfigAction         00405930 f   WebApi:WebApi.obj
 0001:00004b20       _apiWebsterAction          00405b20 f   WebApi:WebApi.obj
 0001:00004d50       _apiControllerAction       00405d50 f   WebApi:WebApi.obj
 0001:00004f90       _apiFaultAlertAction       00405f90 f   WebApi:WebApi.obj
 0001:00005160       _apiFixtureResetFaultsAction 00406160 f   WebApi:WebApi.obj
 0001:00005330       _apiZoneFaultsAction       00406330 f   WebApi:WebApi.obj
 0001:000054f0       _apiMapAction              004064f0 f   WebApi:WebApi.obj
 0001:00005720       _apiSensorAction           00406720 f   WebApi:WebApi.obj
 0001:00005950       _apiSensorResetFaultsAction 00406950 f   WebApi:WebApi.obj
 0001:00005b10       ?strstr@@YAPADPADPBD@Z     00406b10 f i WebApi:WebApi.obj
 0001:00005b20       ??0JsonValueEnum@@IAE@PBU_NAMED_ENUM@@HPBD@Z 00406b20 f   WebApi:JsonEnum.obj
 0001:00005bb0       ??_GJsonValueEnum@@UAEPAXI@Z 00406bb0 f i WebApi:JsonEnum.obj
 0001:00005bb0       ??_EJsonValueEnum@@UAEPAXI@Z 00406bb0 f i * CIL library *:* CIL module *
 0001:00005be0       ??1JsonValueEnum@@UAE@XZ   00406be0 f   WebApi:JsonEnum.obj
 0001:00005bf0       ??8JsonValueEnum@@QBE_NABH@Z 00406bf0 f   WebApi:JsonEnum.obj
 0001:00005c10       ??8JsonValueEnum@@QBE_NABQBD@Z 00406c10 f   WebApi:JsonEnum.obj
 0001:00005c70       ??8JsonValueEnum@@QBE_NABV0@@Z 00406c70 f   WebApi:JsonEnum.obj
 0001:00005c90       ?get@JsonValueEnum@@UBE_NAAH@Z 00406c90 f   WebApi:JsonEnum.obj
 0001:00005cb0       ?get@JsonValueEnum@@UBE_NAAPBD@Z 00406cb0 f   WebApi:JsonEnum.obj
 0001:00005d70       ?importJson@JsonValueEnum@@UAE_NPBD@Z 00406d70 f   WebApi:JsonEnum.obj
 0001:00005ec0       ?__autoclassinit2@JsonValueString@@QAEXI@Z 00406ec0 f i WebApi:JsonEnum.obj
 0001:00005ed0       ?exportJson@JsonValueEnum@@UBE_NAAPADAAH@Z 00406ed0 f   WebApi:JsonEnum.obj
 0001:00005f40       ?set@JsonValueEnum@@UAE_NH@Z 00406f40 f   WebApi:JsonEnum.obj
 0001:00006030       ?set@JsonValueEnum@@UAE_NPBD@Z 00407030 f   WebApi:JsonEnum.obj
 0001:000060d0       ?lockLog@@YAXXZ            004070d0 f   WebApi:Log.obj
 0001:00006100       ?unlockLog@@YAXXZ          00407100 f   WebApi:Log.obj
 0001:00006110       ?logIt@@YAXPBDPAD@Z        00407110 f   WebApi:Log.obj
 0001:000061b0       ?logError@@YAXPBDZZ        004071b0 f   WebApi:Log.obj
 0001:000061d0       ?logWarning@@YAXPBDZZ      004071d0 f   WebApi:Log.obj
 0001:000061f0       ?logVerbose@@YAXPBDZZ      004071f0 f   WebApi:Log.obj
 0001:00006210       ?logInformation@@YAXPBDZZ  00407210 f   WebApi:Log.obj
 0001:000062a0       ?logInit@@YAXXZ            004072a0 f   WebApi:Log.obj
 0001:000063a0       ?isNull@JsonValue@@QBE_NXZ 004073a0 f i WebApi:JsonObject.obj
 0001:000063b0       ?setErrorString@JsonValueString@@QAEXXZ 004073b0 f i WebApi:JsonObject.obj
 0001:000063c0       ?skipWhiteSpace@@YAPBDPBD@Z 004073c0 f   WebApi:JsonObject.obj
 0001:000063e0       ?find@@YAPBDPBD0_N@Z       004073e0 f   WebApi:JsonObject.obj
 0001:00006480       ?skip@@YAPBDPBD0@Z         00407480 f   WebApi:JsonObject.obj
 0001:000064a0       ?spanBlock@@YAPBDPBD@Z     004074a0 f   WebApi:JsonObject.obj
 0001:00006500       ?pack@@YAXPAD@Z            00407500 f   WebApi:JsonObject.obj
 0001:00006560       ??0JsonObject@@IAE@W4JsonObjectType@@PBU_JSON_FIELD@@HPBD2@Z 00407560 f   WebApi:JsonObject.obj
 0001:00006790       ??_GJsonObject@@UAEPAXI@Z  00407790 f i WebApi:JsonObject.obj
 0001:00006790       ??_EJsonObject@@UAEPAXI@Z  00407790 f i * CIL library *:* CIL module *
 0001:000067c0       ??1JsonObject@@UAE@XZ      004077c0 f   WebApi:JsonObject.obj
 0001:00006890       ??4JsonObject@@UAEAAV0@ABV0@@Z 00407890 f   WebApi:JsonObject.obj
 0001:000068e0       ?get@JsonObject@@UBE_NAAPAV1@@Z 004078e0 f   WebApi:JsonObject.obj
 0001:00006900       ?importJson@JsonObject@@UAE_NPBD@Z 00407900 f   WebApi:JsonObject.obj
 0001:00006da0       ?exportJson@JsonObject@@UBE_NAAPADAAH@Z 00407da0 f   WebApi:JsonObject.obj
 0001:000071a0       ?set@JsonObject@@UAE_NPBV1@@Z 004081a0 f   WebApi:JsonObject.obj
 0001:000071f0       ?setError@JsonObject@@QAEXW4ObjectError@JsonValueObjectError@@W4ObjectErrorCause@JsonValueObjectCause@@FPBD@Z 004081f0 f   WebApi:JsonObject.obj
 0001:00007260       ?setError@JsonObject@@QAEXPBV1@@Z 00408260 f   WebApi:JsonObject.obj
 0001:00007280       ?setError@JsonObject@@QAEXABV1@@Z 00408280 f   WebApi:JsonObject.obj
 0001:00007360       ?splitParts@JsonObject@@IBEPAU_JSON_PART@@PBD@Z 00408360 f   WebApi:JsonObject.obj
 0001:00007650       ?get@JsonObject@@UBE_NW4JsonField@@AA_N@Z 00408650 f   WebApi:JsonObject.obj
 0001:00007690       ?get@JsonObject@@UBE_NW4JsonField@@AAH@Z 00408690 f   WebApi:JsonObject.obj
 0001:000076d0       ?get@JsonObject@@UBE_NW4JsonField@@AAPBD@Z 004086d0 f   WebApi:JsonObject.obj
 0001:00007710       ?get@JsonObject@@UBE_NW4JsonField@@AAPAV1@@Z 00408710 f   WebApi:JsonObject.obj
 0001:00007750       ?set@JsonObject@@UAE_NW4JsonField@@_N@Z 00408750 f   WebApi:JsonObject.obj
 0001:00007790       ?set@JsonObject@@UAE_NW4JsonField@@H@Z 00408790 f   WebApi:JsonObject.obj
 0001:000077d0       ?set@JsonObject@@UAE_NW4JsonField@@QBD@Z 004087d0 f   WebApi:JsonObject.obj
 0001:00007810       ?set@JsonObject@@UAE_NW4JsonField@@PBV1@@Z 00408810 f   WebApi:JsonObject.obj
 0001:00007850       ?findField@JsonObject@@IBEPBU_JSON_FIELD@@W4JsonField@@@Z 00408850 f   WebApi:JsonObject.obj
 0001:000078c0       ?findField@JsonObject@@IBEPBU_JSON_FIELD@@PBD@Z 004088c0 f   WebApi:JsonObject.obj
 0001:00007970       ?getHttpResult@JsonObject@@QBEHXZ 00408970 f   WebApi:JsonObject.obj
 0001:000079e0       ?getError@JsonObject@@QBEXAAW4ObjectError@JsonValueObjectError@@AAW4ObjectErrorCause@JsonValueObjectCause@@AAFAAPBD@Z 004089e0 f   WebApi:JsonObject.obj
 0001:00007a30       ?getError@JsonObject@@QBE?AW4ObjectError@JsonValueObjectError@@XZ 00408a30 f   WebApi:JsonObject.obj
 0001:00007a60       ?getErrorCause@JsonObject@@QBE?AW4ObjectErrorCause@JsonValueObjectCause@@XZ 00408a60 f   WebApi:JsonObject.obj
 0001:00007a90       ?getErrorField@JsonObject@@QBEFXZ 00408a90 f   WebApi:JsonObject.obj
 0001:00007ad0       ?getErrorValue@JsonObject@@QBEPBDXZ 00408ad0 f   WebApi:JsonObject.obj
 0001:00007b10       ?next@Record@@QAEPAV1@XZ   00408b10 f i WebApi:Alert.obj
 0001:00007b20       ?removeNext@Record@@QAEPAV1@XZ 00408b20 f i WebApi:Alert.obj
 0001:00007b50       ??0Alert@@IAE@PBD@Z        00408b50 f   WebApi:Alert.obj
 0001:00007fa0       ??_GAlert@@UAEPAXI@Z       00408fa0 f i WebApi:Alert.obj
 0001:00007fa0       ??_EAlert@@UAEPAXI@Z       00408fa0 f i * CIL library *:* CIL module *
 0001:00007fd0       ??1Alert@@UAE@XZ           00408fd0 f   WebApi:Alert.obj
 0001:00008150       ?create@Alert@@UBEPAVJsonValue@@XZ 00409150 f   WebApi:Alert.obj
 0001:000081c0       ?Copy@Alert@@IAEXPAVAlertRecord@@@Z 004091c0 f   WebApi:Alert.obj
 0001:000082f0       ?queryFromHtml@Alert@@SAPAV1@VAuthority@@PBD@Z 004092f0 f   WebApi:Alert.obj
 0001:00008400       ?updateFromHtml@Alert@@SAPAV1@VAuthority@@PBD@Z 00409400 f   WebApi:Alert.obj
 0001:00008510       ?fromHtml@Alert@@IAEXVAuthority@@PBD_N@Z 00409510 f   WebApi:Alert.obj
 0001:000094e0       ?queryFaults@Alert@@SAPAV1@VAuthority@@PBD1@Z 0040a4e0 f   WebApi:Alert.obj
 0001:000095f0       ?filterByFixtureList@Alert@@KA_NPAVAlertRecord@@PAVJsonObject@@@Z 0040a5f0 f   WebApi:Alert.obj
 0001:000096b0       ?getFaults@Alert@@IAEXVAuthority@@PBD1@Z 0040a6b0 f   WebApi:Alert.obj
 0001:00009990       ?findAlert@@YA_NVAuthority@@PBDAAPAVJsonObject@@@Z 0040a990 f   WebApi:Alert.obj
 0001:000099e0       ?updateAlert@@YA_NVAuthority@@PBDAAPAVJsonObject@@@Z 0040a9e0 f   WebApi:Alert.obj
 0001:00009a30       ?insertAlert@@YA_NHHPBD0@Z 0040aa30 f   WebApi:Alert.obj
 0001:00009ac0       ?findFaultAlert@@YA_NVAuthority@@PBD1AAPAVJsonObject@@@Z 0040aac0 f   WebApi:Alert.obj
 0001:00009b10       ?getUserId@Authority@@QBEHXZ 0040ab10 f i WebApi:Alert.obj
 0001:00009b50       ?isRunning@Performance@@QAE_NXZ 0040ab50 f i WebApi:Controller.obj
 0001:00009b60       ?lock@Controller@@CAXXZ    0040ab60 f   WebApi:Controller.obj
 0001:00009b90       ?unlock@Controller@@CAXXZ  0040ab90 f   WebApi:Controller.obj
 0001:00009ba0       ??0Controller@@IAE@XZ      0040aba0 f   WebApi:Controller.obj
 0001:00009bd0       ??_EController@@UAEPAXI@Z  0040abd0 f i * CIL library *:* CIL module *
 0001:00009bd0       ??_GController@@UAEPAXI@Z  0040abd0 f i WebApi:Controller.obj
 0001:00009c10       ??1Controller@@UAE@XZ      0040ac10 f   WebApi:Controller.obj
 0001:00009c40       ?free@Controller@@KAXXZ    0040ac40 f   WebApi:Controller.obj
 0001:00009c60       ?connect@Controller@@SA_NPBD@Z 0040ac60 f   WebApi:Controller.obj
 0001:00009d20       ?release@Controller@@KAXXZ 0040ad20 f   WebApi:Controller.obj
 0001:00009d40       ?tryConnect@Controller@@KAXPBD@Z 0040ad40 f   WebApi:Controller.obj
 0001:00009f30       ?setStatus@Controller@@KAX_N0@Z 0040af30 f   WebApi:Controller.obj
 0001:00009fd0       ?haveController@Controller@@SA_NXZ 0040afd0 f   WebApi:Controller.obj
 0001:00009ff0       ?getKey@Controller@@KA_NXZ 0040aff0 f   WebApi:Controller.obj
 0001:0000a090       ?sendAttach@Controller@@IAE_NXZ 0040b090 f   WebApi:Controller.obj
 0001:0000a190       ?doRequest@Controller@@KA_NPBDAAPAD@Z 0040b190 f   WebApi:Controller.obj
 0001:0000a2f0       ?buildRequest@Controller@@SAPBDPBD0PAVJsonRequestFields@@PAVJsonRequestParams@@@Z 0040b2f0 f   WebApi:Controller.obj
 0001:0000a330       ?buildRequest@Controller@@KAPBDW4RequestType@JsonValueRequestType@@PBD1PAVJsonRequestFields@@PAVJsonRequestParams@@@Z 0040b330 f   WebApi:Controller.obj
 0001:0000a3d0       ?query@Controller@@SA_NAAPAVJsonObject@@PBD1PAVJsonRequestFields@@@Z 0040b3d0 f   WebApi:Controller.obj
 0001:0000a520       ?sendDelete@Controller@@SA_NAAPAVJsonObject@@PBD1@Z 0040b520 f   WebApi:Controller.obj
 0001:0000a680       ?update@Controller@@SA_NAAPAVJsonObject@@PBD1PAVJsonRequestParams@@PAVJsonRequestFields@@@Z 0040b680 f   WebApi:Controller.obj
 0001:0000a8b0       ?setTime@Controller@@SA_NXZ 0040b8b0 f   WebApi:Controller.obj
 0001:0000aac0       ?initialize@Controller@@KA_NXZ 0040bac0 f   WebApi:Controller.obj
 0001:0000ad00       ?dump@@YAXPAEI@Z           0040bd00 f   WebApi:Controller.obj
 0001:0000adb0       ?dumpElapsed@Controller@@KAPBDXZ 0040bdb0 f   WebApi:Controller.obj
 0001:0000ae90       ?dump@Controller@@IAEX_NPADI@Z 0040be90 f   WebApi:Controller.obj
 0001:0000af00       ?reconnectThread@Controller@@KGKPAX@Z 0040bf00 f   WebApi:Controller.obj
 0001:0000afb0       ?reset@Controller@@SAXPBD@Z 0040bfb0 f   WebApi:Controller.obj
 0001:0000afe0       ?internalReset@Controller@@KAX_N@Z 0040bfe0 f   WebApi:Controller.obj
 0001:0000b2b0       ?resetDatabase@Controller@@KAXXZ 0040c2b0 f   WebApi:Controller.obj
 0001:0000b480       ?clockSkewThread@Controller@@KGKPAX@Z 0040c480 f   WebApi:Controller.obj
 0001:0000b660       ?controllerSetAddr@@YAXPBD@Z 0040c660 f   WebApi:Controller.obj
 0001:0000b6b0       ?useController@@YA_NXZ     0040c6b0 f   WebApi:Controller.obj
 0001:0000b6d0       ??0DatabaseManager@@IAE@XZ 0040c6d0 f   WebApi:DatabaseManager.obj
 0001:0000b710       ??1DatabaseManager@@QAE@XZ 0040c710 f   WebApi:DatabaseManager.obj
 0001:0000b770       ?startSync@DatabaseManager@@SA_NXZ 0040c770 f   WebApi:DatabaseManager.obj
 0001:0000b7b0       ?reinitDatabase@DatabaseManager@@SA_NXZ 0040c7b0 f   WebApi:DatabaseManager.obj
 0001:0000b810       ?syncThread@DatabaseManager@@KGKPAX@Z 0040c810 f   WebApi:DatabaseManager.obj
 0001:0000b830       ?doSync@DatabaseManager@@IAEKXZ 0040c830 f   WebApi:DatabaseManager.obj
 0001:0000bb20       ??0Authority@@QAE@HW4AuthLevel@0@@Z 0040cb20 f   WebApi:Authority.obj
 0001:0000bb40       ??1Authority@@QAE@XZ       0040cb40 f   WebApi:Authority.obj
 0001:0000bb50       ?reset@Authority@@QAEXXZ   0040cb50 f   WebApi:Authority.obj
 0001:0000bb60       ?set@Authority@@QAEXHH@Z   0040cb60 f   WebApi:Authority.obj
 0001:0000bb90       ??0Restriction@@QAE@W4AuthLevel@Authority@@W4RestrictOperation@0@W4RestrictAllow@0@@Z 0040cb90 f   WebApi:Authority.obj
 0001:0000bbb0       ??1Restriction@@QAE@XZ     0040cbb0 f   WebApi:Authority.obj
 0001:0000bbc0       ?isAllowed@Restriction@@SA_NPBV1@HVAuthority@@W4RestrictOperation@1@H@Z 0040cbc0 f   WebApi:Authority.obj
 0001:0000bc30       ?internalIsAllowed@Restriction@@IBE_NVAuthority@@W4RestrictOperation@1@H@Z 0040cc30 f   WebApi:Authority.obj
 0001:0000bc90       ?getAuthLevel@Authority@@QBE?AW4AuthLevel@1@XZ 0040cc90 f i WebApi:Authority.obj
 0001:0000bce0       ??0AuthToken@@QAE@PBD@Z    0040cce0 f   WebApi:AuthToken.obj
 0001:0000be10       ??_EAuthToken@@UAEPAXI@Z   0040ce10 f i * CIL library *:* CIL module *
 0001:0000be10       ??_GAuthToken@@UAEPAXI@Z   0040ce10 f i WebApi:AuthToken.obj
 0001:0000beb0       ??1AuthToken@@UAE@XZ       0040ceb0 f   WebApi:AuthToken.obj
 0001:0000bf40       ?create@AuthToken@@UBEPAVJsonValue@@XZ 0040cf40 f   WebApi:AuthToken.obj
 0001:0000bfb0       ?createAuthToken@AuthToken@@IAEXXZ 0040cfb0 f   WebApi:AuthToken.obj
 0001:0000c040       ?getToken@AuthToken@@SAPAV1@XZ 0040d040 f   WebApi:AuthToken.obj
 0001:0000c0b0       ?token@AuthToken@@QAEPBDXZ 0040d0b0 f   WebApi:AuthToken.obj
 0001:0000c130       ?isContentValid@AuthToken@@SA_NPBD@Z 0040d130 f   WebApi:AuthToken.obj
 0001:0000c200       ?createAuthToken@@YA_NAAPAVAuthToken@@@Z 0040d200 f   WebApi:AuthToken.obj
 0001:0000c2a0       ??0Error@@QAE@PBD@Z        0040d2a0 f   WebApi:Error.obj
 0001:0000c2d0       ??_GError@@UAEPAXI@Z       0040d2d0 f i WebApi:Error.obj
 0001:0000c2d0       ??_EError@@UAEPAXI@Z       0040d2d0 f i * CIL library *:* CIL module *
 0001:0000c300       ??1Error@@UAE@XZ           0040d300 f   WebApi:Error.obj
 0001:0000c310       ?create@Error@@UBEPAVJsonValue@@XZ 0040d310 f   WebApi:Error.obj
 0001:0000c3a0       ?create@Error@@SAPAV1@W4ObjectError@JsonValueObjectError@@W4ObjectErrorCause@JsonValueObjectCause@@FPBD@Z 0040d3a0 f   WebApi:Error.obj
 0001:0000c480       ?createError@@YA_NAAPAVJsonObject@@W4ObjectError@JsonValueObjectError@@W4ObjectErrorCause@JsonValueObjectCause@@FPBD@Z 0040d480 f   WebApi:Error.obj
 0001:0000c4c0       ?construct@@YAXAAHPBD1@Z   0040d4c0 f   WebApi:JsonValue.obj
 0001:0000c4e0       ?destruct@@YAXHPBD0@Z      0040d4e0 f   WebApi:JsonValue.obj
 0001:0000c4f0       ?enter@@YAXPBD0@Z          0040d4f0 f   WebApi:JsonValue.obj
 0001:0000c500       ?leave@@YAXPBD0@Z          0040d500 f   WebApi:JsonValue.obj
 0001:0000c510       ??0JsonValue@@IAE@W4JsonObjectType@@PBD1@Z 0040d510 f   WebApi:JsonValue.obj
 0001:0000c570       ??_EJsonValue@@UAEPAXI@Z   0040d570 f i * CIL library *:* CIL module *
 0001:0000c570       ??_GJsonValue@@UAEPAXI@Z   0040d570 f i WebApi:JsonValue.obj
 0001:0000c5a0       ??1JsonValue@@UAE@XZ       0040d5a0 f   WebApi:JsonValue.obj
 0001:0000c640       ?deleteFromEnd@JsonValue@@IAEXXZ 0040d640 f   WebApi:JsonValue.obj
 0001:0000c6b0       ??4JsonValue@@UAEAAV0@ABV0@@Z 0040d6b0 f   WebApi:JsonValue.obj
 0001:0000c6e0       ?getType@JsonValue@@QBE?AW4JsonObjectType@@XZ 0040d6e0 f   WebApi:JsonValue.obj
 0001:0000c6f0       ?get@JsonValue@@UBE_NAA_N@Z 0040d6f0 f   WebApi:JsonValue.obj
 0001:0000c700       ?get@JsonValue@@UBE_NAAH@Z 0040d700 f   WebApi:JsonValue.obj
 0001:0000c710       ?get@JsonValue@@UBE_NAAPBD@Z 0040d710 f   WebApi:JsonValue.obj
 0001:0000c720       ?get@JsonValue@@UAE_NAAPAVJsonObject@@@Z 0040d720 f   WebApi:JsonValue.obj
 0001:0000c730       ?set@JsonValue@@UAE_N_N@Z  0040d730 f   WebApi:JsonValue.obj
 0001:0000c740       ?set@JsonValue@@UAE_NH@Z   0040d740 f   WebApi:JsonValue.obj
 0001:0000c750       ?set@JsonValue@@UAE_NPBD@Z 0040d750 f   WebApi:JsonValue.obj
 0001:0000c760       ?set@JsonValue@@UAE_NPBVJsonObject@@@Z 0040d760 f   WebApi:JsonValue.obj
 0001:0000c770       ?isJsonNull@JsonValue@@KA_NPBD@Z 0040d770 f   WebApi:JsonValue.obj
 0001:0000c7b0       ?setNull@JsonValue@@QAEX_N@Z 0040d7b0 f   WebApi:JsonValue.obj
 0001:0000c7c0       ?doExport@JsonValue@@KAHAAPADPBDZZ 0040d7c0 f   WebApi:JsonValue.obj
 0001:0000c810       ?link@JsonValue@@UAEPAV1@PAV1@@Z 0040d810 f   WebApi:JsonValue.obj
 0001:0000c840       ?getJson@JsonValue@@QBEPBDXZ 0040d840 f   WebApi:JsonValue.obj
 0001:0000c8e0       ?getError@JsonValue@@IAEXAAH0AAPBD@Z 0040d8e0 f   WebApi:JsonValue.obj
 0001:0000c900       ?setError@JsonValue@@IAEXHHPBD@Z 0040d900 f   WebApi:JsonValue.obj
 0001:0000c980       ??1UserWrapper@@UAE@XZ     0040d980 f i WebApi:User.obj
 0001:0000c9e0       ??_EUserWrapper@@UAEPAXI@Z 0040d9e0 f i * CIL library *:* CIL module *
 0001:0000c9e0       ??_GUserWrapper@@UAEPAXI@Z 0040d9e0 f i WebApi:User.obj
 0001:0000ca60       ??0UserWrapper@@QAE@PBD@Z  0040da60 f   WebApi:User.obj
 0001:0000cae0       ?create@UserWrapper@@UBEPAVJsonValue@@XZ 0040dae0 f   WebApi:User.obj
 0001:0000cb90       ?setUser@UserWrapper@@QAEXPAVUser@@@Z 0040db90 f   WebApi:User.obj
 0001:0000cbc0       ?get@UserWrapper@@UBE_NAAPAVJsonObject@@@Z 0040dbc0 f   WebApi:User.obj
 0001:0000cbe0       ?get@UserWrapper@@UBE_NW4JsonField@@AA_N@Z 0040dbe0 f   WebApi:User.obj
 0001:0000cc00       ?get@UserWrapper@@UBE_NW4JsonField@@AAH@Z 0040dc00 f   WebApi:User.obj
 0001:0000cc20       ?get@UserWrapper@@UBE_NW4JsonField@@AAPBD@Z 0040dc20 f   WebApi:User.obj
 0001:0000cc40       ?get@UserWrapper@@UBE_NW4JsonField@@AAPAVJsonObject@@@Z 0040dc40 f   WebApi:User.obj
 0001:0000cc60       ??0User@@QAE@PBD0@Z        0040dc60 f   WebApi:User.obj
 0001:0000d0f0       ??_GUser@@UAEPAXI@Z        0040e0f0 f i WebApi:User.obj
 0001:0000d0f0       ??_EUser@@UAEPAXI@Z        0040e0f0 f i * CIL library *:* CIL module *
 0001:0000d120       ??1User@@UAE@XZ            0040e120 f   WebApi:User.obj
 0001:0000d2e0       ?create@User@@UBEPAVJsonValue@@XZ 0040e2e0 f   WebApi:User.obj
 0001:0000d350       ?fromDbByUsername@User@@SAPAV1@VAuthority@@PBD11@Z 0040e350 f   WebApi:User.obj
 0001:0000d630       ?fromDbByUserid@User@@SAPAV1@VAuthority@@PBD11@Z 0040e630 f   WebApi:User.obj
 0001:0000d8e0       ?fromDb@User@@SAPAV1@VAuthority@@PBD111@Z 0040e8e0 f   WebApi:User.obj
 0001:0000dac0       ?Copy@User@@IAEXPAVUserRecord@@@Z 0040eac0 f   WebApi:User.obj
 0001:0000dc00       ?updateFromHtml@User@@SAPAV1@VAuthority@@PBD@Z 0040ec00 f   WebApi:User.obj
 0001:0000dd70       ?fromHtml@User@@IAEXVAuthority@@PBD_N@Z 0040ed70 f   WebApi:User.obj
 0001:0000eab0       ?CheckDuplicate@User@@IAE_NHPBU_PROPERTY@@H@Z 0040fab0 f   WebApi:User.obj
 0001:0000ed10       ?findUser@@YA_NAAPAVJsonObject@@VAuthority@@PBD222@Z 0040fd10 f   WebApi:User.obj
 0001:0000ed50       ?authUser@@YA_NAAPAVJsonObject@@VAuthority@@PBD2222@Z 0040fd50 f   WebApi:User.obj
 0001:0000edd0       ?updateUser@@YA_NAAPAVJsonObject@@VAuthority@@PBD@Z 0040fdd0 f   WebApi:User.obj
 0001:0000ee20       ?getViewModeId@ProgramRecord@@SAHXZ 0040fe20 f i WebApi:Zone.obj
 0001:0000ee30       ??0Zone@@QAE@PBD@Z         0040fe30 f   WebApi:Zone.obj
 0001:0000f5c0       ??_EZone@@UAEPAXI@Z        004105c0 f i * CIL library *:* CIL module *
 0001:0000f5c0       ??_GZone@@UAEPAXI@Z        004105c0 f i WebApi:Zone.obj
 0001:0000f5f0       ?create@Zone@@UBEPAVJsonValue@@XZ 004105f0 f   WebApi:Zone.obj
 0001:0000f660       ??1Zone@@UAE@XZ            00410660 f   WebApi:Zone.obj
 0001:0000f8c0       ?fromDb@Zone@@SAPAV1@VAuthority@@PBD11@Z 004108c0 f   WebApi:Zone.obj
 0001:0000fb50       ?Copy@Zone@@IAEXPAVZoneRecord@@@Z 00410b50 f   WebApi:Zone.obj
 0001:0000fe30       ?updateFromHtml@Zone@@SAPAV1@VAuthority@@PBD@Z 00410e30 f   WebApi:Zone.obj
 0001:0000ffa0       ?fromHtml@Zone@@IAEXVAuthority@@PBD_N@Z 00410fa0 f   WebApi:Zone.obj
 0001:00011610       ?CheckDuplicate@Zone@@IAE_NHPBU_PROPERTY@@H@Z 00412610 f   WebApi:Zone.obj
 0001:00011870       ?findZone@@YA_NVAuthority@@PBD11AAPAVJsonObject@@@Z 00412870 f   WebApi:Zone.obj
 0001:000118d0       ?updateZone@@YA_NVAuthority@@PBDAAPAVJsonObject@@@Z 004128d0 f   WebApi:Zone.obj
 0001:00011920       ??0Fixture@@QAE@PBD@Z      00412920 f   WebApi:Fixture.obj
 0001:000121a0       ??_EFixture@@UAEPAXI@Z     004131a0 f i * CIL library *:* CIL module *
 0001:000121a0       ??_GFixture@@UAEPAXI@Z     004131a0 f i WebApi:Fixture.obj
 0001:000121d0       ?create@Fixture@@UBEPAVJsonValue@@XZ 004131d0 f   WebApi:Fixture.obj
 0001:00012240       ??1Fixture@@UAE@XZ         00413240 f   WebApi:Fixture.obj
 0001:00012480       ?fromDb@Fixture@@SAPAV1@VAuthority@@PBD11@Z 00413480 f   WebApi:Fixture.obj
 0001:00012590       ?fixtureListFromDb@Fixture@@SAPAV1@VAuthority@@PBD11@Z 00413590 f   WebApi:Fixture.obj
 0001:000126e0       ?resetFaults@Fixture@@SAPAV1@VAuthority@@PBD1@Z 004136e0 f   WebApi:Fixture.obj
 0001:000129a0       ?Copy@Fixture@@IAEXPAVFixtureRecord@@@Z 004139a0 f   WebApi:Fixture.obj
 0001:00012cb0       ?updateFromHtml@Fixture@@SAPAV1@VAuthority@@PBD@Z 00413cb0 f   WebApi:Fixture.obj
 0001:00012e20       ?fromHtml@Fixture@@IAEXVAuthority@@PBD_N@Z 00413e20 f   WebApi:Fixture.obj
 0001:00014170       ?CheckDuplicate@Fixture@@IAE_NHPBU_PROPERTY@@H@Z 00415170 f   WebApi:Fixture.obj
 0001:000143d0       ?findFixture@@YA_NVAuthority@@PBD11AAPAVJsonObject@@@Z 004153d0 f   WebApi:Fixture.obj
 0001:00014430       ?updateFixture@@YA_NVAuthority@@PBDAAPAVJsonObject@@@Z 00415430 f   WebApi:Fixture.obj
 0001:00014480       ?resetFixtureFaults@@YA_NVAuthority@@PBD1AAPAVJsonObject@@@Z 00415480 f   WebApi:Fixture.obj
 0001:000144d0       ??0Program@@QAE@PBD@Z      004154d0 f   WebApi:Program.obj
 0001:000146b0       ??_GProgram@@UAEPAXI@Z     004156b0 f i WebApi:Program.obj
 0001:000146b0       ??_EProgram@@UAEPAXI@Z     004156b0 f i * CIL library *:* CIL module *
 0001:000146e0       ?create@Program@@UBEPAVJsonValue@@XZ 004156e0 f   WebApi:Program.obj
 0001:00014750       ??1Program@@UAE@XZ         00415750 f   WebApi:Program.obj
 0001:00014840       ?fromDb@Program@@SAPAV1@VAuthority@@PBD1@Z 00415840 f   WebApi:Program.obj
 0001:00014b60       ??4Program@@QAEAAV0@ABV0@@Z 00415b60 f i WebApi:Program.obj
 0001:00014cb0       ??4JsonValueInt@@QAEAAV0@ABV0@@Z 00415cb0 f i WebApi:Program.obj
 0001:00014d00       ??4JsonValueString@@QAEAAV0@ABV0@@Z 00415d00 f i WebApi:Program.obj
 0001:00014d50       ?Copy@Program@@IAEXPAVProgramRecord@@@Z 00415d50 f   WebApi:Program.obj
 0001:00014e00       ?updateFromHtml@Program@@SAPAV1@VAuthority@@PBD@Z 00415e00 f   WebApi:Program.obj
 0001:00014f40       ?fromHtml@Program@@IAEXVAuthority@@PBD_N@Z 00415f40 f   WebApi:Program.obj
 0001:00015cc0       ?CheckDuplicate@Program@@IAE_NHPBU_PROPERTY@@H@Z 00416cc0 f   WebApi:Program.obj
 0001:00015f20       ?findProgram@@YA_NVAuthority@@PBD1AAPAVJsonObject@@@Z 00416f20 f   WebApi:Program.obj
 0001:00015f70       ?updateProgram@@YA_NVAuthority@@PBDAAPAVJsonObject@@@Z 00416f70 f   WebApi:Program.obj
 0001:00016050       ??0ProgramStep@@QAE@PBD@Z  00417050 f   WebApi:ProgramStep.obj
 0001:00016570       ??_EProgramStep@@UAEPAXI@Z 00417570 f i * CIL library *:* CIL module *
 0001:00016570       ??_GProgramStep@@UAEPAXI@Z 00417570 f i WebApi:ProgramStep.obj
 0001:000165a0       ?create@ProgramStep@@UBEPAVJsonValue@@XZ 004175a0 f   WebApi:ProgramStep.obj
 0001:00016610       ??1ProgramStep@@UAE@XZ     00417610 f   WebApi:ProgramStep.obj
 0001:00016770       ?getSteps@ProgramStep@@SAPAV1@VAuthority@@PBD@Z 00417770 f   WebApi:ProgramStep.obj
 0001:000167f0       ?queryFromHtml@ProgramStep@@SAPAV1@VAuthority@@PBD@Z 004177f0 f   WebApi:ProgramStep.obj
 0001:00016930       ?Copy@ProgramStep@@IAEXPAVProgramStepRecord@@@Z 00417930 f   WebApi:ProgramStep.obj
 0001:00016b10       ?updateFromHtml@ProgramStep@@SAPAV1@VAuthority@@PBD@Z 00417b10 f   WebApi:ProgramStep.obj
 0001:00016c80       ?fromHtml@ProgramStep@@IAEXVAuthority@@PBD_N@Z 00417c80 f   WebApi:ProgramStep.obj
 0001:00017b60       ?findProgramStep@@YA_NVAuthority@@PBD1AAPAVJsonObject@@@Z 00418b60 f   WebApi:ProgramStep.obj
 0001:00017bf0       ?updateProgramStep@@YA_NVAuthority@@PBDAAPAVJsonObject@@@Z 00418bf0 f   WebApi:ProgramStep.obj
 0001:00017c50       ??0Network@@IAE@PBD@Z      00418c50 f   WebApi:Network.obj
 0001:000180a0       ??_ENetwork@@UAEPAXI@Z     004190a0 f i * CIL library *:* CIL module *
 0001:000180a0       ??_GNetwork@@UAEPAXI@Z     004190a0 f i WebApi:Network.obj
 0001:000180d0       ??1Network@@UAE@XZ         004190d0 f   WebApi:Network.obj
 0001:000182c0       ?create@Network@@UBEPAVJsonValue@@XZ 004192c0 f   WebApi:Network.obj
 0001:00018330       ?queryFromHtml@Network@@SAPAV1@PBD@Z 00419330 f   WebApi:Network.obj
 0001:00018430       ?updateFromHtml@Network@@SAPAV1@PBD@Z 00419430 f   WebApi:Network.obj
 0001:00018530       ?fromHtml@Network@@IAEXPBD_N@Z 00419530 f   WebApi:Network.obj
 0001:00018ef0       ?getNetwork@@YA_NPBDAAPAVJsonObject@@@Z 00419ef0 f   WebApi:Network.obj
 0001:00018f30       ?updateNetwork@@YA_NPBDAAPAVJsonObject@@@Z 00419f30 f   WebApi:Network.obj
 0001:00018f70       ??0RfConfig@@QAE@PBD@Z     00419f70 f   WebApi:RfConfig.obj
 0001:00019030       ??_ERfConfig@@UAEPAXI@Z    0041a030 f i * CIL library *:* CIL module *
 0001:00019030       ??_GRfConfig@@UAEPAXI@Z    0041a030 f i WebApi:RfConfig.obj
 0001:000190b0       ?create@RfConfig@@UBEPAVJsonValue@@XZ 0041a0b0 f   WebApi:RfConfig.obj
 0001:00019120       ??1RfConfig@@UAE@XZ        0041a120 f   WebApi:RfConfig.obj
 0001:00019190       ?fromDb@RfConfig@@SAPAV1@XZ 0041a190 f   WebApi:RfConfig.obj
 0001:000192b0       ?updateFromHtml@RfConfig@@SAPAV1@PBD@Z 0041a2b0 f   WebApi:RfConfig.obj
 0001:00019390       ?fromHtml@RfConfig@@IAEXPBD_N@Z 0041a390 f   WebApi:RfConfig.obj
 0001:00019910       ?findRfConfig@@YA_NAAPAVJsonObject@@@Z 0041a910 f   WebApi:RfConfig.obj
 0001:00019940       ?updateRfConfig@@YA_NPBDAAPAVJsonObject@@@Z 0041a940 f   WebApi:RfConfig.obj
 0001:000199a0       ??0Webster@@QAE@PBD@Z      0041a9a0 f   WebApi:Webster.obj
 0001:00019b40       ??_EWebster@@UAEPAXI@Z     0041ab40 f i * CIL library *:* CIL module *
 0001:00019b40       ??_GWebster@@UAEPAXI@Z     0041ab40 f i WebApi:Webster.obj
 0001:00019b70       ??1Webster@@UAE@XZ         0041ab70 f   WebApi:Webster.obj
 0001:00019b80       ?fromDb@Webster@@SAPAV1@VAuthority@@PBD1@Z 0041ab80 f   WebApi:Webster.obj
 0001:00019d50       ?updateFromHtml@Webster@@SAPAV1@VAuthority@@PBD@Z 0041ad50 f   WebApi:Webster.obj
 0001:00019f10       ?fromHtml@Webster@@IAEXVAuthority@@PBD_N@Z 0041af10 f   WebApi:Webster.obj
 0001:0001adb0       ?findWebster@@YA_NVAuthority@@PBD1AAPAVJsonObject@@@Z 0041bdb0 f   WebApi:Webster.obj
 0001:0001ae00       ?updateWebster@@YA_NVAuthority@@PBDAAPAVJsonObject@@@Z 0041be00 f   WebApi:Webster.obj
 0001:0001ae50       ??0Controller4Web@@QAE@PBD@Z 0041be50 f   WebApi:Controller4Web.obj
 0001:0001b1d0       ??_GController4Web@@UAEPAXI@Z 0041c1d0 f i WebApi:Controller4Web.obj
 0001:0001b1d0       ??_EController4Web@@UAEPAXI@Z 0041c1d0 f i * CIL library *:* CIL module *
 0001:0001b200       ?create@Controller4Web@@UBEPAVJsonValue@@XZ 0041c200 f   WebApi:Controller4Web.obj
 0001:0001b270       ??1Controller4Web@@UAE@XZ  0041c270 f   WebApi:Controller4Web.obj
 0001:0001b3c0       ?fromDb@Controller4Web@@SAPAV1@VAuthority@@PBD1@Z 0041c3c0 f   WebApi:Controller4Web.obj
 0001:0001b550       ?updateFromHtml@Controller4Web@@SAPAV1@VAuthority@@PBD@Z 0041c550 f   WebApi:Controller4Web.obj
 0001:0001b6c0       ?fromHtml@Controller4Web@@IAEXVAuthority@@PBD_N@Z 0041c6c0 f   WebApi:Controller4Web.obj
 0001:0001c720       ??4JsonColor@@QAEAAV0@ABV0@@Z 0041d720 f i WebApi:Controller4Web.obj
 0001:0001c960       ?findController4Web@@YA_NVAuthority@@PBD1AAPAVJsonObject@@@Z 0041d960 f   WebApi:Controller4Web.obj
 0001:0001c9b0       ?updateController4Web@@YA_NVAuthority@@PBDAAPAVJsonObject@@@Z 0041d9b0 f   WebApi:Controller4Web.obj
 0001:0001ca00       ??0ZoneFault@@QAE@PBD@Z    0041da00 f   WebApi:ZoneFault.obj
 0001:0001cb30       ??_EZoneFault@@UAEPAXI@Z   0041db30 f i * CIL library *:* CIL module *
 0001:0001cb30       ??_GZoneFault@@UAEPAXI@Z   0041db30 f i WebApi:ZoneFault.obj
 0001:0001cbc0       ?create@ZoneFault@@UBEPAVJsonValue@@XZ 0041dbc0 f   WebApi:ZoneFault.obj
 0001:0001cc30       ??1ZoneFault@@UAE@XZ       0041dc30 f   WebApi:ZoneFault.obj
 0001:0001ccb0       ?fromDb@ZoneFault@@SAPAV1@VAuthority@@PBD@Z 0041dcb0 f   WebApi:ZoneFault.obj
 0001:0001d0c0       ?findZoneFaults@@YA_NVAuthority@@PBDAAPAVJsonObject@@@Z 0041e0c0 f   WebApi:ZoneFault.obj
 0001:0001d110       ??0Map@@QAE@PBD@Z          0041e110 f   WebApi:Map.obj
 0001:0001d480       ??_GMap@@UAEPAXI@Z         0041e480 f i WebApi:Map.obj
 0001:0001d480       ??_EMap@@UAEPAXI@Z         0041e480 f i * CIL library *:* CIL module *
 0001:0001d4b0       ?create@Map@@UBEPAVJsonValue@@XZ 0041e4b0 f   WebApi:Map.obj
 0001:0001d520       ??1Map@@UAE@XZ             0041e520 f   WebApi:Map.obj
 0001:0001d700       ?fromDb@Map@@SAPAV1@VAuthority@@PBD1@Z 0041e700 f   WebApi:Map.obj
 0001:0001d8d0       ?Copy@Map@@IAEXPAVMapRecord@@@Z 0041e8d0 f   WebApi:Map.obj
 0001:0001da20       ?updateFromHtml@Map@@SAPAV1@VAuthority@@PBD@Z 0041ea20 f   WebApi:Map.obj
 0001:0001db90       ?fromHtml@Map@@IAEXVAuthority@@PBD_N@Z 0041eb90 f   WebApi:Map.obj
 0001:0001e9d0       ?CheckDuplicate@Map@@IAE_NHPBU_PROPERTY@@H@Z 0041f9d0 f   WebApi:Map.obj
 0001:0001ec30       ?findMap@@YA_NVAuthority@@PBD1AAPAVJsonObject@@@Z 0041fc30 f   WebApi:Map.obj
 0001:0001ec80       ?updateMap@@YA_NVAuthority@@PBDAAPAVJsonObject@@@Z 0041fc80 f   WebApi:Map.obj
 0001:0001ecd0       ??0Sensor@@QAE@PBD@Z       0041fcd0 f   WebApi:Sensor.obj
 0001:0001ed00       ??_GSensor@@UAEPAXI@Z      0041fd00 f i WebApi:Sensor.obj
 0001:0001ed00       ??_ESensor@@UAEPAXI@Z      0041fd00 f i * CIL library *:* CIL module *
 0001:0001ed80       ?create@Sensor@@UBEPAVJsonValue@@XZ 0041fd80 f   WebApi:Sensor.obj
 0001:0001ee10       ??1Sensor@@UAE@XZ          0041fe10 f   WebApi:Sensor.obj
 0001:0001ee80       ?fromDb@Sensor@@SAPAV1@VAuthority@@PBD1@Z 0041fe80 f   WebApi:Sensor.obj
 0001:0001ef90       ?SensorListFromDb@Sensor@@SAPAV1@VAuthority@@PBD1@Z 0041ff90 f   WebApi:Sensor.obj
 0001:0001f0c0       ?resetFaults@Sensor@@SAPAV1@VAuthority@@PBD@Z 004200c0 f   WebApi:Sensor.obj
 0001:0001f2a0       ?Copy@Sensor@@IAEXPAVSensorRecord@@@Z 004202a0 f   WebApi:Sensor.obj
 0001:0001f5a0       ?updateFromHtml@Sensor@@SAPAV1@VAuthority@@PBD@Z 004205a0 f   WebApi:Sensor.obj
 0001:0001f720       ?fromHtml@Sensor@@IAEXVAuthority@@PBD_N@Z 00420720 f   WebApi:Sensor.obj
 0001:00020870       ?CheckDuplicate@Sensor@@IAE_NHPBU_PROPERTY@@H@Z 00421870 f   WebApi:Sensor.obj
 0001:00020ad0       ?findSensor@@YA_NVAuthority@@PBD1AAPAVJsonObject@@@Z 00421ad0 f   WebApi:Sensor.obj
 0001:00020b20       ?updateSensor@@YA_NVAuthority@@PBDAAPAVJsonObject@@@Z 00421b20 f   WebApi:Sensor.obj
 0001:00020b70       ?resetSensorFaults@@YA_NVAuthority@@PBDAAPAVJsonObject@@@Z 00421b70 f   WebApi:Sensor.obj
 0001:00020bc0       ??0JsonValueString@@QAE@PBD0HH@Z 00421bc0 f   WebApi:JsonString.obj
 0001:00020c40       ??_GJsonValueString@@UAEPAXI@Z 00421c40 f i WebApi:JsonString.obj
 0001:00020c40       ??_EJsonValueString@@UAEPAXI@Z 00421c40 f i * CIL library *:* CIL module *
 0001:00020c80       ?create@JsonValueString@@UBEPAVJsonValue@@XZ 00421c80 f   WebApi:JsonString.obj
 0001:00020d20       ??1JsonValueString@@UAE@XZ 00421d20 f   WebApi:JsonString.obj
 0001:00020d50       ?release@JsonValueString@@IAEXXZ 00421d50 f   WebApi:JsonString.obj
 0001:00020d70       ?get@JsonValueString@@UBE_NAAPBD@Z 00421d70 f   WebApi:JsonString.obj
 0001:00020e00       ?exportJson@JsonValueString@@UBE_NAAPADAAH@Z 00421e00 f   WebApi:JsonString.obj
 0001:00020e60       ?importJson@JsonValueString@@UAE_NPBD@Z 00421e60 f   WebApi:JsonString.obj
 0001:00020f00       ?set@JsonValueString@@UAE_NPBD@Z 00421f00 f   WebApi:JsonString.obj
 0001:00021000       ?areCharsValid@JsonValueString@@IBE_NPBD@Z 00422000 f   WebApi:JsonString.obj
 0001:000211e0       ??8_NAMED_ENUM@@QBE_NABF@Z 004221e0 f   WebApi:JsonField.obj
 0001:00021200       ??8_NAMED_ENUM@@QBE_NABQBD@Z 00422200 f   WebApi:JsonField.obj
 0001:00021230       ??0JsonValueInt@@QAE@PBD0HH@Z 00422230 f   WebApi:JsonInt.obj
 0001:000212b0       ??_EJsonValueInt@@UAEPAXI@Z 004222b0 f i * CIL library *:* CIL module *
 0001:000212b0       ??_GJsonValueInt@@UAEPAXI@Z 004222b0 f i WebApi:JsonInt.obj
 0001:000212e0       ?create@JsonValueInt@@UBEPAVJsonValue@@XZ 004222e0 f   WebApi:JsonInt.obj
 0001:00021370       ?__autoclassinit2@JsonValueInt@@QAEXI@Z 00422370 f i WebApi:JsonInt.obj
 0001:00021380       ??1JsonValueInt@@UAE@XZ    00422380 f   WebApi:JsonInt.obj
 0001:00021390       ?get@JsonValueInt@@UBE_NAAH@Z 00422390 f   WebApi:JsonInt.obj
 0001:000213b0       ?importJson@JsonValueInt@@UAE_NPBD@Z 004223b0 f   WebApi:JsonInt.obj
 0001:00021410       ?exportJson@JsonValueInt@@UBE_NAAPADAAH@Z 00422410 f   WebApi:JsonInt.obj
 0001:00021440       ?set@JsonValueInt@@UAE_NH@Z 00422440 f   WebApi:JsonInt.obj
 0001:00021450       ?set@JsonValueInt@@UAE_NPBD@Z 00422450 f   WebApi:JsonInt.obj
 0001:00021500       ?areDigitsValid@JsonValueInt@@IBE_NPBD@Z 00422500 f   WebApi:JsonInt.obj
 0001:00021540       ?getKey@KeyValue@@QAEPBDXZ 00422540 f i WebApi:ConfigFile.obj
 0001:00021550       ?getValue@KeyValue@@QAEPBDXZ 00422550 f i WebApi:ConfigFile.obj
 0001:00021560       ?length@ConfigFile@@IAEHXZ 00422560 f i WebApi:ConfigFile.obj
 0001:00021570       ??0KeyValue@@QAE@PBD0@Z    00422570 f   WebApi:ConfigFile.obj
 0001:000215f0       ??1KeyValue@@QAE@XZ        004225f0 f   WebApi:ConfigFile.obj
 0001:00021630       ??0ConfigFile@@QAE@XZ      00422630 f   WebApi:ConfigFile.obj
 0001:00021650       ??1ConfigFile@@QAE@XZ      00422650 f   WebApi:ConfigFile.obj
 0001:00021680       ?empty@ConfigFile@@IAEXXZ  00422680 f   WebApi:ConfigFile.obj
 0001:000216f0       ??_GKeyValue@@QAEPAXI@Z    004226f0 f i WebApi:ConfigFile.obj
 0001:00021730       ?load@ConfigFile@@QAE_NPBD@Z 00422730 f   WebApi:ConfigFile.obj
 0001:00021a00       ?insert@ConfigFile@@IAE_NPBD0@Z 00422a00 f   WebApi:ConfigFile.obj
 0001:00021ab0       ?item@ConfigFile@@IAE_NHAAPBD0@Z 00422ab0 f   WebApi:ConfigFile.obj
 0001:00021af0       ?findKey@ConfigFile@@QAE_NQBDAAPBD0@Z 00422af0 f   WebApi:ConfigFile.obj
 0001:00021b80       ?savePathname@ConfigFile@@IAEXPBD@Z 00422b80 f   WebApi:ConfigFile.obj
 0001:00021bf0       ?editKey@ConfigFile@@QAE_NQBDPBD@Z 00422bf0 f   WebApi:ConfigFile.obj
 0001:00021d10       ?save@ConfigFile@@QAE_NPBD@Z 00422d10 f   WebApi:ConfigFile.obj
 0001:00021e40       ?findJfEntry@@YAPAU_NAMED_ENUM@@PBD@Z 00422e40 f   WebApi:LumiGrowJson.obj
 0001:00021ea0       ?findJfEntry@@YAPAU_NAMED_ENUM@@F@Z 00422ea0 f   WebApi:LumiGrowJson.obj
 0001:00021ec0       ?findExact@@YAPBDPBD0@Z    00422ec0 f   WebApi:LumiGrowJson.obj
 0001:00021f10       ?findChar@@YA_NPBDD@Z      00422f10 f   WebApi:LumiGrowJson.obj
 0001:00021f90       ?asciiToJson@@YA_NPBDAAPAD@Z 00422f90 f   WebApi:LumiGrowJson.obj
 0001:00022140       ?jsonToAscii@@YA_NPBDAAPAD@Z 00423140 f   WebApi:LumiGrowJson.obj
 0001:00022260       ??0JsonValueArray@@QAE@W4JsonDataType@@PBD1@Z 00423260 f   WebApi:JsonValueArray.obj
 0001:000222a0       ??_EJsonValueArray@@UAEPAXI@Z 004232a0 f i * CIL library *:* CIL module *
 0001:000222a0       ??_GJsonValueArray@@UAEPAXI@Z 004232a0 f i WebApi:JsonValueArray.obj
 0001:00022320       ?create@JsonValueArray@@UBEPAVJsonValue@@XZ 00423320 f   WebApi:JsonValueArray.obj
 0001:000223d0       ?__autoclassinit2@JsonValueArray@@QAEXI@Z 004233d0 f i WebApi:JsonValueArray.obj
 0001:000223f0       ??1JsonValueArray@@UAE@XZ  004233f0 f   WebApi:JsonValueArray.obj
 0001:00022460       ?release@JsonValueArray@@IAEXXZ 00423460 f   WebApi:JsonValueArray.obj
 0001:00022480       ?insert@JsonValueArray@@QAE_NH@Z 00423480 f   WebApi:JsonValueArray.obj
 0001:000225e0       ?insert@JsonValueArray@@QAE_N_N@Z 004235e0 f   WebApi:JsonValueArray.obj
 0001:00022690       ?__autoclassinit2@JsonValueBool@@QAEXI@Z 00423690 f i WebApi:JsonValueArray.obj
 0001:000226a0       ?insert@JsonValueArray@@QAE_NPBD@Z 004236a0 f   WebApi:JsonValueArray.obj
 0001:00022860       ?__autoclassinit2@JsonRequestParams@@QAEXI@Z 00423860 f i WebApi:JsonValueArray.obj
 0001:00022880       ?insert@JsonValueArray@@QAE_NPAVJsonObject@@@Z 00423880 f   WebApi:JsonValueArray.obj
 0001:000228d0       ?remove@JsonValueArray@@QAE_NH_N@Z 004238d0 f   WebApi:JsonValueArray.obj
 0001:000228e0       ?removeIndex@JsonValueArray@@QAE_NH@Z 004238e0 f   WebApi:JsonValueArray.obj
 0001:000228f0       ?remove@JsonValueArray@@QAE_NPBD_N@Z 004238f0 f   WebApi:JsonValueArray.obj
 0001:00022900       ?exportJson@JsonValueArray@@UBE_NAAPADAAH@Z 00423900 f   WebApi:JsonValueArray.obj
 0001:000229e0       ?importJson@JsonValueArray@@UAE_NPBD@Z 004239e0 f   WebApi:JsonValueArray.obj
 0001:00022b70       ?set@JsonValueArray@@UAE_NPBVJsonObject@@@Z 00423b70 f   WebApi:JsonValueArray.obj
 0001:00022bc0       ?contains@JsonValueArray@@QBE_NH@Z 00423bc0 f   WebApi:JsonValueArray.obj
 0001:00022c70       ?contains@JsonValueArray@@QBE_N_N@Z 00423c70 f   WebApi:JsonValueArray.obj
 0001:00022d00       ?contains@JsonValueArray@@QBE_NPBD@Z 00423d00 f   WebApi:JsonValueArray.obj
 0001:00022db0       ?contains@JsonValueArray@@QBE_NPAVJsonObject@@@Z 00423db0 f   WebApi:JsonValueArray.obj
 0001:00022de0       ?link@JsonValueArray@@UAEPAVJsonValue@@PAV2@@Z 00423de0 f   WebApi:JsonValueArray.obj
 0001:00022f70       ?getAt@JsonValueArray@@QBEPAVJsonValue@@H@Z 00423f70 f   WebApi:JsonValueArray.obj
 0001:00022fa0       ??0JsonValueObjectError@@QAE@PBD@Z 00423fa0 f   WebApi:JsonObjectError.obj
 0001:00022fd0       ??_EJsonValueObjectError@@UAEPAXI@Z 00423fd0 f i * CIL library *:* CIL module *
 0001:00022fd0       ??_GJsonValueObjectError@@UAEPAXI@Z 00423fd0 f i WebApi:JsonObjectError.obj
 0001:00023000       ?create@JsonValueObjectError@@UBEPAVJsonValue@@XZ 00424000 f   WebApi:JsonObjectError.obj
 0001:00023050       ?__autoclassinit2@JsonValueObjectError@@QAEXI@Z 00424050 f i WebApi:JsonObjectError.obj
 0001:00023060       ??1JsonValueObjectError@@UAE@XZ 00424060 f   WebApi:JsonObjectError.obj
 0001:00023070       ??0JsonValueObjectCause@@QAE@PBD@Z 00424070 f   WebApi:JsonObjectCause.obj
 0001:000230e0       ??_EJsonValueObjectCause@@UAEPAXI@Z 004240e0 f i * CIL library *:* CIL module *
 0001:000230e0       ??_GJsonValueObjectCause@@UAEPAXI@Z 004240e0 f i WebApi:JsonObjectCause.obj
 0001:00023110       ?create@JsonValueObjectCause@@UBEPAVJsonValue@@XZ 00424110 f   WebApi:JsonObjectCause.obj
 0001:000231b0       ?__autoclassinit2@JsonValueObjectCause@@QAEXI@Z 004241b0 f i WebApi:JsonObjectCause.obj
 0001:000231c0       ??1JsonValueObjectCause@@UAE@XZ 004241c0 f   WebApi:JsonObjectCause.obj
 0001:000231d0       ??0JsonValueBool@@QAE@PBD@Z 004241d0 f   WebApi:JsonBool.obj
 0001:00023230       ??_GJsonValueBool@@UAEPAXI@Z 00424230 f i WebApi:JsonBool.obj
 0001:00023230       ??_EJsonValueBool@@UAEPAXI@Z 00424230 f i * CIL library *:* CIL module *
 0001:00023260       ?create@JsonValueBool@@UBEPAVJsonValue@@XZ 00424260 f   WebApi:JsonBool.obj
 0001:000232e0       ??1JsonValueBool@@UAE@XZ   004242e0 f   WebApi:JsonBool.obj
 0001:000232f0       ?get@JsonValueBool@@UBE_NAA_N@Z 004242f0 f   WebApi:JsonBool.obj
 0001:00023310       ?importJson@JsonValueBool@@UAE_NPBD@Z 00424310 f   WebApi:JsonBool.obj
 0001:00023370       ?exportJson@JsonValueBool@@UBE_NAAPADAAH@Z 00424370 f   WebApi:JsonBool.obj
 0001:000233b0       ?set@JsonValueBool@@UAE_N_N@Z 004243b0 f   WebApi:JsonBool.obj
 0001:00023430       ?set@JsonValueBool@@UAE_NPBD@Z 00424430 f   WebApi:JsonBool.obj
 0001:000234c0       ??0JsonResponseItem@@QAE@PBD@Z 004244c0 f   WebApi:JsonResponseItem.obj
 0001:00023510       ??_EJsonResponseItem@@UAEPAXI@Z 00424510 f i * CIL library *:* CIL module *
 0001:00023510       ??_GJsonResponseItem@@UAEPAXI@Z 00424510 f i WebApi:JsonResponseItem.obj
 0001:00023580       ?create@JsonResponseItem@@UBEPAVJsonValue@@XZ 00424580 f   WebApi:JsonResponseItem.obj
 0001:00023640       ?__autoclassinit2@JsonResponseItem@@QAEXI@Z 00424640 f i WebApi:JsonResponseItem.obj
 0001:00023660       ??1JsonResponseItem@@UAE@XZ 00424660 f   WebApi:JsonResponseItem.obj
 0001:000236c0       ?release@JsonResponseItem@@IAEXXZ 004246c0 f   WebApi:JsonResponseItem.obj
 0001:00023740       ?insert@JsonResponseItem@@QAE_NU_NAMED_ENUM@@PBVJsonObject@@@Z 00424740 f   WebApi:JsonResponseItem.obj
 0001:00023850       ?insert@JsonResponseItem@@IAE_NAAU_JSON_FIELD@@@Z 00424850 f   WebApi:JsonResponseItem.obj
 0001:000238f0       ?importJson@JsonResponseItem@@UAE_NPBD@Z 004248f0 f   WebApi:JsonResponseItem.obj
 0001:00023d50       ??0ParseError@@QAE@XZ      00424d50 f   WebApi:ParseError.obj
 0001:00023d70       ??1ParseError@@QAE@XZ      00424d70 f   WebApi:ParseError.obj
 0001:00023db0       ?release@ParseError@@IAEXXZ 00424db0 f   WebApi:ParseError.obj
 0001:00023df0       ?setErrorField@ParseError@@QAEXPBD@Z 00424df0 f   WebApi:ParseError.obj
 0001:00023e60       ?setErrorValue@ParseError@@QAEXPBD@Z 00424e60 f   WebApi:ParseError.obj
 0001:00023ed0       ?setErrorValue@ParseError@@QAEXH@Z 00424ed0 f   WebApi:ParseError.obj
 0001:00023f60       ?setCommunicationError@ParseError@@QAEXXZ 00424f60 f   WebApi:ParseError.obj
 0001:00023fe0       ?setMissingControllerError@ParseError@@QAEXXZ 00424fe0 f   WebApi:ParseError.obj
 0001:00024060       ?setUpdateFailedError@ParseError@@QAEXXZ 00425060 f   WebApi:ParseError.obj
 0001:000240e0       ?setDatabaseFailedError@ParseError@@QAEXXZ 004250e0 f   WebApi:ParseError.obj
 0001:00024110       ?setUnknownError@ParseError@@QAEXXZ 00425110 f   WebApi:ParseError.obj
 0001:00024190       ?setNotFoundError@ParseError@@QAEXXZ 00425190 f   WebApi:ParseError.obj
 0001:000241d0       ?setResourcesError@ParseError@@QAEXXZ 004251d0 f   WebApi:ParseError.obj
 0001:00024250       ?setSuccess@ParseError@@QAEXXZ 00425250 f   WebApi:ParseError.obj
 0001:00024290       ?getErrorFieldId@ParseError@@QAEHXZ 00425290 f   WebApi:ParseError.obj
 0001:000243d0       ?fromHtml@@YA_NPBDPAU_PROPERTY@@HAAVParseError@@_N@Z 004253d0 f   WebApi:Html.obj
 0001:00024550       ?buildQuery@@YA_NPADHQAU_PROPERTY@@H@Z 00425550 f   WebApi:Html.obj
 0001:00024690       ?propertyFound@@YA_NPAU_PROPERTY@@HW4JsonField@@@Z 00425690 f   WebApi:Html.obj
 0001:000246d0       ?propertyFound@@YA_NPAU_PROPERTY@@HQBD@Z 004256d0 f   WebApi:Html.obj
 0001:00024730       ?strchr@@YAPADPADH@Z       00425730 f i WebApi:Html.obj
 0001:00024760       ?getAlertType@@YAPBDH@Z    00425760 f   WebApi:AlertRecord.obj
 0001:00024780       ?lock@AlertRecord@@KAXXZ   00425780 f   WebApi:AlertRecord.obj
 0001:000247b0       ?unlock@AlertRecord@@KAXXZ 004257b0 f   WebApi:AlertRecord.obj
 0001:000247c0       ??0AlertRecord@@IAE@XZ     004257c0 f   WebApi:AlertRecord.obj
 0001:00024840       ??_GAlertRecord@@UAEPAXI@Z 00425840 f i WebApi:AlertRecord.obj
 0001:00024840       ??_EAlertRecord@@UAEPAXI@Z 00425840 f i * CIL library *:* CIL module *
 0001:00024880       ??0AlertRecord@@IAE@H@Z    00425880 f   WebApi:AlertRecord.obj
 0001:00024940       ??1AlertRecord@@UAE@XZ     00425940 f   WebApi:AlertRecord.obj
 0001:00024960       ?init@AlertRecord@@IAEXXZ  00425960 f   WebApi:AlertRecord.obj
 0001:000249a0       ?query@AlertRecord@@SAPAVRecord@@PBDAAVParseError@@@Z 004259a0 f   WebApi:AlertRecord.obj
 0001:00024a40       ?insert@AlertRecord@@SAPAVRecord@@PBDAAVParseError@@@Z 00425a40 f   WebApi:AlertRecord.obj
 0001:00024b30       ?update@AlertRecord@@SAPAVRecord@@PBDAAVParseError@@@Z 00425b30 f   WebApi:AlertRecord.obj
 0001:00024bd0       ?deleteRec@AlertRecord@@SAPAVRecord@@PBDAAVParseError@@@Z 00425bd0 f   WebApi:AlertRecord.obj
 0001:00024c90       ?fromRecNo@AlertRecord@@MBEPAVRecord@@H@Z 00425c90 f   WebApi:AlertRecord.obj
 0001:00024d20       ?getRecCount@AlertRecord@@MBEHXZ 00425d20 f   WebApi:AlertRecord.obj
 0001:00024d40       ?get@AlertRecord@@UAEPAXPBD@Z 00425d40 f   WebApi:AlertRecord.obj
 0001:00024d70       ?get@AlertRecord@@MBEPAXHAAW4ColumnType@Record@@@Z 00425d70 f   WebApi:AlertRecord.obj
 0001:00024e50       ?set@AlertRecord@@UAE_NPBDPAX@Z 00425e50 f   WebApi:AlertRecord.obj
 0001:00024e70       ?columnNo@AlertRecord@@MBEHPBD@Z 00425e70 f   WebApi:AlertRecord.obj
 0001:00024ed0       ?columnName@AlertRecord@@MBEPBDH@Z 00425ed0 f   WebApi:AlertRecord.obj
 0001:00024f10       ?columnType@AlertRecord@@MBE?AW4ColumnType@Record@@H@Z 00425f10 f   WebApi:AlertRecord.obj
 0001:00024f50       ?set@AlertRecord@@MAE_NHPAX@Z 00425f50 f   WebApi:AlertRecord.obj
 0001:00025020       ?closeTable@AlertRecord@@KAXXZ 00426020 f   WebApi:AlertRecord.obj
 0001:000250a0       ?doOpenTable@AlertRecord@@MAEXXZ 004260a0 f   WebApi:AlertRecord.obj
 0001:000250b0       ?openTable@AlertRecord@@KAXI_N0@Z 004260b0 f   WebApi:AlertRecord.obj
 0001:00025310       ?release@AlertRecord@@SAXXZ 00426310 f   WebApi:AlertRecord.obj
 0001:00025360       ?upgradeTable@AlertRecord@@KAXXZ 00426360 f   WebApi:AlertRecord.obj
 0001:00025610       ?save@AlertRecord@@UAE_NXZ 00426610 f   WebApi:AlertRecord.obj
 0001:000256a0       ?isDeleted@AlertRecord@@MBE_NXZ 004266a0 f   WebApi:AlertRecord.obj
 0001:000256b0       ?isDeleted@AlertRecord@@MBE_NH@Z 004266b0 f   WebApi:AlertRecord.obj
 0001:000256e0       ??0Performance@@QAE@XZ     004266e0 f   WebApi:Performance.obj
 0001:00025710       ??1Performance@@QAE@XZ     00426710 f   WebApi:Performance.obj
 0001:00025720       ?getElapsed@Performance@@QAE_KXZ 00426720 f   WebApi:Performance.obj
 0001:00025790       ?getElapsedmS@Performance@@QAE_KXZ 00426790 f   WebApi:Performance.obj
 0001:000257d0       ?getElapsed100nS@Performance@@QAE_KXZ 004267d0 f   WebApi:Performance.obj
 0001:00025800       ?start@Performance@@QAEXXZ 00426800 f   WebApi:Performance.obj
 0001:00025820       ?stop@Performance@@QAEXXZ  00426820 f   WebApi:Performance.obj
 0001:00025830       ?started@Performance@@IAE_NXZ 00426830 f   WebApi:Performance.obj
 0001:00025840       ??0Thread@@QAE@P6GKPAX@Z0@Z 00426840 f   WebApi:Thread.obj
 0001:00025870       ??1Thread@@QAE@XZ          00426870 f   WebApi:Thread.obj
 0001:000258c0       ?start@Thread@@QAE_NPAX@Z  004268c0 f   WebApi:Thread.obj
 0001:00025900       ?startIndirect@Thread@@QAE_NPAX@Z 00426900 f   WebApi:Thread.obj
 0001:00025940       ?cancel@Thread@@QAE_NPAPAX@Z 00426940 f   WebApi:Thread.obj
 0001:00025990       ?wait@Thread@@QAEXU_WAITTIME@@@Z 00426990 f   WebApi:Thread.obj
 0001:000259f0       ?nanosleep@@YAXPBKPAK@Z    004269f0 f   WebApi:Thread.obj
 0001:00025a40       ?pthread_setcancelstate@@YAHHPAH@Z 00426a40 f   WebApi:Thread.obj
 0001:00025a50       ?pthread_cond_reltimedwait_np@@YAHPAH0PBUtimespec@@@Z 00426a50 f   WebApi:Thread.obj
 0001:00025ab0       ?havePort@SerialController@@IAE_NXZ 00426ab0 f i WebApi:SerialController.obj
 0001:00025ac0       ??0SerialController@@IAE@PBD@Z 00426ac0 f   WebApi:SerialController.obj
 0001:00025bc0       ??_GSerialController@@UAEPAXI@Z 00426bc0 f i WebApi:SerialController.obj
 0001:00025bc0       ??_ESerialController@@UAEPAXI@Z 00426bc0 f i * CIL library *:* CIL module *
 0001:00025c30       ??1SerialController@@UAE@XZ 00426c30 f   WebApi:SerialController.obj
 0001:00025c80       ?attach@SerialController@@MAE_NXZ 00426c80 f   WebApi:SerialController.obj
 0001:00025db0       ?close@SerialController@@IAEXXZ 00426db0 f   WebApi:SerialController.obj
 0001:00025de0       ?logAndDump@@YAXPBDPAEI@Z  00426de0 f   WebApi:SerialController.obj
 0001:00025e40       ?logErrorAndDump@@YAXPBDPAEI@Z 00426e40 f   WebApi:SerialController.obj
 0001:00025ec0       ?recv@SerialController@@MAEIPADI@Z 00426ec0 f   WebApi:SerialController.obj
 0001:00026120       ?send@SerialController@@MAEHPADI@Z 00427120 f   WebApi:SerialController.obj
 0001:00026200       ?flush@SerialController@@MAEXXZ 00427200 f   WebApi:SerialController.obj
 0001:00026310       ?cancelIo@SerialController@@MAEXXZ 00427310 f   WebApi:SerialController.obj
 0001:00026350       ?haveSocket@IpController@@IAE_NXZ 00427350 f i WebApi:IpController.obj
 0001:00026360       ??0IpController@@IAE@PBD@Z 00427360 f   WebApi:IpController.obj
 0001:000263f0       ??_EIpController@@UAEPAXI@Z 004273f0 f i * CIL library *:* CIL module *
 0001:000263f0       ??_GIpController@@UAEPAXI@Z 004273f0 f i WebApi:IpController.obj
 0001:00026470       ??1IpController@@UAE@XZ    00427470 f   WebApi:IpController.obj
 0001:000264d0       ?attach@IpController@@MAE_NXZ 004274d0 f   WebApi:IpController.obj
 0001:000265e0       ?close@IpController@@IAEXXZ 004275e0 f   WebApi:IpController.obj
 0001:00026610       ?recv@IpController@@MAEIPADI@Z 00427610 f   WebApi:IpController.obj
 0001:000266a0       ?send@IpController@@MAEHPADI@Z 004276a0 f   WebApi:IpController.obj
 0001:00026780       ?flush@IpController@@MAEXXZ 00427780 f   WebApi:IpController.obj
 0001:000267c0       ?cancelIo@IpController@@MAEXXZ 004277c0 f   WebApi:IpController.obj
 0001:000267e0       ??0JsonResponse@@QAE@PBD@Z 004277e0 f   WebApi:JsonResponse.obj
 0001:00026990       ??_EJsonResponse@@UAEPAXI@Z 00427990 f i * CIL library *:* CIL module *
 0001:00026990       ??_GJsonResponse@@UAEPAXI@Z 00427990 f i WebApi:JsonResponse.obj
 0001:000269c0       ?create@JsonResponse@@UBEPAVJsonValue@@XZ 004279c0 f   WebApi:JsonResponse.obj
 0001:00026a50       ?__autoclassinit2@JsonResponse@@QAEXI@Z 00427a50 f i WebApi:JsonResponse.obj
 0001:00026a70       ??1JsonResponse@@UAE@XZ    00427a70 f   WebApi:JsonResponse.obj
 0001:00026b50       ?importJson@JsonResponse@@UAE_NPBD@Z 00427b50 f   WebApi:JsonResponse.obj
 0001:00026c60       ?getItems@JsonResponse@@QBEPBDXZ 00427c60 f   WebApi:JsonResponse.obj
 0001:00026c80       ?setItems@JsonResponse@@QAE_NU_NAMED_ENUM@@PAVJsonObject@@@Z 00427c80 f   WebApi:JsonResponse.obj
 0001:00026cb0       ??0JsonRequest@@QAE@PBD@Z  00427cb0 f   WebApi:JsonRequest.obj
 0001:00026ff0       ??_EJsonRequest@@UAEPAXI@Z 00427ff0 f i * CIL library *:* CIL module *
 0001:00026ff0       ??_GJsonRequest@@UAEPAXI@Z 00427ff0 f i WebApi:JsonRequest.obj
 0001:00027020       ?create@JsonRequest@@UBEPAVJsonValue@@XZ 00428020 f   WebApi:JsonRequest.obj
 0001:000270b0       ?__autoclassinit2@JsonRequest@@QAEXI@Z 004280b0 f i WebApi:JsonRequest.obj
 0001:000270d0       ??1JsonRequest@@UAE@XZ     004280d0 f   WebApi:JsonRequest.obj
 0001:00027240       ?createAttach@JsonRequest@@SAPAV1@PBD@Z 00428240 f   WebApi:JsonRequest.obj
 0001:00027320       ?createDelete@JsonRequest@@SAPAV1@PBD00@Z 00428320 f   WebApi:JsonRequest.obj
 0001:000273b0       ?createGet@JsonRequest@@SAPAV1@PBD00HPAVJsonRequestFields@@@Z 004283b0 f   WebApi:JsonRequest.obj
 0001:00027450       ??4JsonRequestFields@@QAEAAV0@ABV0@@Z 00428450 f i WebApi:JsonRequest.obj
 0001:000274b0       ??4JsonValueArray@@QAEAAV0@ABV0@@Z 004284b0 f i WebApi:JsonRequest.obj
 0001:00027510       ?createInsert@JsonRequest@@SAPAV1@PBD0PAVJsonRequestParams@@PAVJsonRequestFields@@@Z 00428510 f   WebApi:JsonRequest.obj
 0001:000275f0       ?createSet@JsonRequest@@SAPAV1@PBD00PAVJsonRequestParams@@PAVJsonRequestFields@@@Z 004285f0 f   WebApi:JsonRequest.obj
 0001:00027700       ?setFields@JsonRequest@@QAE_NPBD@Z 00428700 f   WebApi:JsonRequest.obj
 0001:00027720       ?setParams@JsonRequest@@QAE_NPBD@Z 00428720 f   WebApi:JsonRequest.obj
 0001:00027740       ?importJson@JsonRequest@@UAE_NPBD@Z 00428740 f   WebApi:JsonRequest.obj
 0001:000278b0       ??0JsonImporter@@IAE@PBD@Z 004288b0 f   WebApi:JsonImporter.obj
 0001:000279a0       ??_EJsonImporter@@UAEPAXI@Z 004289a0 f i * CIL library *:* CIL module *
 0001:000279a0       ??_GJsonImporter@@UAEPAXI@Z 004289a0 f i WebApi:JsonImporter.obj
 0001:000279d0       ?create@JsonImporter@@UBEPAVJsonValue@@XZ 004289d0 f   WebApi:JsonImporter.obj
 0001:00027a60       ?__autoclassinit2@JsonImporter@@QAEXI@Z 00428a60 f i WebApi:JsonImporter.obj
 0001:00027a80       ??1JsonImporter@@UAE@XZ    00428a80 f   WebApi:JsonImporter.obj
 0001:00027b20       ?importItems@JsonImporter@@SAPAVJsonObject@@PBD@Z 00428b20 f   WebApi:JsonImporter.obj
 0001:00027bc0       ?doImportItems@JsonImporter@@IAEPAVJsonObject@@PBD@Z 00428bc0 f   WebApi:JsonImporter.obj
 0001:00027e20       ??0JsonRequestParams@@QAE@PBD@Z 00428e20 f   WebApi:JsonRequestParams.obj
 0001:00027e60       ??_GJsonRequestParams@@UAEPAXI@Z 00428e60 f i WebApi:JsonRequestParams.obj
 0001:00027e60       ??_EJsonRequestParams@@UAEPAXI@Z 00428e60 f i * CIL library *:* CIL module *
 0001:00027ed0       ?create@JsonRequestParams@@UBEPAVJsonValue@@XZ 00428ed0 f   WebApi:JsonRequestParams.obj
 0001:00027f80       ??1JsonRequestParams@@UAE@XZ 00428f80 f   WebApi:JsonRequestParams.obj
 0001:00027fe0       ?release@JsonRequestParams@@IAEXXZ 00428fe0 f   WebApi:JsonRequestParams.obj
 0001:00028070       ?insert@JsonRequestParams@@QAE_NU_NAMED_ENUM@@PBD@Z 00429070 f   WebApi:JsonRequestParams.obj
 0001:000281b0       ?insert@JsonRequestParams@@QAE_NU_NAMED_ENUM@@H@Z 004291b0 f   WebApi:JsonRequestParams.obj
 0001:00028280       ?insert@JsonRequestParams@@QAE_NU_NAMED_ENUM@@_N@Z 00429280 f   WebApi:JsonRequestParams.obj
 0001:00028340       ?insert@JsonRequestParams@@QAE_NU_NAMED_ENUM@@PBVJsonObject@@@Z 00429340 f   WebApi:JsonRequestParams.obj
 0001:00028390       ?insert@JsonRequestParams@@IAE_NAAU_JSON_FIELD@@@Z 00429390 f   WebApi:JsonRequestParams.obj
 0001:00028430       ?importJson@JsonRequestParams@@UAE_NPBD@Z 00429430 f   WebApi:JsonRequestParams.obj
 0001:000289a0       ??0JsonRequestFields@@QAE@PBD@Z 004299a0 f   WebApi:JsonRequestFields.obj
 0001:000289f0       ??_GJsonRequestFields@@UAEPAXI@Z 004299f0 f i WebApi:JsonRequestFields.obj
 0001:000289f0       ??_EJsonRequestFields@@UAEPAXI@Z 004299f0 f i * CIL library *:* CIL module *
 0001:00028a70       ?create@JsonRequestFields@@UAEPAVJsonValue@@XZ 00429a70 f   WebApi:JsonRequestFields.obj
 0001:00028b30       ?__autoclassinit2@JsonRequestFields@@QAEXI@Z 00429b30 f i WebApi:JsonRequestFields.obj
 0001:00028b50       ??1JsonRequestFields@@UAE@XZ 00429b50 f   WebApi:JsonRequestFields.obj
 0001:00028bc0       ?getStrobeId@ProgramRecord@@SAHXZ 00429bc0 f i WebApi:ProgramRecord.obj
 0001:00028bd0       ?lock@ProgramRecord@@KAXXZ 00429bd0 f   WebApi:ProgramRecord.obj
 0001:00028c00       ?unlock@ProgramRecord@@KAXXZ 00429c00 f   WebApi:ProgramRecord.obj
 0001:00028c10       ??0ProgramRecord@@IAE@XZ   00429c10 f   WebApi:ProgramRecord.obj
 0001:00028c90       ??_EProgramRecord@@UAEPAXI@Z 00429c90 f i * CIL library *:* CIL module *
 0001:00028c90       ??_GProgramRecord@@UAEPAXI@Z 00429c90 f i WebApi:ProgramRecord.obj
 0001:00028cd0       ??0ProgramRecord@@IAE@H@Z  00429cd0 f   WebApi:ProgramRecord.obj
 0001:00028d90       ??1ProgramRecord@@UAE@XZ   00429d90 f   WebApi:ProgramRecord.obj
 0001:00028db0       ?init@ProgramRecord@@IAEXXZ 00429db0 f   WebApi:ProgramRecord.obj
 0001:00028df0       ?query@ProgramRecord@@SAPAVRecord@@PBDAAVParseError@@@Z 00429df0 f   WebApi:ProgramRecord.obj
 0001:00028e90       ?update@ProgramRecord@@SAPAVRecord@@PBDAAVParseError@@@Z 00429e90 f   WebApi:ProgramRecord.obj
 0001:00028f50       ?deleteRec@ProgramRecord@@SAPAVRecord@@PBDAAVParseError@@@Z 00429f50 f   WebApi:ProgramRecord.obj
 0001:00029060       ?get@ProgramRecord@@UAEPAXPBD@Z 0042a060 f   WebApi:ProgramRecord.obj
 0001:00029090       ?insert@ProgramRecord@@SAPAVRecord@@PBDAAVParseError@@@Z 0042a090 f   WebApi:ProgramRecord.obj
 0001:00029190       ?fromRecNo@ProgramRecord@@MBEPAVRecord@@H@Z 0042a190 f   WebApi:ProgramRecord.obj
 0001:00029220       ?getRecCount@ProgramRecord@@MBEHXZ 0042a220 f   WebApi:ProgramRecord.obj
 0001:00029240       ?get@ProgramRecord@@MBEPAXHAAW4ColumnType@Record@@@Z 0042a240 f   WebApi:ProgramRecord.obj
 0001:000292e0       ?set@ProgramRecord@@UAE_NPBDPAX@Z 0042a2e0 f   WebApi:ProgramRecord.obj
 0001:00029300       ?columnNo@ProgramRecord@@MBEHPBD@Z 0042a300 f   WebApi:ProgramRecord.obj
 0001:00029360       ?columnName@ProgramRecord@@MBEPBDH@Z 0042a360 f   WebApi:ProgramRecord.obj
 0001:000293a0       ?columnType@ProgramRecord@@MBE?AW4ColumnType@Record@@H@Z 0042a3a0 f   WebApi:ProgramRecord.obj
 0001:000293e0       ?set@ProgramRecord@@MAE_NHPAX@Z 0042a3e0 f   WebApi:ProgramRecord.obj
 0001:00029470       ?closeTable@ProgramRecord@@KAXXZ 0042a470 f   WebApi:ProgramRecord.obj
 0001:000294f0       ?doOpenTable@ProgramRecord@@MAEXXZ 0042a4f0 f   WebApi:ProgramRecord.obj
 0001:00029500       ?openTable@ProgramRecord@@KAXI_N0@Z 0042a500 f   WebApi:ProgramRecord.obj
 0001:00029740       ?release@ProgramRecord@@SAXXZ 0042a740 f   WebApi:ProgramRecord.obj
 0001:00029790       ?upgradeTable@ProgramRecord@@KAXXZ 0042a790 f   WebApi:ProgramRecord.obj
 0001:00029e10       ?save@ProgramRecord@@UAE_NXZ 0042ae10 f   WebApi:ProgramRecord.obj
 0001:00029ea0       ?isDeleted@ProgramRecord@@MBE_NXZ 0042aea0 f   WebApi:ProgramRecord.obj
 0001:00029eb0       ?isDeleted@ProgramRecord@@MBE_NH@Z 0042aeb0 f   WebApi:ProgramRecord.obj
 0001:00029ee0       ?syncWithKemo@ProgramRecord@@SA_NAAHAA_N@Z 0042aee0 f   WebApi:ProgramRecord.obj
 0001:0002a120       ?syncWithKemo@ProgramRecord@@UAE_NXZ 0042b120 f   WebApi:ProgramRecord.obj
 0001:0002a700       ?zeroHandles@ProgramRecord@@KAX_N@Z 0042b700 f   WebApi:ProgramRecord.obj
 0001:0002a750       ?initHandles@ProgramRecord@@SAXXZ 0042b750 f   WebApi:ProgramRecord.obj
 0001:0002a7f0       ?setModified@ProgramRecord@@IAE_NXZ 0042b7f0 f   WebApi:ProgramRecord.obj
 0001:0002a820       ?resetModified@ProgramRecord@@IAE_NXZ 0042b820 f   WebApi:ProgramRecord.obj
 0001:0002a850       ?setModified@ProgramRecord@@SA_NH@Z 0042b850 f   WebApi:ProgramRecord.obj
 0001:0002a980       ?resetModified@ProgramRecord@@SA_NH@Z 0042b980 f   WebApi:ProgramRecord.obj
 0001:0002aab0       ?deleteKemosabePrograms@ProgramRecord@@KAXXZ 0042bab0 f   WebApi:ProgramRecord.obj
 0001:0002acd0       ?hasSync@ZoneRecord@@IAE_NXZ 0042bcd0 f i WebApi:ZoneRecord.obj
 0001:0002ace0       ?lock@ZoneRecord@@KAXXZ    0042bce0 f   WebApi:ZoneRecord.obj
 0001:0002ad10       ?unlock@ZoneRecord@@KAXXZ  0042bd10 f   WebApi:ZoneRecord.obj
 0001:0002ad20       ??0ZoneRecord@@IAE@XZ      0042bd20 f   WebApi:ZoneRecord.obj
 0001:0002ada0       ??_GZoneRecord@@UAEPAXI@Z  0042bda0 f i WebApi:ZoneRecord.obj
 0001:0002ada0       ??_EZoneRecord@@UAEPAXI@Z  0042bda0 f i * CIL library *:* CIL module *
 0001:0002ade0       ??0ZoneRecord@@IAE@H@Z     0042bde0 f   WebApi:ZoneRecord.obj
 0001:0002aea0       ??1ZoneRecord@@UAE@XZ      0042bea0 f   WebApi:ZoneRecord.obj
 0001:0002aec0       ?init@ZoneRecord@@IAEXXZ   0042bec0 f   WebApi:ZoneRecord.obj
 0001:0002af00       ?query@ZoneRecord@@SAPAVRecord@@PBDAAVParseError@@@Z 0042bf00 f   WebApi:ZoneRecord.obj
 0001:0002af90       ?insert@ZoneRecord@@SAPAVRecord@@PBDAAVParseError@@@Z 0042bf90 f   WebApi:ZoneRecord.obj
 0001:0002b070       ?fromRecNo@ZoneRecord@@MBEPAVRecord@@H@Z 0042c070 f   WebApi:ZoneRecord.obj
 0001:0002b100       ?getRecCount@ZoneRecord@@MBEHXZ 0042c100 f   WebApi:ZoneRecord.obj
 0001:0002b120       ?get@ZoneRecord@@UAEPAXPBD@Z 0042c120 f   WebApi:ZoneRecord.obj
 0001:0002b150       ?get@ZoneRecord@@MBEPAXHAAW4ColumnType@Record@@@Z 0042c150 f   WebApi:ZoneRecord.obj
 0001:0002b570       ?set@ZoneRecord@@UAE_NPBDPAX@Z 0042c570 f   WebApi:ZoneRecord.obj
 0001:0002b590       ?columnNo@ZoneRecord@@MBEHPBD@Z 0042c590 f   WebApi:ZoneRecord.obj
 0001:0002b5f0       ?columnName@ZoneRecord@@MBEPBDH@Z 0042c5f0 f   WebApi:ZoneRecord.obj
 0001:0002b630       ?columnType@ZoneRecord@@MBE?AW4ColumnType@Record@@H@Z 0042c630 f   WebApi:ZoneRecord.obj
 0001:0002b670       ?set@ZoneRecord@@MAE_NHPAX@Z 0042c670 f   WebApi:ZoneRecord.obj
 0001:0002bae0       ?closeTable@ZoneRecord@@KAXXZ 0042cae0 f   WebApi:ZoneRecord.obj
 0001:0002bb60       ?doOpenTable@ZoneRecord@@MAEXXZ 0042cb60 f   WebApi:ZoneRecord.obj
 0001:0002bb70       ?openTable@ZoneRecord@@KAXI_N0@Z 0042cb70 f   WebApi:ZoneRecord.obj
 0001:0002bd80       ?update@ZoneRecord@@SAPAVRecord@@PBDAAVParseError@@@Z 0042cd80 f   WebApi:ZoneRecord.obj
 0001:0002be20       ?deleteRec@ZoneRecord@@SAPAVRecord@@PBDAAVParseError@@@Z 0042ce20 f   WebApi:ZoneRecord.obj
 0001:0002bf90       ?release@ZoneRecord@@SAXXZ 0042cf90 f   WebApi:ZoneRecord.obj
 0001:0002bfe0       ?importKemosabe@ZoneRecord@@KAXXZ 0042cfe0 f   WebApi:ZoneRecord.obj
 0001:0002c000       ?save@ZoneRecord@@UAE_NXZ  0042d000 f   WebApi:ZoneRecord.obj
 0001:0002c090       ?upgradeTable@ZoneRecord@@KAXXZ 0042d090 f   WebApi:ZoneRecord.obj
 0001:0002cc30       ?isDeleted@ZoneRecord@@MBE_NXZ 0042dc30 f   WebApi:ZoneRecord.obj
 0001:0002cc40       ?isDeleted@ZoneRecord@@MBE_NH@Z 0042dc40 f   WebApi:ZoneRecord.obj
 0001:0002cc70       ?syncWithKemo@ZoneRecord@@SA_NAAHAA_N@Z 0042dc70 f   WebApi:ZoneRecord.obj
 0001:0002d080       ?syncWithKemo@ZoneRecord@@UAE_NXZ 0042e080 f   WebApi:ZoneRecord.obj
 0001:0002d6f0       ?zeroHandles@ZoneRecord@@KAX_N@Z 0042e6f0 f   WebApi:ZoneRecord.obj
 0001:0002d750       ?initHandles@ZoneRecord@@SAXXZ 0042e750 f   WebApi:ZoneRecord.obj
 0001:0002d800       ?syncOverrideId@ZoneRecord@@IAE_NXZ 0042e800 f   WebApi:ZoneRecord.obj
 0001:0002db40       ?syncScheduledId@ZoneRecord@@IAE_NXZ 0042eb40 f   WebApi:ZoneRecord.obj
 0001:0002de80       ?syncSleepMode@ZoneRecord@@IAE_NXZ 0042ee80 f   WebApi:ZoneRecord.obj
 0001:0002e0e0       ?syncStatus@ZoneRecord@@IAE_NXZ 0042f0e0 f   WebApi:ZoneRecord.obj
 0001:0002e340       ?hasSync@FixtureRecord@@IAE_NXZ 0042f340 f i WebApi:FixtureRecord.obj
 0001:0002e350       ?lock@FixtureRecord@@KAXXZ 0042f350 f   WebApi:FixtureRecord.obj
 0001:0002e380       ?unlock@FixtureRecord@@KAXXZ 0042f380 f   WebApi:FixtureRecord.obj
 0001:0002e390       ??0FixtureRecord@@IAE@XZ   0042f390 f   WebApi:FixtureRecord.obj
 0001:0002e410       ??_EFixtureRecord@@UAEPAXI@Z 0042f410 f i * CIL library *:* CIL module *
 0001:0002e410       ??_GFixtureRecord@@UAEPAXI@Z 0042f410 f i WebApi:FixtureRecord.obj
 0001:0002e450       ??0FixtureRecord@@IAE@H@Z  0042f450 f   WebApi:FixtureRecord.obj
 0001:0002e510       ??1FixtureRecord@@UAE@XZ   0042f510 f   WebApi:FixtureRecord.obj
 0001:0002e540       ?init@FixtureRecord@@IAEXXZ 0042f540 f   WebApi:FixtureRecord.obj
 0001:0002e580       ?query@FixtureRecord@@SAPAVRecord@@PBDAAVParseError@@@Z 0042f580 f   WebApi:FixtureRecord.obj
 0001:0002e610       ?insert@FixtureRecord@@SAPAVRecord@@PBDAAVParseError@@@Z 0042f610 f   WebApi:FixtureRecord.obj
 0001:0002e6f0       ?fromRecNo@FixtureRecord@@MBEPAVRecord@@H@Z 0042f6f0 f   WebApi:FixtureRecord.obj
 0001:0002e780       ?getRecCount@FixtureRecord@@MBEHXZ 0042f780 f   WebApi:FixtureRecord.obj
 0001:0002e7a0       ?get@FixtureRecord@@UAEPAXPBD@Z 0042f7a0 f   WebApi:FixtureRecord.obj
 0001:0002e7d0       ?get@FixtureRecord@@MBEPAXHAAW4ColumnType@Record@@@Z 0042f7d0 f   WebApi:FixtureRecord.obj
 0001:0002ed30       ?set@FixtureRecord@@UAE_NPBDPAX@Z 0042fd30 f   WebApi:FixtureRecord.obj
 0001:0002ed50       ?columnNo@FixtureRecord@@MBEHPBD@Z 0042fd50 f   WebApi:FixtureRecord.obj
 0001:0002edb0       ?columnName@FixtureRecord@@MBEPBDH@Z 0042fdb0 f   WebApi:FixtureRecord.obj
 0001:0002edf0       ?columnType@FixtureRecord@@MBE?AW4ColumnType@Record@@H@Z 0042fdf0 f   WebApi:FixtureRecord.obj
 0001:0002ee30       ?set@FixtureRecord@@MAE_NHPAX@Z 0042fe30 f   WebApi:FixtureRecord.obj
 0001:0002f3b0       ?closeTable@FixtureRecord@@KAXXZ 004303b0 f   WebApi:FixtureRecord.obj
 0001:0002f430       ?doOpenTable@FixtureRecord@@MAEXXZ 00430430 f   WebApi:FixtureRecord.obj
 0001:0002f440       ?openTable@FixtureRecord@@KAXI_N0@Z 00430440 f   WebApi:FixtureRecord.obj
 0001:0002f660       ?update@FixtureRecord@@SAPAVRecord@@PBDAAVParseError@@@Z 00430660 f   WebApi:FixtureRecord.obj
 0001:0002f700       ?deleteRec@FixtureRecord@@SAPAVRecord@@PBDAAVParseError@@@Z 00430700 f   WebApi:FixtureRecord.obj
 0001:0002f870       ?release@FixtureRecord@@SAXXZ 00430870 f   WebApi:FixtureRecord.obj
 0001:0002f8c0       ?importKemosabe@FixtureRecord@@KAXXZ 004308c0 f   WebApi:FixtureRecord.obj
 0001:0002f8d0       ?upgradeTable@FixtureRecord@@KAXXZ 004308d0 f   WebApi:FixtureRecord.obj
 0001:000308a0       ?save@FixtureRecord@@UAE_NXZ 004318a0 f   WebApi:FixtureRecord.obj
 0001:00030930       ?isDeleted@FixtureRecord@@MBE_NXZ 00431930 f   WebApi:FixtureRecord.obj
 0001:00030940       ?isDeleted@FixtureRecord@@MBE_NH@Z 00431940 f   WebApi:FixtureRecord.obj
 0001:00030970       ?syncWithKemo@FixtureRecord@@SA_NAAHAA_N@Z 00431970 f   WebApi:FixtureRecord.obj
 0001:00031020       ?syncWithKemo@FixtureRecord@@UAE_NXZ 00432020 f   WebApi:FixtureRecord.obj
 0001:00031820       ?zeroHandles@FixtureRecord@@KAX_N@Z 00432820 f   WebApi:FixtureRecord.obj
 0001:00031880       ?initHandles@FixtureRecord@@SAXXZ 00432880 f   WebApi:FixtureRecord.obj
 0001:00031930       ?syncOverrideId@FixtureRecord@@IAE_NXZ 00432930 f   WebApi:FixtureRecord.obj
 0001:00031c70       ?syncScheduledId@FixtureRecord@@IAE_NXZ 00432c70 f   WebApi:FixtureRecord.obj
 0001:00031fc0       ?syncStatus@FixtureRecord@@IAE_NXZ 00432fc0 f   WebApi:FixtureRecord.obj
 0001:00032220       ?syncZoneId@FixtureRecord@@IAE_NXZ 00433220 f   WebApi:FixtureRecord.obj
 0001:00032530       ?syncSn@FixtureRecord@@IAE_NXZ 00433530 f   WebApi:FixtureRecord.obj
 0001:00032750       ?syncFaults@FixtureRecord@@IAE_NHHH@Z 00433750 f   WebApi:FixtureRecord.obj
 0001:00032a20       ?syncSleepMode@FixtureRecord@@IAE_NXZ 00433a20 f   WebApi:FixtureRecord.obj
 0001:00032c40       ?hasSync@SensorRecord@@IAE_NXZ 00433c40 f i WebApi:SensorRecord.obj
 0001:00032c50       ?lock@SensorRecord@@KAXXZ  00433c50 f   WebApi:SensorRecord.obj
 0001:00032c80       ?unlock@SensorRecord@@KAXXZ 00433c80 f   WebApi:SensorRecord.obj
 0001:00032c90       ??0SensorRecord@@IAE@XZ    00433c90 f   WebApi:SensorRecord.obj
 0001:00032d10       ??_GSensorRecord@@UAEPAXI@Z 00433d10 f i WebApi:SensorRecord.obj
 0001:00032d10       ??_ESensorRecord@@UAEPAXI@Z 00433d10 f i * CIL library *:* CIL module *
 0001:00032d50       ??0SensorRecord@@IAE@H@Z   00433d50 f   WebApi:SensorRecord.obj
 0001:00032e10       ??1SensorRecord@@UAE@XZ    00433e10 f   WebApi:SensorRecord.obj
 0001:00032e40       ?init@SensorRecord@@IAEXXZ 00433e40 f   WebApi:SensorRecord.obj
 0001:00032e80       ?query@SensorRecord@@SAPAVRecord@@PBDAAVParseError@@@Z 00433e80 f   WebApi:SensorRecord.obj
 0001:00032f10       ?insert@SensorRecord@@SAPAVRecord@@PBDAAVParseError@@@Z 00433f10 f   WebApi:SensorRecord.obj
 0001:00032ff0       ?fromRecNo@SensorRecord@@MBEPAVRecord@@H@Z 00433ff0 f   WebApi:SensorRecord.obj
 0001:00033080       ?getRecCount@SensorRecord@@MBEHXZ 00434080 f   WebApi:SensorRecord.obj
 0001:000330a0       ?get@SensorRecord@@UAEPAXPBD@Z 004340a0 f   WebApi:SensorRecord.obj
 0001:000330d0       ?get@SensorRecord@@MBEPAXHAAW4ColumnType@Record@@@Z 004340d0 f   WebApi:SensorRecord.obj
 0001:000334c0       ?set@SensorRecord@@UAE_NPBDPAX@Z 004344c0 f   WebApi:SensorRecord.obj
 0001:000334e0       ?columnNo@SensorRecord@@MBEHPBD@Z 004344e0 f   WebApi:SensorRecord.obj
 0001:00033540       ?columnName@SensorRecord@@MBEPBDH@Z 00434540 f   WebApi:SensorRecord.obj
 0001:00033580       ?columnType@SensorRecord@@MBE?AW4ColumnType@Record@@H@Z 00434580 f   WebApi:SensorRecord.obj
 0001:000335c0       ?set@SensorRecord@@MAE_NHPAX@Z 004345c0 f   WebApi:SensorRecord.obj
 0001:00033970       ?closeTable@SensorRecord@@KAXXZ 00434970 f   WebApi:SensorRecord.obj
 0001:000339f0       ?doOpenTable@SensorRecord@@MAEXXZ 004349f0 f   WebApi:SensorRecord.obj
 0001:00033a00       ?openTable@SensorRecord@@KAXI_N0@Z 00434a00 f   WebApi:SensorRecord.obj
 0001:00033c10       ?update@SensorRecord@@SAPAVRecord@@PBDAAVParseError@@@Z 00434c10 f   WebApi:SensorRecord.obj
 0001:00033cb0       ?deleteRec@SensorRecord@@SAPAVRecord@@PBDAAVParseError@@@Z 00434cb0 f   WebApi:SensorRecord.obj
 0001:00033e20       ?release@SensorRecord@@SAXXZ 00434e20 f   WebApi:SensorRecord.obj
 0001:00033e70       ?importKemosabe@SensorRecord@@KAXXZ 00434e70 f   WebApi:SensorRecord.obj
 0001:00033e80       ?upgradeTable@SensorRecord@@KAXXZ 00434e80 f   WebApi:SensorRecord.obj
 0001:00034190       ?save@SensorRecord@@UAE_NXZ 00435190 f   WebApi:SensorRecord.obj
 0001:00034220       ?isDeleted@SensorRecord@@MBE_NXZ 00435220 f   WebApi:SensorRecord.obj
 0001:00034230       ?isDeleted@SensorRecord@@MBE_NH@Z 00435230 f   WebApi:SensorRecord.obj
 0001:00034260       ?syncWithKemo@SensorRecord@@SA_NAAHAA_N@Z 00435260 f   WebApi:SensorRecord.obj
 0001:00034910       ?syncWithKemo@SensorRecord@@UAE_NXZ 00435910 f   WebApi:SensorRecord.obj
 0001:00035040       ?zeroHandles@SensorRecord@@KAX_N@Z 00436040 f   WebApi:SensorRecord.obj
 0001:00035090       ?initHandles@SensorRecord@@SAXXZ 00436090 f   WebApi:SensorRecord.obj
 0001:00035130       ?syncStatus@SensorRecord@@IAE_NXZ 00436130 f   WebApi:SensorRecord.obj
 0001:00035390       ?syncSn@SensorRecord@@IAE_NXZ 00436390 f   WebApi:SensorRecord.obj
 0001:000355b0       ?syncFaults@SensorRecord@@IAE_NHHH@Z 004365b0 f   WebApi:SensorRecord.obj
 0001:00035870       ?lock@UserRecord@@KAXXZ    00436870 f   WebApi:UserRecord.obj
 0001:000358a0       ?unlock@UserRecord@@KAXXZ  004368a0 f   WebApi:UserRecord.obj
 0001:000358b0       ??0UserRecord@@IAE@XZ      004368b0 f   WebApi:UserRecord.obj
 0001:00035930       ??_GUserRecord@@UAEPAXI@Z  00436930 f i WebApi:UserRecord.obj
 0001:00035930       ??_EUserRecord@@UAEPAXI@Z  00436930 f i * CIL library *:* CIL module *
 0001:00035970       ??0UserRecord@@IAE@H@Z     00436970 f   WebApi:UserRecord.obj
 0001:00035a40       ??1UserRecord@@UAE@XZ      00436a40 f   WebApi:UserRecord.obj
 0001:00035a60       ?init@UserRecord@@IAEXXZ   00436a60 f   WebApi:UserRecord.obj
 0001:00035aa0       ?query@UserRecord@@SAPAVRecord@@PBDAAVParseError@@@Z 00436aa0 f   WebApi:UserRecord.obj
 0001:00035b30       ?insert@UserRecord@@SAPAVRecord@@PBDAAVParseError@@@Z 00436b30 f   WebApi:UserRecord.obj
 0001:00035c10       ?update@UserRecord@@SAPAVRecord@@PBDAAVParseError@@@Z 00436c10 f   WebApi:UserRecord.obj
 0001:00035cb0       ?deleteRec@UserRecord@@SAPAVRecord@@PBDAAVParseError@@@Z 00436cb0 f   WebApi:UserRecord.obj
 0001:00035d70       ?fromRecNo@UserRecord@@MBEPAVRecord@@H@Z 00436d70 f   WebApi:UserRecord.obj
 0001:00035e00       ?getRecCount@UserRecord@@MBEHXZ 00436e00 f   WebApi:UserRecord.obj
 0001:00035e20       ?get@UserRecord@@UAEPAXPBD@Z 00436e20 f   WebApi:UserRecord.obj
 0001:00035e50       ?get@UserRecord@@MBEPAXHAAW4ColumnType@Record@@@Z 00436e50 f   WebApi:UserRecord.obj
 0001:00035f30       ?set@UserRecord@@UAE_NPBDPAX@Z 00436f30 f   WebApi:UserRecord.obj
 0001:00035f50       ?columnNo@UserRecord@@MBEHPBD@Z 00436f50 f   WebApi:UserRecord.obj
 0001:00035fb0       ?columnName@UserRecord@@MBEPBDH@Z 00436fb0 f   WebApi:UserRecord.obj
 0001:00035ff0       ?columnType@UserRecord@@MBE?AW4ColumnType@Record@@H@Z 00436ff0 f   WebApi:UserRecord.obj
 0001:00036030       ?set@UserRecord@@MAE_NHPAX@Z 00437030 f   WebApi:UserRecord.obj
 0001:00036120       ?closeTable@UserRecord@@KAXXZ 00437120 f   WebApi:UserRecord.obj
 0001:000361a0       ?doOpenTable@UserRecord@@MAEXXZ 004371a0 f   WebApi:UserRecord.obj
 0001:000361b0       ?openTable@UserRecord@@KAXI_N0@Z 004371b0 f   WebApi:UserRecord.obj
 0001:000363c0       ?release@UserRecord@@SAXXZ 004373c0 f   WebApi:UserRecord.obj
 0001:00036410       ?save@UserRecord@@UAE_NXZ  00437410 f   WebApi:UserRecord.obj
 0001:000364a0       ?upgradeTable@UserRecord@@KAXXZ 004374a0 f   WebApi:UserRecord.obj
 0001:00036780       ?isDeleted@UserRecord@@MBE_NXZ 00437780 f   WebApi:UserRecord.obj
 0001:00036790       ?isDeleted@UserRecord@@MBE_NH@Z 00437790 f   WebApi:UserRecord.obj
 0001:000367c0       ??0JsonPosition@@QAE@PBD@Z 004377c0 f   WebApi:JsonPosition.obj
 0001:00036900       ??_GJsonPosition@@UAEPAXI@Z 00437900 f i WebApi:JsonPosition.obj
 0001:00036900       ??_EJsonPosition@@UAEPAXI@Z 00437900 f i * CIL library *:* CIL module *
 0001:00036990       ?create@JsonPosition@@UBEPAVJsonValue@@XZ 00437990 f   WebApi:JsonPosition.obj
 0001:00036a20       ?__autoclassinit2@JsonPosition@@QAEXI@Z 00437a20 f i WebApi:JsonPosition.obj
 0001:00036a40       ??1JsonPosition@@UAE@XZ    00437a40 f   WebApi:JsonPosition.obj
 0001:00036ac0       ?get@JsonPosition@@UBE_NAAH0@Z 00437ac0 f   WebApi:JsonPosition.obj
 0001:00036b30       ?set@JsonPosition@@UAE_NHH@Z 00437b30 f   WebApi:JsonPosition.obj
 0001:00036bb0       ?lock@ProgramStepRecord@@CAXXZ 00437bb0 f   WebApi:ProgramStepRecord.obj
 0001:00036be0       ?unlock@ProgramStepRecord@@CAXXZ 00437be0 f   WebApi:ProgramStepRecord.obj
 0001:00036bf0       ??0ProgramStepRecord@@IAE@XZ 00437bf0 f   WebApi:ProgramStepRecord.obj
 0001:00036c70       ??_GProgramStepRecord@@UAEPAXI@Z 00437c70 f i WebApi:ProgramStepRecord.obj
 0001:00036c70       ??_EProgramStepRecord@@UAEPAXI@Z 00437c70 f i * CIL library *:* CIL module *
 0001:00036cb0       ??0ProgramStepRecord@@IAE@H@Z 00437cb0 f   WebApi:ProgramStepRecord.obj
 0001:00036d80       ??1ProgramStepRecord@@UAE@XZ 00437d80 f   WebApi:ProgramStepRecord.obj
 0001:00036da0       ?init@ProgramStepRecord@@IAEXXZ 00437da0 f   WebApi:ProgramStepRecord.obj
 0001:00036de0       ?query@ProgramStepRecord@@SAPAVRecord@@PBDAAVParseError@@@Z 00437de0 f   WebApi:ProgramStepRecord.obj
 0001:00036e70       ?get@ProgramStepRecord@@UAEPAXPBD@Z 00437e70 f   WebApi:ProgramStepRecord.obj
 0001:00036ea0       ?insert@ProgramStepRecord@@SAPAVRecord@@PBDAAVParseError@@@Z 00437ea0 f   WebApi:ProgramStepRecord.obj
 0001:00036f90       ?update@ProgramStepRecord@@SAPAVRecord@@PBDAAVParseError@@@Z 00437f90 f   WebApi:ProgramStepRecord.obj
 0001:00037030       ?deleteRec@ProgramStepRecord@@SAPAVRecord@@PBDAAVParseError@@@Z 00438030 f   WebApi:ProgramStepRecord.obj
 0001:000370d0       ?fromRecNo@ProgramStepRecord@@MBEPAVRecord@@H@Z 004380d0 f   WebApi:ProgramStepRecord.obj
 0001:00037160       ?getRecCount@ProgramStepRecord@@MBEHXZ 00438160 f   WebApi:ProgramStepRecord.obj
 0001:00037180       ?get@ProgramStepRecord@@MBEPAXHAAW4ColumnType@Record@@@Z 00438180 f   WebApi:ProgramStepRecord.obj
 0001:000372b0       ?set@ProgramStepRecord@@UAE_NPBDPAX@Z 004382b0 f   WebApi:ProgramStepRecord.obj
 0001:000372d0       ?columnNo@ProgramStepRecord@@MBEHPBD@Z 004382d0 f   WebApi:ProgramStepRecord.obj
 0001:00037330       ?columnName@ProgramStepRecord@@MBEPBDH@Z 00438330 f   WebApi:ProgramStepRecord.obj
 0001:00037370       ?columnType@ProgramStepRecord@@MBE?AW4ColumnType@Record@@H@Z 00438370 f   WebApi:ProgramStepRecord.obj
 0001:000373b0       ?set@ProgramStepRecord@@MAE_NHPAX@Z 004383b0 f   WebApi:ProgramStepRecord.obj
 0001:000374b0       ?closeTable@ProgramStepRecord@@KAXXZ 004384b0 f   WebApi:ProgramStepRecord.obj
 0001:00037530       ?doOpenTable@ProgramStepRecord@@MAEXXZ 00438530 f   WebApi:ProgramStepRecord.obj
 0001:00037540       ?openTable@ProgramStepRecord@@KAXI_N0@Z 00438540 f   WebApi:ProgramStepRecord.obj
 0001:000377b0       ?release@ProgramStepRecord@@SAXXZ 004387b0 f   WebApi:ProgramStepRecord.obj
 0001:00037800       ?upgradeTable@ProgramStepRecord@@KAXXZ 00438800 f   WebApi:ProgramStepRecord.obj
 0001:00037c90       ?save@ProgramStepRecord@@UAE_NXZ 00438c90 f   WebApi:ProgramStepRecord.obj
 0001:00037d30       ?isDeleted@ProgramStepRecord@@MBE_NXZ 00438d30 f   WebApi:ProgramStepRecord.obj
 0001:00037d40       ?isDeleted@ProgramStepRecord@@MBE_NH@Z 00438d40 f   WebApi:ProgramStepRecord.obj
 0001:00037d70       ?zeroHandles@ProgramStepRecord@@KAXXZ 00438d70 f   WebApi:ProgramStepRecord.obj
 0001:00037da0       ??0JsonValueNetworkMode@@QAE@PBD@Z 00438da0 f   WebApi:JsonNetworkMode.obj
 0001:00037dd0       ??_GJsonValueNetworkMode@@UAEPAXI@Z 00438dd0 f i WebApi:JsonNetworkMode.obj
 0001:00037dd0       ??_EJsonValueNetworkMode@@UAEPAXI@Z 00438dd0 f i * CIL library *:* CIL module *
 0001:00037e00       ?create@JsonValueNetworkMode@@UBEPAVJsonValue@@XZ 00438e00 f   WebApi:JsonNetworkMode.obj
 0001:00037e50       ?__autoclassinit2@JsonValueNetworkMode@@QAEXI@Z 00438e50 f i WebApi:JsonNetworkMode.obj
 0001:00037e60       ??1JsonValueNetworkMode@@UAE@XZ 00438e60 f   WebApi:JsonNetworkMode.obj
 0001:00037e70       ?str2ip@@YA_NQBDAAI@Z      00438e70 f   WebApi:Ethernet.obj
 0001:00037ef0       ?ip2str@@YAPBDI@Z          00438ef0 f   WebApi:Ethernet.obj
 0001:00037f30       ??0Ethernet@@IAE@XZ        00438f30 f   WebApi:Ethernet.obj
 0001:00037f50       ??1Ethernet@@IAE@XZ        00438f50 f   WebApi:Ethernet.obj
 0001:00037f60       ?GetSettings@Ethernet@@SAXXZ 00438f60 f   WebApi:Ethernet.obj
 0001:00037f80       ?SaveSettings@Ethernet@@SAXXZ 00438f80 f   WebApi:Ethernet.obj
 0001:00037f90       ?parse@Ethernet@@KA_NW4ParseType@1@PBD@Z 00438f90 f   WebApi:Ethernet.obj
 0001:00037fa0       ?setGateway@Ethernet@@SA_NI@Z 00438fa0 f   WebApi:Ethernet.obj
 0001:00037fb0       ?setHostname@Ethernet@@SA_NPBD@Z 00438fb0 f   WebApi:Ethernet.obj
 0001:00037ff0       ?setIp@Ethernet@@SA_NI@Z   00438ff0 f   WebApi:Ethernet.obj
 0001:00038000       ?setMask@Ethernet@@SA_NI@Z 00439000 f   WebApi:Ethernet.obj
 0001:00038010       ?setMode@Ethernet@@SA_NW4EthernetMode@1@@Z 00439010 f   WebApi:Ethernet.obj
 0001:00038030       ?setNameservers@Ethernet@@SA_NIII@Z 00439030 f   WebApi:Ethernet.obj
 0001:00038050       ?Dump@Ethernet@@SAXXZ      00439050 f   WebApi:Ethernet.obj
 0001:00038240       ?getNetworkSettings@Ethernet@@KA_NXZ 00439240 f   WebApi:Ethernet.obj
 0001:00038460       ?getHostname@Ethernet@@KA_NXZ 00439460 f   WebApi:Ethernet.obj
 0001:00038480       ?updateHostname@Ethernet@@KA_NXZ 00439480 f   WebApi:Ethernet.obj
 0001:00038490       ?updateNetworkSettings@Ethernet@@KA_NXZ 00439490 f   WebApi:Ethernet.obj
 0001:000384a0       ?wcsstr@@YAPA_WPA_WPB_W@Z  004394a0 f i WebApi:Ethernet.obj
 0001:000384b0       ??0JsonWebster@@QAE@PBD@Z  004394b0 f   WebApi:JsonWebster.obj
 0001:00038850       ??_EJsonWebster@@UAEPAXI@Z 00439850 f i * CIL library *:* CIL module *
 0001:00038850       ??_GJsonWebster@@UAEPAXI@Z 00439850 f i WebApi:JsonWebster.obj
 0001:00038880       ?create@JsonWebster@@UBEPAVJsonValue@@XZ 00439880 f   WebApi:JsonWebster.obj
 0001:00038910       ?__autoclassinit2@JsonWebster@@QAEXI@Z 00439910 f i WebApi:JsonWebster.obj
 0001:00038930       ??1JsonWebster@@UAE@XZ     00439930 f   WebApi:JsonWebster.obj
 0001:00038a40       ??0JsonValueControllerReset@@QAE@PBD@Z 00439a40 f   WebApi:JsonControllerReset.obj
 0001:00038ab0       ??_GJsonValueControllerReset@@UAEPAXI@Z 00439ab0 f i WebApi:JsonControllerReset.obj
 0001:00038ab0       ??_EJsonValueControllerReset@@UAEPAXI@Z 00439ab0 f i * CIL library *:* CIL module *
 0001:00038ae0       ?create@JsonValueControllerReset@@UBEPAVJsonValue@@XZ 00439ae0 f   WebApi:JsonControllerReset.obj
 0001:00038b80       ?__autoclassinit2@JsonValueControllerReset@@QAEXI@Z 00439b80 f i WebApi:JsonControllerReset.obj
 0001:00038b90       ??1JsonValueControllerReset@@UAE@XZ 00439b90 f   WebApi:JsonControllerReset.obj
 0001:00038ba0       ??0JsonColor@@QAE@PBDHHHHHH@Z 00439ba0 f   WebApi:JsonColor.obj
 0001:00038f20       ??_GJsonColor@@UAEPAXI@Z   00439f20 f i WebApi:JsonColor.obj
 0001:00038f20       ??_EJsonColor@@UAEPAXI@Z   00439f20 f i * CIL library *:* CIL module *
 0001:00038f50       ?create@JsonColor@@UBEPAVJsonValue@@XZ 00439f50 f   WebApi:JsonColor.obj
 0001:00038fe0       ?__autoclassinit2@JsonColor@@QAEXI@Z 00439fe0 f i WebApi:JsonColor.obj
 0001:00039000       ??1JsonColor@@UAE@XZ       0043a000 f   WebApi:JsonColor.obj
 0001:000390d0       ?get@JsonColor@@QBE_NAAH00000@Z 0043a0d0 f   WebApi:JsonColor.obj
 0001:00039160       ?set@JsonColor@@QAE_NHHHHHH@Z 0043a160 f   WebApi:JsonColor.obj
 0001:00039200       ??0JsonValueControllerMode@@QAE@PBD@Z 0043a200 f   WebApi:JsonControllerMode.obj
 0001:00039270       ??_GJsonValueControllerMode@@UAEPAXI@Z 0043a270 f i WebApi:JsonControllerMode.obj
 0001:00039270       ??_EJsonValueControllerMode@@UAEPAXI@Z 0043a270 f i * CIL library *:* CIL module *
 0001:000392a0       ?create@JsonValueControllerMode@@UBEPAVJsonValue@@XZ 0043a2a0 f   WebApi:JsonControllerMode.obj
 0001:00039340       ?__autoclassinit2@JsonValueControllerMode@@QAEXI@Z 0043a340 f i WebApi:JsonControllerMode.obj
 0001:00039350       ??1JsonValueControllerMode@@UAE@XZ 0043a350 f   WebApi:JsonControllerMode.obj
 0001:00039360       ??0JsonValueFaultStatus@@QAE@PBD@Z 0043a360 f   WebApi:JsonFaultStatus.obj
 0001:000393d0       ??_GJsonValueFaultStatus@@UAEPAXI@Z 0043a3d0 f i WebApi:JsonFaultStatus.obj
 0001:000393d0       ??_EJsonValueFaultStatus@@UAEPAXI@Z 0043a3d0 f i * CIL library *:* CIL module *
 0001:00039400       ?create@JsonValueFaultStatus@@UBEPAVJsonValue@@XZ 0043a400 f   WebApi:JsonFaultStatus.obj
 0001:000394a0       ?__autoclassinit2@JsonValueFaultStatus@@QAEXI@Z 0043a4a0 f i WebApi:JsonFaultStatus.obj
 0001:000394b0       ??1JsonValueFaultStatus@@UAE@XZ 0043a4b0 f   WebApi:JsonFaultStatus.obj
 0001:000394c0       ?lock@MapRecord@@KAXXZ     0043a4c0 f   WebApi:MapRecord.obj
 0001:000394f0       ?unlock@MapRecord@@KAXXZ   0043a4f0 f   WebApi:MapRecord.obj
 0001:00039500       ??0MapRecord@@IAE@XZ       0043a500 f   WebApi:MapRecord.obj
 0001:00039580       ??_GMapRecord@@UAEPAXI@Z   0043a580 f i WebApi:MapRecord.obj
 0001:00039580       ??_EMapRecord@@UAEPAXI@Z   0043a580 f i * CIL library *:* CIL module *
 0001:000395c0       ??0MapRecord@@IAE@H@Z      0043a5c0 f   WebApi:MapRecord.obj
 0001:00039680       ??1MapRecord@@UAE@XZ       0043a680 f   WebApi:MapRecord.obj
 0001:000396a0       ?init@MapRecord@@IAEXXZ    0043a6a0 f   WebApi:MapRecord.obj
 0001:000396e0       ?query@MapRecord@@SAPAVRecord@@PBDAAVParseError@@@Z 0043a6e0 f   WebApi:MapRecord.obj
 0001:00039770       ?insert@MapRecord@@SAPAVRecord@@PBDAAVParseError@@@Z 0043a770 f   WebApi:MapRecord.obj
 0001:00039850       ?fromRecNo@MapRecord@@MBEPAVRecord@@H@Z 0043a850 f   WebApi:MapRecord.obj
 0001:000398e0       ?getRecCount@MapRecord@@MBEHXZ 0043a8e0 f   WebApi:MapRecord.obj
 0001:00039900       ?get@MapRecord@@UAEPAXPBD@Z 0043a900 f   WebApi:MapRecord.obj
 0001:00039930       ?get@MapRecord@@MBEPAXHAAW4ColumnType@Record@@@Z 0043a930 f   WebApi:MapRecord.obj
 0001:00039a40       ?set@MapRecord@@UAE_NPBDPAX@Z 0043aa40 f   WebApi:MapRecord.obj
 0001:00039a60       ?columnNo@MapRecord@@MBEHPBD@Z 0043aa60 f   WebApi:MapRecord.obj
 0001:00039ac0       ?columnName@MapRecord@@MBEPBDH@Z 0043aac0 f   WebApi:MapRecord.obj
 0001:00039b00       ?columnType@MapRecord@@MBE?AW4ColumnType@Record@@H@Z 0043ab00 f   WebApi:MapRecord.obj
 0001:00039b40       ?set@MapRecord@@MAE_NHPAX@Z 0043ab40 f   WebApi:MapRecord.obj
 0001:00039c70       ?closeTable@MapRecord@@KAXXZ 0043ac70 f   WebApi:MapRecord.obj
 0001:00039cf0       ?doOpenTable@MapRecord@@MAEXXZ 0043acf0 f   WebApi:MapRecord.obj
 0001:00039d00       ?openTable@MapRecord@@KAXI_N0@Z 0043ad00 f   WebApi:MapRecord.obj
 0001:00039eb0       ?update@MapRecord@@SAPAVRecord@@PBDAAVParseError@@@Z 0043aeb0 f   WebApi:MapRecord.obj
 0001:00039f50       ?deleteRec@MapRecord@@SAPAVRecord@@PBDAAVParseError@@@Z 0043af50 f   WebApi:MapRecord.obj
 0001:0003a010       ?release@MapRecord@@SAXXZ  0043b010 f   WebApi:MapRecord.obj
 0001:0003a060       ?save@MapRecord@@UAE_NXZ   0043b060 f   WebApi:MapRecord.obj
 0001:0003a090       ?upgradeTable@MapRecord@@KAXXZ 0043b090 f   WebApi:MapRecord.obj
 0001:0003a0a0       ?isDeleted@MapRecord@@MBE_NXZ 0043b0a0 f   WebApi:MapRecord.obj
 0001:0003a0b0       ?isDeleted@MapRecord@@MBE_NH@Z 0043b0b0 f   WebApi:MapRecord.obj
 0001:0003a0e0       ??0JsonSensor@@QAE@PBD@Z   0043b0e0 f   WebApi:JsonSensor.obj
 0001:0003a9b0       ??_EJsonSensor@@UAEPAXI@Z  0043b9b0 f i * CIL library *:* CIL module *
 0001:0003a9b0       ??_GJsonSensor@@UAEPAXI@Z  0043b9b0 f i WebApi:JsonSensor.obj
 0001:0003a9e0       ?create@JsonSensor@@UBEPAVJsonValue@@XZ 0043b9e0 f   WebApi:JsonSensor.obj
 0001:0003aa70       ?__autoclassinit2@JsonSensor@@QAEXI@Z 0043ba70 f i WebApi:JsonSensor.obj
 0001:0003aa90       ??1JsonSensor@@UAE@XZ      0043ba90 f   WebApi:JsonSensor.obj
 0001:0003ad20       ?skipNonWhiteSpace@@YAPBDPBD@Z 0043bd20 f   WebApi:TextUtils.obj
 0001:0003ad50       ?singleSpace@@YAXPBD@Z     0043bd50 f   WebApi:TextUtils.obj
 0001:0003adb0       ?expand@@YAPADPBD0D@Z      0043bdb0 f   WebApi:TextUtils.obj
 0001:0003af90       ?replace@@YAXPADDD@Z       0043bf90 f   WebApi:TextUtils.obj
 0001:0003b070       ??0Record@@IAE@PBD0@Z      0043c070 f   WebApi:Record.obj
 0001:0003b0c0       ??_ERecord@@UAEPAXI@Z      0043c0c0 f i * CIL library *:* CIL module *
 0001:0003b0c0       ??_GRecord@@UAEPAXI@Z      0043c0c0 f i WebApi:Record.obj
 0001:0003b100       ??1Record@@UAE@XZ          0043c100 f   WebApi:Record.obj
 0001:0003b120       ?count@Record@@QAEHXZ      0043c120 f   WebApi:Record.obj
 0001:0003b140       ?splitQuery@Record@@KAPAU_QUERY_PART@1@PBDAAVParseError@@@Z 0043c140 f   WebApi:Record.obj
 0001:0003b660       ?toBool@@YA_NPBDAA_N@Z     0043c660 f   WebApi:Record.obj
 0001:0003b6d0       ?compare@Record@@IAE_NW4QueryTest@1@HPBD@Z 0043c6d0 f   WebApi:Record.obj
 0001:0003b860       ?columnNo@Record@@KAHPBDQBU_COLUMN_DETAIL@1@H@Z 0043c860 f   WebApi:Record.obj
 0001:0003b8d0       ?columnName@Record@@KAPBDHQBU_COLUMN_DETAIL@1@H@Z 0043c8d0 f   WebApi:Record.obj
 0001:0003b910       ?columnType@Record@@KA?AW4ColumnType@1@HQBU_COLUMN_DETAIL@1@H@Z 0043c910 f   WebApi:Record.obj
 0001:0003b950       ?query@Record@@KAPAV1@PAV1@PBDAAVParseError@@@Z 0043c950 f   WebApi:Record.obj
 0001:0003bba0       ?remove@Record@@IAEPAV1@PAV1@@Z 0043cba0 f   WebApi:Record.obj
 0001:0003bbf0       ?getTable@Record@@KAPAV1@PAV1@@Z 0043cbf0 f   WebApi:Record.obj
 0001:0003bc60       ?join@Record@@IAEXAAPAV1@@Z 0043cc60 f   WebApi:Record.obj
 0001:0003bd60       ?link@Record@@IAEPAV1@PAV1@@Z 0043cd60 f   WebApi:Record.obj
 0001:0003bd90       ?insert@Record@@KA_NPAV1@PBDAAVParseError@@@Z 0043cd90 f   WebApi:Record.obj
 0001:0003bee0       ?closeTable@Record@@KAXAAPAX00@Z 0043cee0 f   WebApi:Record.obj
 0001:0003bf40       ?openTableFullPath@Record@@KAPAXPBDAAPAX11IAAII@Z 0043cf40 f   WebApi:Record.obj
 0001:0003c130       ?openTable@Record@@KAPAXPBDAAPAX11IAAII@Z 0043d130 f   WebApi:Record.obj
 0001:0003c1d0       ?getDatabasePath@Record@@KAPBDXZ 0043d1d0 f   WebApi:Record.obj
 0001:0003c270       ?setDatabasePath@Record@@KAXPBD@Z 0043d270 f   WebApi:Record.obj
 0001:0003c320       ?update@Record@@KAPAV1@PAV1@PBD1AAVParseError@@@Z 0043d320 f   WebApi:Record.obj
 0001:0003c4a0       ?edit@Record@@UAE_NPBDAAVParseError@@@Z 0043d4a0 f   WebApi:Record.obj
 0001:0003c590       ?renameTable@Record@@KA_NAAPAX000PBD@Z 0043d590 f   WebApi:Record.obj
 0001:0003c660       ?getPathName@Record@@KAPBDPAX@Z 0043d660 f   WebApi:Record.obj
 0001:0003c8e0       ?deleteTable@Record@@KAXAAPAX00@Z 0043d8e0 f   WebApi:Record.obj
 0001:0003c960       ?addNext@Record@@QAE_NPAV1@@Z 0043d960 f   WebApi:Record.obj
 0001:0003c990       ?syncWithKemo@Record@@UAE_NXZ 0043d990 f   WebApi:Record.obj
 0001:0003c9a0       ?flush@Record@@IAEXQAEH@Z  0043d9a0 f   WebApi:Record.obj
 0001:0003c9d0       ??0JsonValueRequestOp@@QAE@PBD@Z 0043d9d0 f   WebApi:JsonRequestOp.obj
 0001:0003ca40       ??_EJsonValueRequestOp@@UAEPAXI@Z 0043da40 f i * CIL library *:* CIL module *
 0001:0003ca40       ??_GJsonValueRequestOp@@UAEPAXI@Z 0043da40 f i WebApi:JsonRequestOp.obj
 0001:0003ca70       ?create@JsonValueRequestOp@@UBEPAVJsonValue@@XZ 0043da70 f   WebApi:JsonRequestOp.obj
 0001:0003cb10       ?__autoclassinit2@JsonValueRequestOp@@QAEXI@Z 0043db10 f i WebApi:JsonRequestOp.obj
 0001:0003cb20       ??1JsonValueRequestOp@@UAE@XZ 0043db20 f   WebApi:JsonRequestOp.obj
 0001:0003cb30       ??0JsonValueRequestType@@QAE@PBD@Z 0043db30 f   WebApi:JsonRequestType.obj
 0001:0003cba0       ??_GJsonValueRequestType@@UAEPAXI@Z 0043dba0 f i WebApi:JsonRequestType.obj
 0001:0003cba0       ??_EJsonValueRequestType@@UAEPAXI@Z 0043dba0 f i * CIL library *:* CIL module *
 0001:0003cbd0       ?create@JsonValueRequestType@@UBEPAVJsonValue@@XZ 0043dbd0 f   WebApi:JsonRequestType.obj
 0001:0003cc70       ?__autoclassinit2@JsonValueRequestType@@QAEXI@Z 0043dc70 f i WebApi:JsonRequestType.obj
 0001:0003cc80       ??1JsonValueRequestType@@UAE@XZ 0043dc80 f   WebApi:JsonRequestType.obj
 0001:0003cc90       ??0JsonValueRequestItem@@QAE@PBD@Z 0043dc90 f   WebApi:JsonRequestItem.obj
 0001:0003cd00       ??_EJsonValueRequestItem@@UAEPAXI@Z 0043dd00 f i * CIL library *:* CIL module *
 0001:0003cd00       ??_GJsonValueRequestItem@@UAEPAXI@Z 0043dd00 f i WebApi:JsonRequestItem.obj
 0001:0003cd30       ?create@JsonValueRequestItem@@UBEPAVJsonValue@@XZ 0043dd30 f   WebApi:JsonRequestItem.obj
 0001:0003cdd0       ?__autoclassinit2@JsonValueRequestItem@@QAEXI@Z 0043ddd0 f i WebApi:JsonRequestItem.obj
 0001:0003cde0       ??1JsonValueRequestItem@@UAE@XZ 0043dde0 f   WebApi:JsonRequestItem.obj
 0001:0003cdf0       ??0JsonProgram@@QAE@PBD@Z  0043ddf0 f   WebApi:JsonProgram.obj
 0001:0003d0a0       ??_EJsonProgram@@UAEPAXI@Z 0043e0a0 f i * CIL library *:* CIL module *
 0001:0003d0a0       ??_GJsonProgram@@UAEPAXI@Z 0043e0a0 f i WebApi:JsonProgram.obj
 0001:0003d0d0       ?create@JsonProgram@@UBEPAVJsonValue@@XZ 0043e0d0 f   WebApi:JsonProgram.obj
 0001:0003d160       ?__autoclassinit2@JsonProgram@@QAEXI@Z 0043e160 f i WebApi:JsonProgram.obj
 0001:0003d180       ??1JsonProgram@@UAE@XZ     0043e180 f   WebApi:JsonProgram.obj
 0001:0003d280       ??0JsonController@@QAE@PBD@Z 0043e280 f   WebApi:JsonController.obj
 0001:0003d980       ??_EJsonController@@UAEPAXI@Z 0043e980 f i * CIL library *:* CIL module *
 0001:0003d980       ??_GJsonController@@UAEPAXI@Z 0043e980 f i WebApi:JsonController.obj
 0001:0003d9b0       ?create@JsonController@@UBEPAVJsonValue@@XZ 0043e9b0 f   WebApi:JsonController.obj
 0001:0003da40       ?__autoclassinit2@JsonController@@QAEXI@Z 0043ea40 f i WebApi:JsonController.obj
 0001:0003da60       ??1JsonController@@UAE@XZ  0043ea60 f   WebApi:JsonController.obj
 0001:0003dc50       ??0JsonFixture@@QAE@PBD@Z  0043ec50 f   WebApi:JsonFixture.obj
 0001:0003e860       ??_GJsonFixture@@UAEPAXI@Z 0043f860 f i WebApi:JsonFixture.obj
 0001:0003e860       ??_EJsonFixture@@UAEPAXI@Z 0043f860 f i * CIL library *:* CIL module *
 0001:0003e890       ?create@JsonFixture@@UBEPAVJsonValue@@XZ 0043f890 f   WebApi:JsonFixture.obj
 0001:0003e920       ?__autoclassinit2@JsonFixture@@QAEXI@Z 0043f920 f i WebApi:JsonFixture.obj
 0001:0003e940       ??1JsonFixture@@UAE@XZ     0043f940 f   WebApi:JsonFixture.obj
 0001:0003ec40       ??0JsonZone@@QAE@PBD@Z     0043fc40 f   WebApi:JsonZone.obj
 0001:0003f2c0       ??_EJsonZone@@UAEPAXI@Z    004402c0 f i * CIL library *:* CIL module *
 0001:0003f2c0       ??_GJsonZone@@UAEPAXI@Z    004402c0 f i WebApi:JsonZone.obj
 0001:0003f2f0       ?create@JsonZone@@UBEPAVJsonValue@@XZ 004402f0 f   WebApi:JsonZone.obj
 0001:0003f380       ?__autoclassinit2@JsonZone@@QAEXI@Z 00440380 f i WebApi:JsonZone.obj
 0001:0003f3a0       ??1JsonZone@@UAE@XZ        004403a0 f   WebApi:JsonZone.obj
 0001:0003f540       ??0kProgramStep@@QAE@PBDHHHHHHW4ProgramStepMode@JsonValueProgramStepMode@@_N@Z 00440540 f   WebApi:kProgramStep.obj
 0001:0003f5f0       ??_GkProgramStep@@UAEPAXI@Z 004405f0 f i WebApi:kProgramStep.obj
 0001:0003f5f0       ??_EkProgramStep@@UAEPAXI@Z 004405f0 f i * CIL library *:* CIL module *
 0001:0003f620       ??1kProgramStep@@UAE@XZ    00440620 f   WebApi:kProgramStep.obj
 0001:0003f630       ?jpsFromProgram@kProgramStep@@SAPAVJsonProgramStep@@H@Z 00440630 f   WebApi:kProgramStep.obj
 0001:0003f8e0       ??0JsonProgramStep@@QAE@PBD@Z 004408e0 f   WebApi:JsonProgramStep.obj
 0001:0003fb20       ??_GJsonProgramStep@@UAEPAXI@Z 00440b20 f i WebApi:JsonProgramStep.obj
 0001:0003fb20       ??_EJsonProgramStep@@UAEPAXI@Z 00440b20 f i * CIL library *:* CIL module *
 0001:0003fb50       ?create@JsonProgramStep@@UBEPAVJsonValue@@XZ 00440b50 f   WebApi:JsonProgramStep.obj
 0001:0003fbe0       ?__autoclassinit2@JsonProgramStep@@QAEXI@Z 00440be0 f i WebApi:JsonProgramStep.obj
 0001:0003fc00       ??1JsonProgramStep@@UAE@XZ 00440c00 f   WebApi:JsonProgramStep.obj
 0001:0003fce0       ??0JsonValueProgramStepMode@@QAE@PBD@Z 00440ce0 f   WebApi:JsonProgramStepMode.obj
 0001:0003fd10       ??_EJsonValueProgramStepMode@@UAEPAXI@Z 00440d10 f i * CIL library *:* CIL module *
 0001:0003fd10       ??_GJsonValueProgramStepMode@@UAEPAXI@Z 00440d10 f i WebApi:JsonProgramStepMode.obj
 0001:0003fd40       ?create@JsonValueProgramStepMode@@UBEPAVJsonValue@@XZ 00440d40 f   WebApi:JsonProgramStepMode.obj
 0001:0003fd90       ?__autoclassinit2@JsonValueProgramStepMode@@QAEXI@Z 00440d90 f i WebApi:JsonProgramStepMode.obj
 0001:0003fda0       ??1JsonValueProgramStepMode@@UAE@XZ 00440da0 f   WebApi:JsonProgramStepMode.obj
 0001:0003fdab       _WinMain@16                00440dab f   goahead.obj
 0001:0003fdfa       _checkWindowsMsgLoop       00440dfa f   goahead.obj
 0001:0003ffc1       _main                      00440fc1 f   goahead.obj
 0001:000404c6       _websParseArgs             004414c6 f   libgo:libgo.dll
 0001:000404cc       _websGetInst               004414cc f   libgo:libgo.dll
 0001:000404d2       _error                     004414d2 f   libgo:libgo.dll
 0001:000404d8       _logSetPath                004414d8 f   libgo:libgo.dll
 0001:000404de       _logmsgProc                004414de f   libgo:libgo.dll
 0001:000404e4       _smatch                    004414e4 f   libgo:libgo.dll
 0001:000404ea       _stok                      004414ea f   libgo:libgo.dll
 0001:000404f0       _websClose                 004414f0 f   libgo:libgo.dll
 0001:000404f6       _websGetDocuments          004414f6 f   libgo:libgo.dll
 0001:000404fc       _websGetServer             004414fc f   libgo:libgo.dll
 0001:00040502       _websListen                00441502 f   libgo:libgo.dll
 0001:00040508       _websOpen                  00441508 f   libgo:libgo.dll
 0001:0004050e       _websServiceEvents         0044150e f   libgo:libgo.dll
 0001:00040514       _websSetBackground         00441514 f   libgo:libgo.dll
 0001:0004051a       _websSetDebug              0044151a f   libgo:libgo.dll
 0001:00040520       _websLoad                  00441520 f   libgo:libgo.dll
 0001:00040526       _inet_addr@4               00441526 f   ws2_32:WS2_32.dll
 0001:0004052c       _WSAStartup@8              0044152c f   ws2_32:WS2_32.dll
 0001:00040532       _WSACleanup@0              00441532 f   ws2_32:WS2_32.dll
 0001:00040538       _socket@12                 00441538 f   ws2_32:WS2_32.dll
 0001:0004053e       _setsockopt@20             0044153e f   ws2_32:WS2_32.dll
 0001:00040544       _WSAHtons@12               00441544 f   ws2_32:WS2_32.dll
 0001:0004054a       _connect@12                0044154a f   ws2_32:WS2_32.dll
 0001:00040550       _shutdown@8                00441550 f   ws2_32:WS2_32.dll
 0001:00040556       _closesocket@4             00441556 f   ws2_32:WS2_32.dll
 0001:0004055c       _recv@16                   0044155c f   ws2_32:WS2_32.dll
 0001:00040562       _send@16                   00441562 f   ws2_32:WS2_32.dll
 0001:00040568       _htonl@4                   00441568 f   ws2_32:WS2_32.dll
 0001:0004056e       _ntohl@4                   0044156e f   ws2_32:WS2_32.dll
 0001:00040574       _gethostname@8             00441574 f   ws2_32:WS2_32.dll
 0001:0004057a       _GetModuleFileNameA@12     0044157a f   kernel32:KERNEL32.dll
 0001:00040580       _UnmapViewOfFile@4         00441580 f   kernel32:KERNEL32.dll
 0001:00040586       _CloseHandle@4             00441586 f   kernel32:KERNEL32.dll
 0001:0004058c       _CreateFileA@28            0044158c f   kernel32:KERNEL32.dll
 0001:00040592       _CreateFileMappingW@24     00441592 f   kernel32:KERNEL32.dll
 0001:00040598       _MapViewOfFile@20          00441598 f   kernel32:KERNEL32.dll
 0001:0004059e       _IsBadReadPtr@8            0044159e f   kernel32:KERNEL32.dll
 0001:000405a4       _VirtualQuery@12           004415a4 f   kernel32:KERNEL32.dll
 0001:000405aa       _SetErrorMode@4            004415aa f   kernel32:KERNEL32.dll
 0001:000405b0       _SetUnhandledExceptionFilter@4 004415b0 f   kernel32:KERNEL32.dll
 0001:000405b6       _InitializeCriticalSection@4 004415b6 f   kernel32:KERNEL32.dll
 0001:000405bc       _Sleep@4                   004415bc f   kernel32:KERNEL32.dll
 0001:000405c2       _EnterCriticalSection@4    004415c2 f   kernel32:KERNEL32.dll
 0001:000405c8       _LeaveCriticalSection@4    004415c8 f   kernel32:KERNEL32.dll
 0001:000405ce       _CreateEventW@16           004415ce f   kernel32:KERNEL32.dll
 0001:000405d4       _WaitForSingleObject@8     004415d4 f   kernel32:KERNEL32.dll
 0001:000405da       _FileTimeToSystemTime@8    004415da f   kernel32:KERNEL32.dll
 0001:000405e0       _SetLocalTime@4            004415e0 f   kernel32:KERNEL32.dll
 0001:000405e6       _GetCurrentProcess@0       004415e6 f   kernel32:KERNEL32.dll
 0001:000405ec       _GetLastError@0            004415ec f   kernel32:KERNEL32.dll
 0001:000405f2       _CreateThread@24           004415f2 f   kernel32:KERNEL32.dll
 0001:000405f8       _ReadFile@20               004415f8 f   kernel32:KERNEL32.dll
 0001:000405fe       _WriteFile@20              004415fe f   kernel32:KERNEL32.dll
 0001:00040604       _DeleteCriticalSection@4   00441604 f   kernel32:KERNEL32.dll
 0001:0004060a       _QueryPerformanceFrequency@4 0044160a f   kernel32:KERNEL32.dll
 0001:00040610       _QueryPerformanceCounter@4 00441610 f   kernel32:KERNEL32.dll
 0001:00040616       _TerminateThread@8         00441616 f   kernel32:KERNEL32.dll
 0001:0004061c       _OutputDebugStringW@4      0044161c f   kernel32:KERNEL32.dll
 0001:00040622       _OutputDebugStringA@4      00441622 f   kernel32:KERNEL32.dll
 0001:00040628       _SetCommMask@8             00441628 f   kernel32:KERNEL32.dll
 0001:0004062e       _PurgeComm@8               0044162e f   kernel32:KERNEL32.dll
 0001:00040634       _GetCommState@8            00441634 f   kernel32:KERNEL32.dll
 0001:0004063a       _SetCommState@8            0044163a f   kernel32:KERNEL32.dll
 0001:00040640       _SetCommTimeouts@8         00441640 f   kernel32:KERNEL32.dll
 0001:00040646       _CancelIo@4                00441646 f   kernel32:KERNEL32.dll
 0001:0004064c       _FlushViewOfFile@8         0044164c f   kernel32:KERNEL32.dll
 0001:00040652       _FlushFileBuffers@4        00441652 f   kernel32:KERNEL32.dll
 0001:00040658       _GetFileSizeEx@8           00441658 f   kernel32:KERNEL32.dll
 0001:0004065e       _SetFileInformationByHandle@16 0044165e f   kernel32:KERNEL32.dll
 0001:00040664       _CreateDirectoryA@8        00441664 f   kernel32:KERNEL32.dll
 0001:0004066a       _GetFileInformationByHandleEx@16 0044166a f   kernel32:KERNEL32.dll
 0001:00040670       _GetLogicalDriveStringsA@8 00441670 f   kernel32:KERNEL32.dll
 0001:00040676       _QueryDosDeviceA@12        00441676 f   kernel32:KERNEL32.dll
 0001:0004067c       _DeleteFileA@4             0044167c f   kernel32:KERNEL32.dll
 0001:00040682       _GetMessageA@16            00441682 f   user32:USER32.dll
 0001:00040688       _TranslateMessage@4        00441688 f   user32:USER32.dll
 0001:0004068e       _DispatchMessageA@4        0044168e f   user32:USER32.dll
 0001:00040694       _PeekMessageA@20           00441694 f   user32:USER32.dll
 0001:0004069a       _DefWindowProcA@16         0044169a f   user32:USER32.dll
 0001:000406a0       _PostQuitMessage@4         004416a0 f   user32:USER32.dll
 0001:000406a6       _RegisterClassA@4          004416a6 f   user32:USER32.dll
 0001:000406ac       _UnregisterClassA@8        004416ac f   user32:USER32.dll
 0001:000406b2       _CreateWindowExA@48        004416b2 f   user32:USER32.dll
 0001:000406b8       _ShowWindow@8              004416b8 f   user32:USER32.dll
 0001:000406be       _GetSystemMenu@8           004416be f   user32:USER32.dll
 0001:000406c4       _AppendMenuA@16            004416c4 f   user32:USER32.dll
 0001:000406ca       _UpdateWindow@4            004416ca f   user32:USER32.dll
 0001:000406d0       _LoadCursorA@8             004416d0 f   user32:USER32.dll
 0001:000406d6       _ExitWindowsEx@8           004416d6 f   user32:USER32.dll
 0001:000406dc       _OpenProcessToken@12       004416dc f   advapi32:ADVAPI32.dll
 0001:000406e2       _LookupPrivilegeValueW@12  004416e2 f   advapi32:ADVAPI32.dll
 0001:000406e8       _AdjustTokenPrivileges@24  004416e8 f   advapi32:ADVAPI32.dll
 0001:000406ee       _websSetSessionVar         004416ee f   libgo:libgo.dll
 0001:000406f4       _websSetCustomErrorHandler 004416f4 f   libgo:libgo.dll
 0001:000406fa       _websDefineAction          004416fa f   libgo:libgo.dll
 0001:00040700       _websWriteHeaders          00441700 f   libgo:libgo.dll
 0001:00040706       _websWriteHeader           00441706 f   libgo:libgo.dll
 0001:0004070c       _websWriteEndHeaders       0044170c f   libgo:libgo.dll
 0001:00040712       _websWrite                 00441712 f   libgo:libgo.dll
 0001:00040718       _websFlush                 00441718 f   libgo:libgo.dll
 0001:0004071e       _websGetSessionVar         0044171e f   libgo:libgo.dll
 0001:00040724       _websSetStatus             00441724 f   libgo:libgo.dll
 0001:0004072a       _websDone                  0044172a f   libgo:libgo.dll
 0001:00040730       _websGetVar                00441730 f   libgo:libgo.dll
 0001:00040736       _websDecodeUrl             00441736 f   libgo:libgo.dll
 0001:00040740       _strncmp                   00441740 f   LIBCMT:strncmp.obj
 0001:000407b8       ___copy_path_to_wide_string 004417b8 f   LIBCMT:crt0dat.obj
 0001:0004086a       ___copy_to_char            0044186a f   LIBCMT:crt0dat.obj
 0001:0004091f       ___crtCorExitProcess       0044191f f   LIBCMT:crt0dat.obj
 0001:00040953       ___crtExitProcess          00441953 f   LIBCMT:crt0dat.obj
 0001:00040969       ___freeCrtMemory           00441969 f   LIBCMT:crt0dat.obj
 0001:00040a76       __amsg_exit                00441a76 f   LIBCMT:crt0dat.obj
 0001:00040a92       __c_exit                   00441a92 f   LIBCMT:crt0dat.obj
 0001:00040aa1       __cexit                    00441aa1 f   LIBCMT:crt0dat.obj
 0001:00040ab0       __cinit                    00441ab0 f   LIBCMT:crt0dat.obj
 0001:00040b34       __exit                     00441b34 f   LIBCMT:crt0dat.obj
 0001:00040b48       __exit_app                 00441b48 f   LIBCMT:crt0dat.obj
 0001:00040b56       __get_pgmptr               00441b56 f   LIBCMT:crt0dat.obj
 0001:00040b85       __get_wpgmptr              00441b85 f   LIBCMT:crt0dat.obj
 0001:00040bb4       __init_pointers            00441bb4 f   LIBCMT:crt0dat.obj
 0001:00040c22       __initterm_e               00441c22 f   LIBCMT:crt0dat.obj
 0001:00040c44       __lockexit                 00441c44 f   LIBCMT:crt0dat.obj
 0001:00040c4d       __unlockexit               00441c4d f   LIBCMT:crt0dat.obj
 0001:00040d85       _exit                      00441d85 f   LIBCMT:crt0dat.obj
 0001:00040d99       __getcwd                   00441d99 f   LIBCMT:getcwd.obj
 0001:00040dae       __getdcwd                  00441dae f   LIBCMT:getcwd.obj
 0001:00040eca       __validdrive               00441eca f   LIBCMT:getcwd.obj
 0001:00040f46       __chdir                    00441f46 f   LIBCMT:chdir.obj
 0001:00041062       ___initstdio               00442062 f   LIBCMT:_file.obj
 0001:000410d5       ___endstdio                004420d5 f   LIBCMT:_file.obj
 0001:000410fc       ___iob_func                004420fc f   LIBCMT:_file.obj
 0001:00041102       __lock_file                00442102 f   LIBCMT:_file.obj
 0001:00041141       __lock_file2               00442141 f   LIBCMT:_file.obj
 0001:00041171       __unlock_file              00442171 f   LIBCMT:_file.obj
 0001:000411ab       __unlock_file2             004421ab f   LIBCMT:_file.obj
 0001:000411d8       __fprintf_l                004421d8 f   LIBCMT:fprintf.obj
 0001:000411f2       __fprintf_p                004421f2 f   LIBCMT:fprintf.obj
 0001:0004120b       __fprintf_p_l              0044220b f   LIBCMT:fprintf.obj
 0001:00041225       __fprintf_s_l              00442225 f   LIBCMT:fprintf.obj
 0001:0004123f       _fprintf                   0044223f f   LIBCMT:fprintf.obj
 0001:00041351       _fprintf_s                 00442351 f   LIBCMT:fprintf.obj
 0001:0004136a       __get_printf_count_output  0044236a f   LIBCMT:printf.obj
 0001:0004137f       __printf_l                 0044237f f   LIBCMT:printf.obj
 0001:00041396       __printf_p                 00442396 f   LIBCMT:printf.obj
 0001:000413ac       __printf_p_l               004423ac f   LIBCMT:printf.obj
 0001:000413c3       __printf_s_l               004423c3 f   LIBCMT:printf.obj
 0001:000413da       __set_printf_count_output  004423da f   LIBCMT:printf.obj
 0001:00041402       _printf                    00442402 f   LIBCMT:printf.obj
 0001:000414b1       _printf_s                  004424b1 f   LIBCMT:printf.obj
 0001:000414c7       @__security_check_cookie@4 004424c7 f   LIBCMT:secchk.obj
 0001:000414e0       __chkstk                   004424e0 f   LIBCMT:chkstk.obj
 0001:000414e0       __alloca_probe             004424e0 f   LIBCMT:chkstk.obj
 0001:000416cc       _mainCRTStartup            004426cc f   LIBCMT:crt0.obj
 0001:000416d6       ??0_LocaleUpdate@@QAE@PAUlocaleinfo_struct@@@Z 004426d6 f i LIBCMT:stricmp.obj
 0001:0004175e       ??1_LocaleUpdate@@QAE@XZ   0044275e f i LIBCMT:stricmp.obj
 0001:0004176c       ?GetLocaleT@_LocaleUpdate@@QAEPAUlocaleinfo_struct@@XZ 0044276c f i LIBCMT:stricmp.obj
 0001:0004176f       ___ascii_stricmp           0044276f f   LIBCMT:stricmp.obj
 0001:000417a8       __stricmp                  004427a8 f   LIBCMT:stricmp.obj
 0001:000417ef       __stricmp_l                004427ef f   LIBCMT:stricmp.obj
 0001:00041890       _strncpy                   00442890 f   LIBCMT:strncpy.obj
 0001:000419b4       ___raise_securityfailure   004429b4 f   LIBCMT:gs_report.obj
 0001:000419f1       ___report_gsfailure        004429f1 f   LIBCMT:gs_report.obj
 0001:00041aec       ___report_rangecheckfailure 00442aec f   LIBCMT:gs_report.obj
 0001:00041af8       ___report_securityfailure  00442af8 f   LIBCMT:gs_report.obj
 0001:00041bc8       ___report_securityfailureEx 00442bc8 f   LIBCMT:gs_report.obj
 0001:00041cde       __strnicmp                 00442cde f   LIBCMT:strnicmp.obj
 0001:00041d49       __strnicmp_l               00442d49 f   LIBCMT:strnicmp.obj
 0001:00041dfa       __atoi64                   00442dfa f   LIBCMT:atox.obj
 0001:00041e0e       __atoi64_l                 00442e0e f   LIBCMT:atox.obj
 0001:00041e25       __atoi_l                   00442e25 f   LIBCMT:atox.obj
 0001:00041e2e       __atol_l                   00442e2e f   LIBCMT:atox.obj
 0001:00041e45       __atoll_l                  00442e45 f   LIBCMT:atox.obj
 0001:00041e5c       _atoi                      00442e5c f   LIBCMT:atox.obj
 0001:00041e65       _atol                      00442e65 f   LIBCMT:atox.obj
 0001:00041e79       _atoll                     00442e79 f   LIBCMT:atox.obj
 0001:00041e8d       ??_V@YAXPAX@Z              00442e8d f   LIBCMT:delete2.obj
 0001:00041e92       __snprintf                 00442e92 f   LIBCMT:snprintf.obj
 0001:00041f3e       __snprintf_l               00442f3e f   LIBCMT:snprintf.obj
 0001:00041f5b       ??_U@YAPAXI@Z              00442f5b f   LIBCMT:new2.obj
 0001:00041f70       _strstr                    00442f70 f   LIBCMT:strstr.obj
 0001:000421e0       _strncat                   004431e0 f   LIBCMT:strncat.obj
 0001:00042315       ??3@YAXPAX@Z               00443315 f   LIBCMT:delete.obj
 0001:0004231a       ??0type_info@@AAE@ABV0@@Z  0044331a f   LIBCMT:typinfo.obj
 0001:00042325       ??1type_info@@UAE@XZ       00443325 f   LIBCMT:typinfo.obj
 0001:00042333       ??4type_info@@AAEAAV0@ABV0@@Z 00443333 f   LIBCMT:typinfo.obj
 0001:00042338       ??8type_info@@QBE_NABV0@@Z 00443338 f   LIBCMT:typinfo.obj
 0001:00042356       ??9type_info@@QBE_NABV0@@Z 00443356 f   LIBCMT:typinfo.obj
 0001:00042375       ??_Gtype_info@@UAEPAXI@Z   00443375 f i LIBCMT:typinfo.obj
 0001:00042375       ??_Etype_info@@UAEPAXI@Z   00443375 f i LIBCMT:typinfo.obj
 0001:00042394       ?_name_internal_method@type_info@@QBEPBDPAU__type_info_node@@@Z 00443394 f   LIBCMT:typinfo.obj
 0001:000423a6       ?_type_info_dtor_internal_method@type_info@@QAEXXZ 004433a6 f   LIBCMT:typinfo.obj
 0001:000423ae       ?before@type_info@@QBE_NABV1@@Z 004433ae f   LIBCMT:typinfo.obj
 0001:000423ce       ?name@type_info@@QBEPBDPAU__type_info_node@@@Z 004433ce f   LIBCMT:typinfo.obj
 0001:000423e0       ?raw_name@type_info@@QBEPBDXZ 004433e0 f   LIBCMT:typinfo.obj
 0001:000423e4       ??0bad_alloc@std@@QAE@ABV01@@Z 004433e4 f i LIBCMT:new.obj
 0001:000423ff       ??0bad_alloc@std@@QAE@XZ   004433ff f i LIBCMT:new.obj
 0001:00042425       ??1bad_alloc@std@@UAE@XZ   00443425 f i LIBCMT:new.obj
 0001:00042430       ??2@YAPAXI@Z               00443430 f   LIBCMT:new.obj
 0001:00042481       ??_Ebad_alloc@std@@UAEPAXI@Z 00443481 f i LIBCMT:new.obj
 0001:00042481       ??_Gbad_alloc@std@@UAEPAXI@Z 00443481 f i LIBCMT:new.obj
 0001:000424a6       __get_purecall_handler     004434a6 f   LIBCMT:purevirt.obj
 0001:000424b3       __purecall                 004434b3 f   LIBCMT:purevirt.obj
 0001:000424d5       __set_purecall_handler     004434d5 f   LIBCMT:purevirt.obj
 0001:000424fa       __invoke_watson_if_error   004434fa f i LIBCMT:loctim64.obj
 0001:0004251a       __localtime64              0044351a f   LIBCMT:loctim64.obj
 0001:0004253f       __localtime64_s            0044353f f   LIBCMT:loctim64.obj
 0001:000427b9       __time64                   004437b9 f   LIBCMT:time64.obj
 0001:0004280a       ___onexitinit              0044380a f   LIBCMT:onexit.obj
 0001:00042839       __onexit                   00443839 f   LIBCMT:onexit.obj
 0001:00042935       _atexit                    00443935 f   LIBCMT:onexit.obj
 0001:0004294a       ??_M@YGXPAXIHP6EX0@Z@Z     0044394a f   LIBCMT:ehvecdtr.obj
 0001:000429d2       ?__ArrayUnwind@@YGXPAXIHP6EX0@Z@Z 004439d2 f   LIBCMT:ehvecdtr.obj
 0001:00042a30       __Getdays                  00443a30 f   LIBCMT:strftime.obj
 0001:00042a39       __Getdays_l                00443a39 f   LIBCMT:strftime.obj
 0001:00042b20       __Getmonths                00443b20 f   LIBCMT:strftime.obj
 0001:00042b29       __Getmonths_l              00443b29 f   LIBCMT:strftime.obj
 0001:00042c1c       __Gettnames                00443c1c f   LIBCMT:strftime.obj
 0001:00042c25       __Strftime                 00443c25 f   LIBCMT:strftime.obj
 0001:00042c43       __Strftime_l               00443c43 f   LIBCMT:strftime.obj
 0001:00042d66       __strftime_l               00443d66 f   LIBCMT:strftime.obj
 0001:00042d84       _strftime                  00443d84 f   LIBCMT:strftime.obj
 0001:0004304f       __mkgmtime64               0044404f f   LIBCMT:mktime64.obj
 0001:00043060       __mktime64                 00444060 f   LIBCMT:mktime64.obj
 0001:00043080       _memmove                   00444080 f   LIBCMT:memmove.obj
 0001:00043839       __MallocaIsSizeInRange     00444839 f i LIBCMT:strupr.obj
 0001:0004384a       __MarkAllocaS              0044484a f i LIBCMT:strupr.obj
 0001:0004385e       __freea                    0044485e f i LIBCMT:strupr.obj
 0001:0004387c       __strupr                   0044487c f   LIBCMT:strupr.obj
 0001:000438d7       __strupr_l                 004448d7 f   LIBCMT:strupr.obj
 0001:000438ef       __strupr_s                 004448ef f   LIBCMT:strupr.obj
 0001:00043904       __strupr_s_l               00444904 f   LIBCMT:strupr.obj
 0001:00043938       ___tzset                   00444938 f   LIBCMT:tzset.obj
 0001:00043988       __isindst                  00444988 f   LIBCMT:tzset.obj
 0001:00043bb6       __set_daylight             00444bb6 f i LIBCMT:tzset.obj
 0001:00043bc5       __set_dstbias              00444bc5 f i LIBCMT:tzset.obj
 0001:00043bd4       __set_timezone             00444bd4 f i LIBCMT:tzset.obj
 0001:00043be3       __tzset                    00444be3 f   LIBCMT:tzset.obj
 0001:00044131       ___daylight                00445131 f   LIBCMT:timeset.obj
 0001:00044137       ___dstbias                 00445137 f   LIBCMT:timeset.obj
 0001:0004413d       ___timezone                0044513d f   LIBCMT:timeset.obj
 0001:00044143       ___tzname                  00445143 f   LIBCMT:timeset.obj
 0001:00044149       __get_daylight             00445149 f   LIBCMT:timeset.obj
 0001:00044173       __get_dstbias              00445173 f   LIBCMT:timeset.obj
 0001:0004419d       __get_timezone             0044519d f   LIBCMT:timeset.obj
 0001:000441c7       __get_tzname               004451c7 f   LIBCMT:timeset.obj
 0001:0004425a       _rand                      0044525a f   LIBCMT:rand.obj
 0001:0004427b       _srand                     0044527b f   LIBCMT:rand.obj
 0001:0004428b       __vscprintf                0044528b f   LIBCMT:vsprintf.obj
 0001:000442a5       __vscprintf_helper         004452a5 f   LIBCMT:vsprintf.obj
 0001:00044301       __vscprintf_l              00445301 f   LIBCMT:vsprintf.obj
 0001:0004431c       __vscprintf_p              0044531c f   LIBCMT:vsprintf.obj
 0001:00044336       __vscprintf_p_l            00445336 f   LIBCMT:vsprintf.obj
 0001:00044351       __vsprintf_l               00445351 f   LIBCMT:vsprintf.obj
 0001:000443d5       _vsprintf                  004453d5 f   LIBCMT:vsprintf.obj
 0001:000443ed       __scprintf                 004453ed f   LIBCMT:sprintf.obj
 0001:00044400       __scprintf_l               00445400 f   LIBCMT:sprintf.obj
 0001:00044417       __scprintf_p               00445417 f   LIBCMT:sprintf.obj
 0001:0004442a       __scprintf_p_l             0044542a f   LIBCMT:sprintf.obj
 0001:00044441       __snprintf_s               00445441 f   LIBCMT:sprintf.obj
 0001:00044460       __snprintf_s_l             00445460 f   LIBCMT:sprintf.obj
 0001:00044480       __sprintf_l                00445480 f   LIBCMT:sprintf.obj
 0001:0004449a       __sprintf_p                0044549a f   LIBCMT:sprintf.obj
 0001:000444b6       __sprintf_p_l              004454b6 f   LIBCMT:sprintf.obj
 0001:000444d3       __sprintf_s_l              004454d3 f   LIBCMT:sprintf.obj
 0001:000444f0       _sprintf                   004454f0 f   LIBCMT:sprintf.obj
 0001:00044574       _sprintf_s                 00445574 f   LIBCMT:sprintf.obj
 0001:00044590       __sscanf_l                 00445590 f   LIBCMT:sscanf.obj
 0001:000445af       __sscanf_s_l               004455af f   LIBCMT:sscanf.obj
 0001:000445ce       _sscanf                    004455ce f   LIBCMT:sscanf.obj
 0001:000445ec       _sscanf_s                  004455ec f   LIBCMT:sscanf.obj
 0001:0004467d       _vsscanf                   0044567d f   LIBCMT:sscanf.obj
 0001:0004469a       _vsscanf_s                 0044569a f   LIBCMT:sscanf.obj
 0001:000446c0       _strchr                    004456c0 f   LIBCMT:strchr.obj
 0001:0004472e       ___from_strstr_to_strchr   0044572e     LIBCMT:strchr.obj
 0001:000447eb       ___doserrno                004457eb f   LIBCMT:dosmap.obj
 0001:000447fe       __dosmaperr                004457fe f   LIBCMT:dosmap.obj
 0001:0004481f       __errno                    0044581f f   LIBCMT:dosmap.obj
 0001:00044832       __get_doserrno             00445832 f   LIBCMT:dosmap.obj
 0001:00044855       __get_errno                00445855 f   LIBCMT:dosmap.obj
 0001:00044878       __get_errno_from_oserr     00445878 f   LIBCMT:dosmap.obj
 0001:000448b9       __set_doserrno             004458b9 f   LIBCMT:dosmap.obj
 0001:000448d8       __set_errno                004458d8 f   LIBCMT:dosmap.obj
 0001:00044965       __i64toa                   00445965 f   LIBCMT:xtoa.obj
 0001:00044995       __itoa                     00445995 f   LIBCMT:xtoa.obj
 0001:000449c0       __ltoa                     004459c0 f   LIBCMT:xtoa.obj
 0001:000449ea       __ui64toa                  004459ea f   LIBCMT:xtoa.obj
 0001:00044a05       __ultoa                    00445a05 f   LIBCMT:xtoa.obj
 0001:00044a66       __wcsicmp                  00445a66 f   LIBCMT:wcsicmp.obj
 0001:00044af9       __wcsicmp_l                00445af9 f   LIBCMT:wcsicmp.obj
 0001:00044bd4       _wcsstr                    00445bd4 f   LIBCMT:wcsstr.obj
 0001:00044e67       _rename                    00445e67 f   LIBCMT:rename.obj
 0001:00044f2a       ?_invalid_parameter@@YAXPBG00II@Z 00445f2a f   LIBCMT:invarg.obj
 0001:00044f2f       ?_invoke_watson@@YAXPBG00II@Z 00445f2f f   LIBCMT:invarg.obj
 0001:00044f47       __call_reportfault         00445f47 f   LIBCMT:invarg.obj
 0001:0004506c       __get_invalid_parameter_handler 0044606c f   LIBCMT:invarg.obj
 0001:00045079       __initp_misc_invarg        00446079 f   LIBCMT:invarg.obj
 0001:00045086       __invalid_parameter        00446086 f   LIBCMT:invarg.obj
 0001:000450b1       __invalid_parameter_noinfo 004460b1 f   LIBCMT:invarg.obj
 0001:000450c1       __invalid_parameter_noinfo_noreturn 004460c1 f   LIBCMT:invarg.obj
 0001:000450dc       __invoke_watson            004460dc f   LIBCMT:invarg.obj
 0001:00045107       __set_invalid_parameter_handler 00446107 f   LIBCMT:invarg.obj
 0001:0004512c       __RTC_Initialize           0044612c f   LIBCMT:initsect.obj
 0001:0004514c       __RTC_Terminate            0044614c f   LIBCMT:initsect.obj
 0001:0004516c       __lock                     0044616c f   LIBCMT:mlock.obj
 0001:000451a0       __lockerr_exit             004461a0 f   LIBCMT:mlock.obj
 0001:000451c0       __mtdeletelocks            004461c0 f   LIBCMT:mlock.obj
 0001:00045214       __mtinitlocknum            00446214 f   LIBCMT:mlock.obj
 0001:000452bd       __mtinitlocks              004462bd f   LIBCMT:mlock.obj
 0001:000452f6       __unlock                   004462f6 f   LIBCMT:mlock.obj
 0001:00045338       ___crtCloseThreadpoolTimer 00446338 f   LIBCMT:winapisupp.obj
 0001:0004534f       ___crtCloseThreadpoolWait  0044634f f   LIBCMT:winapisupp.obj
 0001:00045366       ___crtCreateEventExW       00446366 f   LIBCMT:winapisupp.obj
 0001:000453a1       ___crtCreateSemaphoreExW   004463a1 f   LIBCMT:winapisupp.obj
 0001:000453db       ___crtCreateSymbolicLinkW  004463db f   LIBCMT:winapisupp.obj
 0001:00045404       ___crtCreateThreadpoolTimer 00446404 f   LIBCMT:winapisupp.obj
 0001:00045425       ___crtCreateThreadpoolWait 00446425 f   LIBCMT:winapisupp.obj
 0001:00045446       ___crtFlsAlloc             00446446 f   LIBCMT:winapisupp.obj
 0001:00045464       ___crtFlsFree              00446464 f   LIBCMT:winapisupp.obj
 0001:00045483       ___crtFlsGetValue          00446483 f   LIBCMT:winapisupp.obj
 0001:000454a2       ___crtFlsSetValue          004464a2 f   LIBCMT:winapisupp.obj
 0001:000454c4       ___crtFlushProcessWriteBuffers 004464c4 f   LIBCMT:winapisupp.obj
 0001:000454d4       ___crtFreeLibraryWhenCallbackReturns 004464d4 f   LIBCMT:winapisupp.obj
 0001:000454ee       ___crtGetCurrentProcessorNumber 004464ee f   LIBCMT:winapisupp.obj
 0001:00045500       ___crtGetFileInformationByHandleEx 00446500 f   LIBCMT:winapisupp.obj
 0001:0004552c       ___crtGetLogicalProcessorInformation 0044652c f   LIBCMT:winapisupp.obj
 0001:00045552       ___crtGetShowWindowMode    00446552 f   LIBCMT:winapisupp.obj
 0001:00045575       ___crtGetTickCount64       00446575 f   LIBCMT:winapisupp.obj
 0001:0004558d       ___crtInitializeCriticalSectionEx 0044658d f   LIBCMT:winapisupp.obj
 0001:000455bb       ___crtIsPackagedApp        004465bb f   LIBCMT:winapisupp.obj
 0001:000455fb       ___crtLoadWinApiPointers   004465fb f   LIBCMT:winapisupp.obj
 0001:00045886       ___crtSetFileInformationByHandle 00446886 f   LIBCMT:winapisupp.obj
 0001:000458b2       ___crtSetThreadStackGuarantee 004468b2 f   LIBCMT:winapisupp.obj
 0001:000458cd       ___crtSetThreadpoolTimer   004468cd f   LIBCMT:winapisupp.obj
 0001:000458ed       ___crtSetThreadpoolWait    004468ed f   LIBCMT:winapisupp.obj
 0001:0004590a       ___crtSetUnhandledExceptionFilter 0044690a f   LIBCMT:winapisupp.obj
 0001:00045918       ___crtSleep                00446918 f   LIBCMT:winapisupp.obj
 0001:00045926       ___crtTerminateProcess     00446926 f   LIBCMT:winapisupp.obj
 0001:0004593b       ___crtUnhandledException   0044693b f   LIBCMT:winapisupp.obj
 0001:00045951       ___crtWaitForThreadpoolTimerCallbacks 00446951 f   LIBCMT:winapisupp.obj
 0001:0004596b       __FF_MSGBANNER             0044696b f   LIBCMT:crt0msg.obj
 0001:000459a4       __GET_RTERRMSG             004469a4 f   LIBCMT:crt0msg.obj
 0001:000459c8       __NMSG_WRITE               004469c8 f   LIBCMT:crt0msg.obj
 0001:00045b90       __FindPESection            00446b90 f   LIBCMT:pesect.obj
 0001:00045be0       __IsNonwritableInCurrentImage 00446be0 f   LIBCMT:pesect.obj
 0001:00045ca0       __ValidateImageBase        00446ca0 f   LIBCMT:pesect.obj
 0001:00045cd1       _free                      00446cd1 f   LIBCMT:free.obj
 0001:00045d09       __calloc_crt               00446d09 f   LIBCMT:crtheap.obj
 0001:00045d51       __malloc_crt               00446d51 f   LIBCMT:crtheap.obj
 0001:00045d98       __realloc_crt              00446d98 f   LIBCMT:crtheap.obj
 0001:00045de2       __recalloc_crt             00446de2 f   LIBCMT:crtheap.obj
 0001:00045e30       __set_malloc_crt_max_wait  00446e30 f   LIBCMT:crtheap.obj
 0001:00045e43       _wait_a_bit                00446e43 f i LIBCMT:crtheap.obj
 0001:00045e67       __initp_misc_cfltcvt_tab   00446e67 f   LIBCMT:cmiscdat.obj
 0001:00045e86       ?_inconsistency@@YAXXZ     00446e86 f   LIBCMT:hooks.obj
 0001:00045ebe       ?terminate@@YAXXZ          00446ebe f   LIBCMT:hooks.obj
 0001:00045ef2       ?unexpected@@YAXXZ         00446ef2 f   LIBCMT:hooks.obj
 0001:00045f05       __initp_eh_hooks           00446f05 f   LIBCMT:hooks.obj
 0001:00045f16       ?_query_new_handler@@YAP6AHI@ZXZ 00446f16 f   LIBCMT:handler.obj
 0001:00045f23       ?_set_new_handler@@YAP6AHI@ZH@Z 00446f23 f   LIBCMT:handler.obj
 0001:00045f2c       ?_set_new_handler@@YAP6AHI@ZP6AHI@Z@Z 00446f2c f   LIBCMT:handler.obj
 0001:00045f61       __callnewh                 00446f61 f   LIBCMT:handler.obj
 0001:00045f87       __initp_heap_handler       00446f87 f   LIBCMT:handler.obj
 0001:00045f94       ___getlocaleinfo           00446f94 f   LIBCMT:inithelp.obj
 0001:0004616d       __initp_misc_purevirt      0044716d f   LIBCMT:inithelp.obj
 0001:0004617a       ___fpecode                 0044717a f   LIBCMT:winsig.obj
 0001:00046183       ___get_sigabrt             00447183 f   LIBCMT:winsig.obj
 0001:00046190       ___pxcptinfoptrs           00447190 f   LIBCMT:winsig.obj
 0001:00046199       __initp_misc_winsig        00447199 f   LIBCMT:winsig.obj
 0001:0004625a       _raise                     0044725a f   LIBCMT:winsig.obj
 0001:0004644f       _signal                    0044744f f   LIBCMT:winsig.obj
 0001:000466a6       __initp_misc_rand_s        004476a6 f   LIBCMT:rand_s.obj
 0001:000466b3       _rand_s                    004476b3 f   LIBCMT:rand_s.obj
 0001:000467c0       __SEH_prolog4              004477c0 f   LIBCMT:sehprolg4.obj
 0001:00046805       __SEH_epilog4              00447805 f   LIBCMT:sehprolg4.obj
 0001:00046860       __except_handler4          00447860 f   LIBCMT:chandler4.obj
 0001:000469f4       ___initmbctable            004479f4 f   LIBCMT:mbctype.obj
 0001:00046cab       ___updatetmbcinfo          00447cab f   LIBCMT:mbctype.obj
 0001:00046d51       __getmbcp                  00447d51 f   LIBCMT:mbctype.obj
 0001:00046d82       __setmbcp                  00447d82 f   LIBCMT:mbctype.obj
 0001:00046f2a       __setmbcp_nolock           00447f2a f   LIBCMT:mbctype.obj
 0001:00047115       __ftbuf                    00448115 f   LIBCMT:_sftbuf.obj
 0001:00047146       __stbuf                    00448146 f   LIBCMT:_sftbuf.obj
 0001:000471ec       _calloc                    004481ec f   LIBCMT:calloc.obj
 0001:0004722c       __chdrive                  0044822c f   LIBCMT:drive.obj
 0001:000472aa       __getdrive                 004482aa f   LIBCMT:drive.obj
 0001:00047379       __mbctoupper               00448379 f   LIBCMT:mbtoupr.obj
 0001:0004738a       __mbctoupper_l             0044838a f   LIBCMT:mbtoupr.obj
 0001:00047421       __fcloseall                00448421 f   LIBCMT:closeall.obj
 0001:000474be       __fflush_nolock            004484be f   LIBCMT:fflush.obj
 0001:00047504       __flush                    00448504 f   LIBCMT:fflush.obj
 0001:00047568       __flushall                 00448568 f   LIBCMT:fflush.obj
 0001:00047571       _fflush                    00448571 f   LIBCMT:fflush.obj
 0001:000476ae       __fileno                   004486ae f   LIBCMT:fileno.obj
 0001:000476d2       __vfprintf_l               004486d2 f   LIBCMT:vfprintf.obj
 0001:000476f0       __vfprintf_p               004486f0 f   LIBCMT:vfprintf.obj
 0001:0004770d       __vfprintf_p_l             0044870d f   LIBCMT:vfprintf.obj
 0001:0004772b       __vfprintf_s_l             0044872b f   LIBCMT:vfprintf.obj
 0001:00047749       _vfprintf                  00448749 f   LIBCMT:vfprintf.obj
 0001:00047766       _vfprintf_helper           00448766 f   LIBCMT:vfprintf.obj
 0001:00047877       _vfprintf_s                00448877 f   LIBCMT:vfprintf.obj
 0001:00047894       __output_l                 00448894 f   LIBCMT:output.obj
 0001:00048414       _get_int64_arg             00449414 f i LIBCMT:output.obj
 0001:00048427       _get_int_arg               00449427 f i LIBCMT:output.obj
 0001:00048437       _get_short_arg             00449437 f i LIBCMT:output.obj
 0001:00048534       __ioinit                   00449534 f   LIBCMT:ioinit.obj
 0001:000487e8       __ioterm                   004497e8 f   LIBCMT:ioinit.obj
 0001:0004883a       __vprintf_l                0044983a f   LIBCMT:vprintf.obj
 0001:00048855       __vprintf_p                00449855 f   LIBCMT:vprintf.obj
 0001:0004886f       __vprintf_p_l              0044986f f   LIBCMT:vprintf.obj
 0001:0004888a       __vprintf_s_l              0044988a f   LIBCMT:vprintf.obj
 0001:000488a5       _vprintf                   004498a5 f   LIBCMT:vprintf.obj
 0001:000488bf       _vprintf_helper            004498bf f   LIBCMT:vprintf.obj
 0001:0004894c       _vprintf_s                 0044994c f   LIBCMT:vprintf.obj
 0001:00048966       ?__CxxUnhandledExceptionFilter@@YGJPAU_EXCEPTION_POINTERS@@@Z 00449966 f   LIBCMT:unhandld.obj
 0001:000489a7       ___CxxSetUnhandledExceptionFilter 004499a7 f   LIBCMT:unhandld.obj
 0001:000489b5       __XcptFilter               004499b5 f   LIBCMT:winxfltr.obj
 0001:00048b10       ___CppXcptFilter           00449b10 f   LIBCMT:winxfltr.obj
 0001:00048b62       ___get_flsindex            00449b62 f   LIBCMT:tidtable.obj
 0001:00048b68       ___threadhandle            00449b68 f   LIBCMT:tidtable.obj
 0001:00048b6e       ___threadid                00449b6e f   LIBCMT:tidtable.obj
 0001:00048b74       __freefls@4                00449b74 f   LIBCMT:tidtable.obj
 0001:00048ca9       __freeptd                  00449ca9 f   LIBCMT:tidtable.obj
 0001:00048cdf       __getptd                   00449cdf f   LIBCMT:tidtable.obj
 0001:00048cf7       __getptd_noexit            00449cf7 f   LIBCMT:tidtable.obj
 0001:00048d66       __initptd                  00449d66 f   LIBCMT:tidtable.obj
 0001:00048e19       __mtinit                   00449e19 f   LIBCMT:tidtable.obj
 0001:00048e8f       __mtterm                   00449e8f f   LIBCMT:tidtable.obj
 0001:00048eac       __get_heap_handle          00449eac f   LIBCMT:heapinit.obj
 0001:00048eb2       __heap_init                00449eb2 f   LIBCMT:heapinit.obj
 0001:00048ec7       __heap_term                00449ec7 f   LIBCMT:heapinit.obj
 0001:00048ecf       __set_pgmptr               00449ecf f i LIBCMT:stdargv.obj
 0001:00048edc       __setargv                  00449edc f   LIBCMT:stdargv.obj
 0001:0004910b       __setenvp                  0044a10b f   LIBCMT:stdenvp.obj
 0001:000491ec       ___set_app_type            0044a1ec f   LIBCMT:errmode.obj
 0001:000491f9       __set_error_mode           0044a1f9 f   LIBCMT:errmode.obj
 0001:00049239       ___security_init_cookie    0044a239 f   LIBCMT:gs_support.obj
 0001:000492d5       ___crtGetEnvironmentStringsA 0044a2d5 f   LIBCMT:a_env.obj
 0001:00049362       ___addlocaleref            0044a362 f   LIBCMT:localref.obj
 0001:000493f7       ___freetlocinfo            0044a3f7 f   LIBCMT:localref.obj
 0001:00049551       ___removelocaleref         0044a551 f   LIBCMT:localref.obj
 0001:000495f1       ___updatetlocinfo          0044a5f1 f   LIBCMT:localref.obj
 0001:00049671       __updatetlocinfoEx_nolock  0044a671 f   LIBCMT:localref.obj
 0001:000496bc       __tolower                  0044a6bc f   LIBCMT:tolower.obj
 0001:000496c7       __tolower_l                0044a6c7 f   LIBCMT:tolower.obj
 0001:0004980a       _tolower                   0044a80a f   LIBCMT:tolower.obj
 0001:00049836       ___init_dummy              0044a836 f   LIBCMT:wsetloca.obj
 0001:00049839       __locterm                  0044a839 f   LIBCMT:wsetloca.obj
 0001:0004988b       ____setlc_active_func      0044a88b f   LIBCMT:wsetloca.obj
 0001:00049891       ____unguarded_readlc_active_add_func 0044a891 f   LIBCMT:wsetloca.obj
 0001:00049897       ___copy_locale_name        0044a897 f   LIBCMT:wsetloca.obj
 0001:000498fb       ___create_locale           0044a8fb f   LIBCMT:wsetloca.obj
 0001:00049904       ___free_locale             0044a904 f   LIBCMT:wsetloca.obj
 0001:00049909       ___get_current_locale      0044a909 f   LIBCMT:wsetloca.obj
 0001:0004990e       ___lc_lctowcs              0044a90e f   LIBCMT:wsetloca.obj
 0001:0004997c       ___lc_wcstolc              0044a97c f   LIBCMT:wsetloca.obj
 0001:00049aa8       __configthreadlocale       0044aaa8 f   LIBCMT:wsetloca.obj
 0001:00049b2e       __create_locale            0044ab2e f   LIBCMT:wsetloca.obj
 0001:00049b90       __expandlocale             0044ab90 f   LIBCMT:wsetloca.obj
 0001:00049e87       __free_locale              0044ae87 f   LIBCMT:wsetloca.obj
 0001:00049f3e       __get_current_locale       0044af3e f   LIBCMT:wsetloca.obj
 0001:00049fed       __wcreate_locale           0044afed f   LIBCMT:wsetloca.obj
 0001:0004a0c4       __wcscats                  0044b0c4 f   LIBCMT:wsetloca.obj
 0001:0004a103       __wsetlocale               0044b103 f   LIBCMT:wsetloca.obj
 0001:0004aa45       __crt_debugger_hook        0044ba45 f   LIBCMT:dbghook.obj
 0001:0004aa50       ___ascii_strnicmp          0044ba50 f   LIBCMT:_strnicm.obj
 0001:0004ad21       __strtof_l                 0044bd21 f   LIBCMT:strtoq.obj
 0001:0004ad41       __strtoi64                 0044bd41 f   LIBCMT:strtoq.obj
 0001:0004ad6b       __strtoi64_l               0044bd6b f   LIBCMT:strtoq.obj
 0001:0004ad86       __strtoimax_l              0044bd86 f   LIBCMT:strtoq.obj
 0001:0004ad8f       __strtold_l                0044bd8f f   LIBCMT:strtoq.obj
 0001:0004ad98       __strtoll_l                0044bd98 f   LIBCMT:strtoq.obj
 0001:0004ada1       __strtoui64                0044bda1 f   LIBCMT:strtoq.obj
 0001:0004adcb       __strtoui64_l              0044bdcb f   LIBCMT:strtoq.obj
 0001:0004ade6       __strtoull_l               0044bde6 f   LIBCMT:strtoq.obj
 0001:0004adef       __strtoumax_l              0044bdef f   LIBCMT:strtoq.obj
 0001:0004adf8       _strtof                    0044bdf8 f   LIBCMT:strtoq.obj
 0001:0004ae17       _strtoimax                 0044be17 f   LIBCMT:strtoq.obj
 0001:0004ae20       _strtold                   0044be20 f   LIBCMT:strtoq.obj
 0001:0004ae29       _strtoll                   0044be29 f   LIBCMT:strtoq.obj
 0001:0004ae32       _strtoull                  0044be32 f   LIBCMT:strtoq.obj
 0001:0004ae3b       _strtoumax                 0044be3b f   LIBCMT:strtoq.obj
 0001:0004b06a       __strtol_l                 0044c06a f   LIBCMT:strtol.obj
 0001:0004b085       __strtoul_l                0044c085 f   LIBCMT:strtol.obj
 0001:0004b0a0       _strtol                    0044c0a0 f   LIBCMT:strtol.obj
 0001:0004b0ca       _strtoul                   0044c0ca f   LIBCMT:strtol.obj
 0001:0004b0f4       __flsbuf                   0044c0f4 f   LIBCMT:_flsbuf.obj
 0001:0004b243       __vsnprintf                0044c243 f   LIBCMT:vsnprint.obj
 0001:0004b243       _vsnprintf                 0044c243 f   LIBCMT:vsnprint.obj
 0001:0004b25e       __vsnprintf_l              0044c25e f   LIBCMT:vsnprint.obj
 0001:0004b30a       ___isa_available_init      0044c30a f   LIBCMT:cpu_disp.obj
 0001:0004b490       _strcmp                    0044c490 f   LIBCMT:strcmp.obj
 0001:0004b51c       ?_Name_base@type_info@@CAPBDPBV1@PAU__type_info_node@@@Z 0044c51c f   LIBCMT:typname.obj
 0001:0004b60d       ?_Name_base_internal@type_info@@CAPBDPBV1@PAU__type_info_node@@@Z 0044c60d f   LIBCMT:typname.obj
 0001:0004b717       ?_Type_info_dtor@type_info@@CAXPAV1@@Z 0044c717 f   LIBCMT:typname.obj
 0001:0004b788       ?_Type_info_dtor_internal@type_info@@CAXPAV1@@Z 0044c788 f   LIBCMT:typname.obj
 0001:0004b7f9       ___clean_type_info_names_internal 0044c7f9 f   LIBCMT:typname.obj
 0001:0004b84c       ___unDNameHelper           0044c84c f   LIBCMT:typname.obj
 0001:0004b87a       __heap_alloc               0044c87a f i LIBCMT:malloc.obj
 0001:0004b8b7       _malloc                    0044c8b7 f   LIBCMT:malloc.obj
 0001:0004b949       ??0__non_rtti_object@std@@QAE@ABV01@@Z 0044c949 f   LIBCMT:stdexcpt.obj
 0001:0004b964       ??0__non_rtti_object@std@@QAE@PBD@Z 0044c964 f   LIBCMT:stdexcpt.obj
 0001:0004b97f       ??0bad_cast@std@@QAE@ABV01@@Z 0044c97f f   LIBCMT:stdexcpt.obj
 0001:0004b99a       ??0bad_cast@std@@QAE@PBD@Z 0044c99a f   LIBCMT:stdexcpt.obj
 0001:0004b9b6       ??0bad_typeid@std@@QAE@ABV01@@Z 0044c9b6 f   LIBCMT:stdexcpt.obj
 0001:0004b9d1       ??0bad_typeid@std@@QAE@PBD@Z 0044c9d1 f   LIBCMT:stdexcpt.obj
 0001:0004b9ed       ??0exception@std@@QAE@ABQBD@Z 0044c9ed f   LIBCMT:stdexcpt.obj
 0001:0004ba12       ??0exception@std@@QAE@ABQBDH@Z 0044ca12 f   LIBCMT:stdexcpt.obj
 0001:0004ba2d       ??0exception@std@@QAE@ABV01@@Z 0044ca2d f   LIBCMT:stdexcpt.obj
 0001:0004ba50       ??0exception@std@@QAE@XZ   0044ca50 f   LIBCMT:stdexcpt.obj
 0001:0004ba61       ??1__non_rtti_object@std@@UAE@XZ 0044ca61 f   LIBCMT:stdexcpt.obj
 0001:0004ba6c       ??1bad_cast@std@@UAE@XZ    0044ca6c f   LIBCMT:stdexcpt.obj
 0001:0004ba77       ??1bad_typeid@std@@UAE@XZ  0044ca77 f   LIBCMT:stdexcpt.obj
 0001:0004ba82       ??1exception@std@@UAE@XZ   0044ca82 f   LIBCMT:stdexcpt.obj
 0001:0004ba8d       ??4exception@std@@QAEAAV01@ABV01@@Z 0044ca8d f   LIBCMT:stdexcpt.obj
 0001:0004bac0       ??_G__non_rtti_object@std@@UAEPAXI@Z 0044cac0 f i LIBCMT:stdexcpt.obj
 0001:0004bac0       ??_E__non_rtti_object@std@@UAEPAXI@Z 0044cac0 f i LIBCMT:stdexcpt.obj
 0001:0004bae5       ??_Ebad_cast@std@@UAEPAXI@Z 0044cae5 f i LIBCMT:stdexcpt.obj
 0001:0004bae5       ??_Gbad_cast@std@@UAEPAXI@Z 0044cae5 f i LIBCMT:stdexcpt.obj
 0001:0004bb0a       ??_Ebad_typeid@std@@UAEPAXI@Z 0044cb0a f i LIBCMT:stdexcpt.obj
 0001:0004bb0a       ??_Gbad_typeid@std@@UAEPAXI@Z 0044cb0a f i LIBCMT:stdexcpt.obj
 0001:0004bb2f       ??_Gexception@std@@UAEPAXI@Z 0044cb2f f i LIBCMT:stdexcpt.obj
 0001:0004bb2f       ??_Eexception@std@@UAEPAXI@Z 0044cb2f f i LIBCMT:stdexcpt.obj
 0001:0004bb54       ?_Copy_str@exception@std@@AAEXPBD@Z 0044cb54 f   LIBCMT:stdexcpt.obj
 0001:0004bb92       ?_Tidy@exception@std@@AAEXXZ 0044cb92 f   LIBCMT:stdexcpt.obj
 0001:0004bbae       ?what@exception@std@@UBEPBDXZ 0044cbae f   LIBCMT:stdexcpt.obj
 0001:0004bbbb       __CxxThrowException@8      0044cbbb f   LIBCMT:throw.obj
 0001:0004bc1e       __set_abort_behavior       0044cc1e f   LIBCMT:abort.obj
 0001:0004bc3d       _abort                     0044cc3d f   LIBCMT:abort.obj
 0001:0004bc80       __gmtime64                 0044cc80 f   LIBCMT:gmtime64.obj
 0001:0004bca5       __gmtime64_s               0044cca5 f   LIBCMT:gmtime64.obj
 0001:0004bed0       _memset                    0044ced0 f   LIBCMT:memset.obj
 0001:0004bf60       ___getgmtimebuf            0044cf60 f   LIBCMT:gmtime.obj
 0001:0004bf95       __gmtime32                 0044cf95 f   LIBCMT:gmtime.obj
 0001:0004bfba       __gmtime32_s               0044cfba f   LIBCMT:gmtime.obj
 0001:0004c0f0       __alldiv                   0044d0f0 f   LIBCMT:lldiv.obj
 0001:0004c1a0       __allrem                   0044d1a0 f   LIBCMT:llrem.obj
 0001:0004c260       __aulldiv                  0044d260 f   LIBCMT:ulldiv.obj
 0001:0004c2c8       __msize                    0044d2c8 f   LIBCMT:msize.obj
 0001:0004c2f9       _strcpy_s                  0044d2f9 f   LIBCMT:strcpy_s.obj
 0001:0004c350       _strlen                    0044d350 f   LIBCMT:strlen.obj
 0001:0004cdf4       __W_Getdays                0044ddf4 f   LIBCMT:wcsftime.obj
 0001:0004cdfd       __W_Getdays_l              0044ddfd f   LIBCMT:wcsftime.obj
 0001:0004cf16       __W_Getmonths              0044df16 f   LIBCMT:wcsftime.obj
 0001:0004cf1f       __W_Getmonths_l            0044df1f f   LIBCMT:wcsftime.obj
 0001:0004d038       __W_Gettnames              0044e038 f   LIBCMT:wcsftime.obj
 0001:0004d041       __W_Gettnames_l            0044e041 f   LIBCMT:wcsftime.obj
 0001:0004d6f0       __Wcsftime                 0044e6f0 f   LIBCMT:wcsftime.obj
 0001:0004d70e       __Wcsftime_l               0044e70e f   LIBCMT:wcsftime.obj
 0001:0004d851       __invoke_watson_if_oneof   0044e851 f i LIBCMT:wcsftime.obj
 0001:0004d87c       __wcsftime_l               0044e87c f   LIBCMT:wcsftime.obj
 0001:0004d89a       _wcsftime                  0044e89a f   LIBCMT:wcsftime.obj
 0001:0004d8c0       __allmul                   0044e8c0 f   LIBCMT:llmul.obj
 0001:0004d8f4       _strnlen                   0044e8f4 f   LIBCMT:strlen_s.obj
 0001:0004db33       ___crtLCMapStringA         0044eb33 f   LIBCMT:a_map.obj
 0001:0004db80       __alloca_probe_16          0044eb80 f   LIBCMT:alloca16.obj
 0001:0004db96       __alloca_probe_8           0044eb96     LIBCMT:alloca16.obj
 0001:0004dbac       _strncpy_s                 0044ebac f   LIBCMT:strncpy_s.obj
 0001:0004dc50       __dupenv_s                 0044ec50 f   LIBCMT:getenv.obj
 0001:0004ddc3       __getenv_helper_nolock     0044edc3 f   LIBCMT:getenv.obj
 0001:0004dee2       _getenv                    0044eee2 f   LIBCMT:getenv.obj
 0001:0004df62       _getenv_s                  0044ef62 f   LIBCMT:getenv.obj
 0001:0004e033       ____lc_codepage_func       0044f033 f   LIBCMT:initctyp.obj
 0001:0004e059       ____lc_collate_cp_func     0044f059 f   LIBCMT:initctyp.obj
 0001:0004e07f       ____lc_locale_name_func    0044f07f f   LIBCMT:initctyp.obj
 0001:0004e0a7       ____mb_cur_max_func        0044f0a7 f   LIBCMT:initctyp.obj
 0001:0004e0cd       ____mb_cur_max_l_func      0044f0cd f   LIBCMT:initctyp.obj
 0001:0004e0e4       ___init_ctype              0044f0e4 f   LIBCMT:initctyp.obj
 0001:0004e47c       __output_p_l               0044f47c f   LIBCMT:outputp.obj
 0001:0004f7b4       __validate_param_reuseA    004507b4 f   LIBCMT:outputp.obj
 0001:0004f8ea       _get_crtdouble_arg         004508ea f i LIBCMT:outputp.obj
 0001:0004f9e9       __vsnprintf_c              004509e9 f   LIBCMT:vsnprnc.obj
 0001:0004fa10       __vsnprintf_c_l            00450a10 f   LIBCMT:vsnprnc.obj
 0001:0004fa38       __vsnprintf_helper         00450a38 f   LIBCMT:vsnprnc.obj
 0001:0004fb02       __vsnprintf_s              00450b02 f   LIBCMT:vsnprnc.obj
 0001:0004fb20       __vsnprintf_s_l            00450b20 f   LIBCMT:vsnprnc.obj
 0001:0004fc20       __vsprintf_p               00450c20 f   LIBCMT:vsnprnc.obj
 0001:0004fc47       __vsprintf_p_l             00450c47 f   LIBCMT:vsnprnc.obj
 0001:0004fc6f       __vsprintf_s_l             00450c6f f   LIBCMT:vsnprnc.obj
 0001:0004fce4       _vsprintf_s                00450ce4 f   LIBCMT:vsnprnc.obj
 0001:0004fcff       __INTRN_LOCALE_CONV        00450cff f i LIBCMT:input.obj
 0001:0004fdb1       __input_l                  00450db1 f   LIBCMT:input.obj
 0001:00050fe1       __input_s_l                00451fe1 f   LIBCMT:inputs.obj
 0001:000522d0       __aulldvrm                 004532d0 f   LIBCMT:ulldvrm.obj
 0001:00052365       __towlower_l               00453365 f   LIBCMT:towlower.obj
 0001:00052416       _towlower                  00453416 f   LIBCMT:towlower.obj
 0001:00052427       __wrename                  00453427 f   LIBCMT:wrename.obj
 0001:0005245a       _wcscat_s                  0045345a f   LIBCMT:wcscat_s.obj
 0001:000524c6       _wcscpy_s                  004534c6 f   LIBCMT:wcscpy_s.obj
 0001:00052522       _wcslen                    00453522 f   LIBCMT:wcslen.obj
 0001:0005253b       _wcsncpy_s                 0045353b f   LIBCMT:wcsncpy_s.obj
 0001:000525f9       ___crtMessageBoxW          004535f9 f   LIBCMT:crtmboxw.obj
 0001:000527df       ___crtMessageBoxWaitThreadW@4 004537df f   LIBCMT:crtmboxw.obj
 0001:000527fd       _realloc                   004537fd f   LIBCMT:realloc.obj
 0001:000528a8       __recalloc                 004538a8 f   LIBCMT:recalloc.obj
 0001:00052911       __calloc_impl              00453911 f   LIBCMT:calloc_impl.obj
 0001:0005298b       __fptrap                   0045398b f   LIBCMT:crt0fp.obj
 0001:00052a78       ___crtGetLocaleInfoA       00453a78 f   LIBCMT:a_loc.obj
 0001:00052ab2       _GetTableIndexFromLcid     00453ab2 f   LIBCMT:winapinls.obj
 0001:00052ae7       _GetTableIndexFromLocaleName 00453ae7 f   LIBCMT:winapinls.obj
 0001:00052b35       ___crtCompareStringEx      00453b35 f   LIBCMT:winapinls.obj
 0001:00052b81       ___crtDownlevelLCIDToLocaleName 00453b81 f   LIBCMT:winapinls.obj
 0001:00052bfd       ___crtDownlevelLocaleNameToLCID 00453bfd f   LIBCMT:winapinls.obj
 0001:00052c3b       ___crtEnumSystemLocalesEx  00453c3b f   LIBCMT:winapinls.obj
 0001:00052c78       ___crtGetDateFormatEx      00453c78 f   LIBCMT:winapinls.obj
 0001:00052cc1       ___crtGetLocaleInfoEx      00453cc1 f   LIBCMT:winapinls.obj
 0001:00052cf0       ___crtGetTimeFormatEx      00453cf0 f   LIBCMT:winapinls.obj
 0001:00052d25       ___crtGetUserDefaultLocaleName 00453d25 f   LIBCMT:winapinls.obj
 0001:00052d50       ___crtIsValidLocaleName    00453d50 f   LIBCMT:winapinls.obj
 0001:00052d7b       ___crtLCMapStringEx        00453d7b f   LIBCMT:winapinls.obj
 0001:00052dc7       ___wcsnicmp_ascii          00453dc7 f   LIBCMT:winapinls.obj
 0001:00052e40       _memcpy                    00453e40 f   LIBCMT:memcpy.obj
 0001:00053490       __local_unwind4            00454490 f   LIBCMT:exsup4.obj
 0001:00053566       __seh_longjmp_unwind4@4    00454566 f   LIBCMT:exsup4.obj
 0001:00053582       @_EH4_CallFilterFunc@8     00454582 f   LIBCMT:exsup4.obj
 0001:00053599       @_EH4_TransferToHandler@8  00454599 f   LIBCMT:exsup4.obj
 0001:000535b2       @_EH4_GlobalUnwind2@8      004545b2 f   LIBCMT:exsup4.obj
 0001:000535cb       @_EH4_LocalUnwind@16       004545cb f   LIBCMT:exsup4.obj
 0001:000536da       ___crtGetStringTypeA       004546da f   LIBCMT:a_str.obj
 0001:0005371a       __isatty                   0045471a f   LIBCMT:isatty.obj
 0001:0005376e       __fclose_nolock            0045476e f   LIBCMT:fclose.obj
 0001:000537da       _fclose                    004547da f   LIBCMT:fclose.obj
 0001:00053851       __commit                   00454851 f   LIBCMT:commit.obj
 0001:0005393a       __write                    0045493a f   LIBCMT:write.obj
 0001:00053a29       __write_nolock             00454a29 f   LIBCMT:write.obj
 0001:0005428e       __output_s_l               0045528e f   LIBCMT:outputs.obj
 0001:00054f16       ___iswcsym                 00455f16 f i LIBCMT:_wctype.obj
 0001:00054f3a       ___iswcsymf                00455f3a f i LIBCMT:_wctype.obj
 0001:00054f5e       __isleadbyte_l             00455f5e f i LIBCMT:_wctype.obj
 0001:00054f98       __iswalnum_l               00455f98 f i LIBCMT:_wctype.obj
 0001:00054fac       __iswalpha_l               00455fac f i LIBCMT:_wctype.obj
 0001:00054fc0       __iswblank_l               00455fc0 f i LIBCMT:_wctype.obj
 0001:00054fdb       __iswcntrl_l               00455fdb f i LIBCMT:_wctype.obj
 0001:00054fec       __iswcsym_l                00455fec f i LIBCMT:_wctype.obj
 0001:00055010       __iswcsymf_l               00456010 f i LIBCMT:_wctype.obj
 0001:00055034       __iswdigit_l               00456034 f i LIBCMT:_wctype.obj
 0001:00055045       __iswgraph_l               00456045 f i LIBCMT:_wctype.obj
 0001:00055059       __iswlower_l               00456059 f i LIBCMT:_wctype.obj
 0001:0005506a       __iswprint_l               0045606a f i LIBCMT:_wctype.obj
 0001:0005507e       __iswpunct_l               0045607e f i LIBCMT:_wctype.obj
 0001:0005508f       __iswspace_l               0045608f f i LIBCMT:_wctype.obj
 0001:000550a0       __iswupper_l               004560a0 f i LIBCMT:_wctype.obj
 0001:000550b1       __iswxdigit_l              004560b1 f i LIBCMT:_wctype.obj
 0001:000550c5       _isleadbyte                004560c5 f i LIBCMT:_wctype.obj
 0001:000550d6       _iswalnum                  004560d6 f i LIBCMT:_wctype.obj
 0001:000550ea       _iswalpha                  004560ea f i LIBCMT:_wctype.obj
 0001:000550fe       _iswascii                  004560fe f i LIBCMT:_wctype.obj
 0001:00055110       _iswblank                  00456110 f i LIBCMT:_wctype.obj
 0001:0005512b       _iswcntrl                  0045612b f i LIBCMT:_wctype.obj
 0001:0005513c       _iswdigit                  0045613c f i LIBCMT:_wctype.obj
 0001:0005514d       _iswgraph                  0045614d f i LIBCMT:_wctype.obj
 0001:00055161       _iswlower                  00456161 f i LIBCMT:_wctype.obj
 0001:00055172       _iswprint                  00456172 f i LIBCMT:_wctype.obj
 0001:00055186       _iswpunct                  00456186 f i LIBCMT:_wctype.obj
 0001:00055197       _iswspace                  00456197 f i LIBCMT:_wctype.obj
 0001:000551a8       _iswupper                  004561a8 f i LIBCMT:_wctype.obj
 0001:000551b9       _iswxdigit                 004561b9 f i LIBCMT:_wctype.obj
 0001:000551cd       __wctomb_l                 004561cd f   LIBCMT:wctomb.obj
 0001:0005521c       __wctomb_s_l               0045621c f   LIBCMT:wctomb.obj
 0001:00055340       _wctomb                    00456340 f   LIBCMT:wctomb.obj
 0001:00055373       _wctomb_s                  00456373 f   LIBCMT:wctomb.obj
 0001:000553e8       __ismbbalnum               004563e8 f   LIBCMT:ismbbyte.obj
 0001:00055401       __ismbbalnum_l             00456401 f   LIBCMT:ismbbyte.obj
 0001:0005541b       __ismbbalpha               0045641b f   LIBCMT:ismbbyte.obj
 0001:00055434       __ismbbalpha_l             00456434 f   LIBCMT:ismbbyte.obj
 0001:0005544e       __ismbbblank               0045644e f   LIBCMT:ismbbyte.obj
 0001:0005546f       __ismbbblank_l             0045646f f   LIBCMT:ismbbyte.obj
 0001:00055491       __ismbbgraph               00456491 f   LIBCMT:ismbbyte.obj
 0001:000554aa       __ismbbgraph_l             004564aa f   LIBCMT:ismbbyte.obj
 0001:000554c4       __ismbbkalnum              004564c4 f   LIBCMT:ismbbyte.obj
 0001:000554da       __ismbbkalnum_l            004564da f   LIBCMT:ismbbyte.obj
 0001:000554f1       __ismbbkana                004564f1 f   LIBCMT:ismbbyte.obj
 0001:00055502       __ismbbkana_l              00456502 f   LIBCMT:ismbbyte.obj
 0001:0005554e       __ismbbkprint              0045654e f   LIBCMT:ismbbyte.obj
 0001:00055564       __ismbbkprint_l            00456564 f   LIBCMT:ismbbyte.obj
 0001:0005557b       __ismbbkpunct              0045657b f   LIBCMT:ismbbyte.obj
 0001:00055591       __ismbbkpunct_l            00456591 f   LIBCMT:ismbbyte.obj
 0001:000555a8       __ismbblead                004565a8 f   LIBCMT:ismbbyte.obj
 0001:000555be       __ismbblead_l              004565be f   LIBCMT:ismbbyte.obj
 0001:000555d5       __ismbbprint               004565d5 f   LIBCMT:ismbbyte.obj
 0001:000555ee       __ismbbprint_l             004565ee f   LIBCMT:ismbbyte.obj
 0001:00055608       __ismbbpunct               00456608 f   LIBCMT:ismbbyte.obj
 0001:0005561e       __ismbbpunct_l             0045661e f   LIBCMT:ismbbyte.obj
 0001:00055635       __ismbbtrail               00456635 f   LIBCMT:ismbbyte.obj
 0001:0005564b       __ismbbtrail_l             0045664b f   LIBCMT:ismbbyte.obj
 0001:00055662       ___free_lconv_mon          00456662 f   LIBCMT:initmon.obj
 0001:0005575e       ___init_monetary           0045675e f   LIBCMT:initmon.obj
 0001:00055b37       ___free_lconv_num          00456b37 f   LIBCMT:initnum.obj
 0001:00055b9e       ___init_numeric            00456b9e f   LIBCMT:initnum.obj
 0001:00055ddc       ___free_lc_time            00456ddc f   LIBCMT:inittime.obj
 0001:0005615c       ___init_time               0045715c f   LIBCMT:inittime.obj
 0001:000569cb       _localeconv                004579cb f   LIBCMT:lconv.obj
 0001:000569f1       __isctype                  004579f1 f   LIBCMT:isctype.obj
 0001:00056a20       __isctype_l                00457a20 f   LIBCMT:isctype.obj
 0001:00056ad1       ___pctype_func             00457ad1 f   LIBCMT:ctype.obj
 0001:00056afa       ___pwctype_func            00457afa f   LIBCMT:ctype.obj
 0001:00056b00       ___init_collate            00457b00 f   LIBCMT:initcoll.obj
 0001:00056c20       _memcmp                    00457c20 f   LIBCMT:memcmp.obj
 0001:00059b34       _wcscmp                    0045ab34 f   LIBCMT:wcscmp.obj
 0001:00059b72       _wcscspn                   0045ab72 f   LIBCMT:wcscspn.obj
 0001:00059bbd       _wcsnlen                   0045abbd f   LIBCMT:wcslen_s.obj
 0001:00059bdc       _wcsncmp                   0045abdc f   LIBCMT:wcsncmp.obj
 0001:00059c12       _wcspbrk                   0045ac12 f   LIBCMT:wcspbrk.obj
 0001:0005a216       ___get_qualified_locale    0045b216 f   LIBCMT:getqloc.obj
 0001:0005aa86       ___get_qualified_locale_downlevel 0045ba86 f   LIBCMT:getqloc_downlevel.obj
 0001:0005aca2       __strtod_l                 0045bca2 f   LIBCMT:strtod.obj
 0001:0005adb9       _strtod                    0045bdb9 f   LIBCMT:strtod.obj
 0001:0005adce       ___crt_atoflt_l            0045bdce f   LIBCMT:atodbl.obj
 0001:0005ae72       __atodbl                   0045be72 f   LIBCMT:atodbl.obj
 0001:0005ae87       __atodbl_l                 0045be87 f   LIBCMT:atodbl.obj
 0001:0005af15       __atoflt                   0045bf15 f   LIBCMT:atodbl.obj
 0001:0005af2a       __atoflt_l                 0045bf2a f   LIBCMT:atodbl.obj
 0001:0005af42       __atoldbl                  0045bf42 f   LIBCMT:atodbl.obj
 0001:0005af57       __atoldbl_l                0045bf57 f   LIBCMT:atodbl.obj
 0001:0005afe6       __fpmath                   0045bfe6 f   LIBCMT:fpinit.obj
 0001:0005affd       ___setfflag                0045bffd f   LIBCMT:fpinit.obj
 0001:0005b010       __cfltcvt_init             0045c010 f   LIBCMT:fpinit.obj
 0001:0005b070       __lseeki64                 0045c070 f   LIBCMT:lseeki64.obj
 0001:0005b16c       __lseeki64_nolock          0045c16c f   LIBCMT:lseeki64.obj
 0001:0005b1df       __getbuf                   0045c1df f   LIBCMT:_getbuf.obj
 0001:0005b225       ??0Block@_HeapManager@@QAE@XZ 0045c225 f i LIBCMT:undname.obj
 0001:0005b22b       ??0DName@@QAE@AAPBDD@Z     0045c22b f   LIBCMT:undname.obj
 0001:0005b2e4       ??0DName@@QAE@ABV0@@Z      0045c2e4 f i LIBCMT:undname.obj
 0001:0005b2fa       ??0DName@@QAE@D@Z          0045c2fa f   LIBCMT:undname.obj
 0001:0005b326       ??0DName@@QAE@PAV0@@Z      0045c326 f   LIBCMT:undname.obj
 0001:0005b373       ??0DName@@QAE@PBD@Z        0045c373 f   LIBCMT:undname.obj
 0001:0005b3ad       ??0DName@@QAE@W4DNameStatus@@@Z 0045c3ad f   LIBCMT:undname.obj
 0001:0005b3f0       ??0DName@@QAE@XZ           0045c3f0 f i LIBCMT:undname.obj
 0001:0005b401       ??0DName@@QAE@_J@Z         0045c401 f   LIBCMT:undname.obj
 0001:0005b494       ??0DName@@QAE@_K@Z         0045c494 f   LIBCMT:undname.obj
 0001:0005b501       ??0DNameNode@@IAE@XZ       0045c501 f   LIBCMT:undname.obj
 0001:0005b50a       ??0DNameStatusNode@@AAE@W4DNameStatus@@@Z 0045c50a f   LIBCMT:undname.obj
 0001:0005b52d       ??0Replicator@@QAE@XZ      0045c52d f i LIBCMT:undname.obj
 0001:0005b533       ??0UnDecorator@@QAE@PADPBDHP6APADJ@ZK@Z 0045c533 f i LIBCMT:undname.obj
 0001:0005b59c       ??0charNode@@QAE@D@Z       0045c59c f   LIBCMT:undname.obj
 0001:0005b5b1       ??0pDNameNode@@QAE@PAVDName@@@Z 0045c5b1 f   LIBCMT:undname.obj
 0001:0005b5d9       ??0pairNode@@QAE@PAVDNameNode@@0@Z 0045c5d9 f   LIBCMT:undname.obj
 0001:0005b5f8       ??0pcharNode@@QAE@PBDH@Z   0045c5f8 f   LIBCMT:undname.obj
 0001:0005b64f       ??2@YAPAXIAAV_HeapManager@@H@Z 0045c64f f i LIBCMT:undname.obj
 0001:0005b664       ??4DName@@QAEAAV0@ABV0@@Z  0045c664 f   LIBCMT:undname.obj
 0001:0005b67a       ??4DName@@QAEAAV0@D@Z      0045c67a f i LIBCMT:undname.obj
 0001:0005b6a6       ??4DName@@QAEAAV0@PAV0@@Z  0045c6a6 f   LIBCMT:undname.obj
 0001:0005b6ef       ??4DName@@QAEAAV0@PBD@Z    0045c6ef f   LIBCMT:undname.obj
 0001:0005b721       ??4DName@@QAEAAV0@W4DNameStatus@@@Z 0045c721 f   LIBCMT:undname.obj
 0001:0005b756       ??AReplicator@@QBE?AVDName@@H@Z 0045c756 f   LIBCMT:undname.obj
 0001:0005b792       ??BUnDecorator@@QAEPADXZ   0045c792 f i LIBCMT:undname.obj
 0001:0005b911       ??H@YA?AVDName@@DABV0@@Z   0045c911 f i LIBCMT:undname.obj
 0001:0005b935       ??H@YA?AVDName@@PBDABV0@@Z 0045c935 f i LIBCMT:undname.obj
 0001:0005b959       ??H@YA?AVDName@@W4DNameStatus@@ABV0@@Z 0045c959 f i LIBCMT:undname.obj
 0001:0005b97d       ??HDName@@QBE?AV0@ABV0@@Z  0045c97d f   LIBCMT:undname.obj
 0001:0005b99f       ??HDName@@QBE?AV0@D@Z      0045c99f f   LIBCMT:undname.obj
 0001:0005b9c1       ??HDName@@QBE?AV0@PAV0@@Z  0045c9c1 f   LIBCMT:undname.obj
 0001:0005b9e3       ??HDName@@QBE?AV0@PBD@Z    0045c9e3 f   LIBCMT:undname.obj
 0001:0005ba05       ??HDName@@QBE?AV0@W4DNameStatus@@@Z 0045ca05 f   LIBCMT:undname.obj
 0001:0005ba27       ??YDName@@QAEAAV0@ABV0@@Z  0045ca27 f   LIBCMT:undname.obj
 0001:0005ba6a       ??YDName@@QAEAAV0@D@Z      0045ca6a f   LIBCMT:undname.obj
 0001:0005baba       ??YDName@@QAEAAV0@PAV0@@Z  0045caba f   LIBCMT:undname.obj
 0001:0005bb1f       ??YDName@@QAEAAV0@PBD@Z    0045cb1f f   LIBCMT:undname.obj
 0001:0005bb80       ??YDName@@QAEAAV0@W4DNameStatus@@@Z 0045cb80 f   LIBCMT:undname.obj
 0001:0005bbc0       ??YReplicator@@QAEAAV0@ABVDName@@@Z 0045cbc0 f   LIBCMT:undname.obj
 0001:0005bc0a       ??_5DName@@QAEAAV0@ABV0@@Z 0045cc0a f   LIBCMT:undname.obj
 0001:0005bc26       ?Constructor@_HeapManager@@QAEXP6APAXI@ZP6AXPAX@Z@Z 0045cc26 f i LIBCMT:undname.obj
 0001:0005bc43       ?Destructor@_HeapManager@@QAEXXZ 0045cc43 f i LIBCMT:undname.obj
 0001:0005bc69       ?UScore@UnDecorator@@SAPBDW4Tokens@@@Z 0045cc69 f   LIBCMT:undname.obj
 0001:0005bc86       ?append@DName@@AAEXPAVDNameNode@@@Z 0045cc86 f   LIBCMT:undname.obj
 0001:0005bccc       ?composeDeclaration@UnDecorator@@CA?AVDName@@ABV2@@Z 0045cccc f i LIBCMT:undname.obj
 0001:0005ca02       ?doAccessSpecifiers@UnDecorator@@SAHXZ 0045da02 f i LIBCMT:undname.obj
 0001:0005ca10       ?doAllocationLanguage@UnDecorator@@SAHXZ 0045da10 f i LIBCMT:undname.obj
 0001:0005ca1e       ?doAllocationModel@UnDecorator@@SAHXZ 0045da1e f i LIBCMT:undname.obj
 0001:0005ca2c       ?doEcsu@UnDecorator@@SAHXZ 0045da2c f i LIBCMT:undname.obj
 0001:0005ca3a       ?doEllipsis@UnDecorator@@SAHXZ 0045da3a f i LIBCMT:undname.obj
 0001:0005ca48       ?doFunctionReturns@UnDecorator@@SAHXZ 0045da48 f i LIBCMT:undname.obj
 0001:0005ca56       ?doMSKeywords@UnDecorator@@SAHXZ 0045da56 f i LIBCMT:undname.obj
 0001:0005ca63       ?doMemberTypes@UnDecorator@@SAHXZ 0045da63 f i LIBCMT:undname.obj
 0001:0005ca71       ?doNameOnly@UnDecorator@@SAHXZ 0045da71 f i LIBCMT:undname.obj
 0001:0005ca7c       ?doNoIdentCharCheck@UnDecorator@@SAHXZ 0045da7c f i LIBCMT:undname.obj
 0001:0005ca87       ?doPchar@DName@@AAEXPBDH@Z 0045da87 f   LIBCMT:undname.obj
 0001:0005cb0f       ?doPtr64@UnDecorator@@SAHXZ 0045db0f f i LIBCMT:undname.obj
 0001:0005cb1d       ?doRestrictionSpec@UnDecorator@@SAHXZ 0045db1d f i LIBCMT:undname.obj
 0001:0005cb2b       ?doThisTypes@UnDecorator@@SAHXZ 0045db2b f i LIBCMT:undname.obj
 0001:0005cb3d       ?doThrowTypes@UnDecorator@@SAHXZ 0045db3d f i LIBCMT:undname.obj
 0001:0005cb4b       ?doTypeOnly@UnDecorator@@SAHXZ 0045db4b f i LIBCMT:undname.obj
 0001:0005cb56       ?doUnderScore@UnDecorator@@SAHXZ 0045db56 f i LIBCMT:undname.obj
 0001:0005cb61       ?getArgumentList@UnDecorator@@CA?AVDName@@XZ 0045db61 f   LIBCMT:undname.obj
 0001:0005cc6d       ?getArgumentTypes@UnDecorator@@CA?AVDName@@XZ 0045dc6d f   LIBCMT:undname.obj
 0001:0005cd4b       ?getArrayType@UnDecorator@@CA?AVDName@@ABV2@@Z 0045dd4b f i LIBCMT:undname.obj
 0001:0005cf4d       ?getBasedType@UnDecorator@@CA?AVDName@@XZ 0045df4d f   LIBCMT:undname.obj
 0001:0005cfe4       ?getBasicDataType@UnDecorator@@CA?AVDName@@ABV2@@Z 0045dfe4 f   LIBCMT:undname.obj
 0001:0005d3bb       ?getCallIndex@UnDecorator@@CA?AVDName@@XZ 0045e3bb f i LIBCMT:undname.obj
 0001:0005d3cf       ?getCallingConvention@UnDecorator@@CA?AVDName@@XZ 0045e3cf f   LIBCMT:undname.obj
 0001:0005d48e       ?getDataIndirectType@UnDecorator@@CA?AVDName@@ABV2@PBD0H@Z 0045e48e f   LIBCMT:undname.obj
 0001:0005da2b       ?getDataIndirectType@UnDecorator@@CA?AVDName@@XZ 0045ea2b f i LIBCMT:undname.obj
 0001:0005da64       ?getDataType@UnDecorator@@CA?AVDName@@PAV2@@Z 0045ea64 f   LIBCMT:undname.obj
 0001:0005db36       ?getDecoratedName@UnDecorator@@CA?AVDName@@XZ 0045eb36 f   LIBCMT:undname.obj
 0001:0005dd82       ?getDimension@UnDecorator@@CA?AVDName@@_N@Z 0045ed82 f   LIBCMT:undname.obj
 0001:0005deb9       ?getDispatchTarget@UnDecorator@@CA?AVDName@@XZ 0045eeb9 f   LIBCMT:undname.obj
 0001:0005df14       ?getDisplacement@UnDecorator@@CA?AVDName@@XZ 0045ef14 f i LIBCMT:undname.obj
 0001:0005df28       ?getECSUDataType@UnDecorator@@CA?AVDName@@XZ 0045ef28 f   LIBCMT:undname.obj
 0001:0005e03b       ?getECSUName@UnDecorator@@CA?AVDName@@XZ 0045f03b f i LIBCMT:undname.obj
 0001:0005e04c       ?getEnumType@UnDecorator@@CA?AVDName@@XZ 0045f04c f i LIBCMT:undname.obj
 0001:0005e130       ?getExtendedDataIndirectType@UnDecorator@@CA?AVDName@@AAPBDAA_NH@Z 0045f130 f   LIBCMT:undname.obj
 0001:0005e2d5       ?getExternalDataType@UnDecorator@@CA?AVDName@@ABV2@@Z 0045f2d5 f i LIBCMT:undname.obj
 0001:0005e34e       ?getFunctionIndirectType@UnDecorator@@CA?AVDName@@ABV2@@Z 0045f34e f   LIBCMT:undname.obj
 0001:0005e744       ?getGuardNumber@UnDecorator@@CA?AVDName@@XZ 0045f744 f i LIBCMT:undname.obj
 0001:0005e758       ?getLastChar@DName@@QBEDXZ 0045f758 f i LIBCMT:undname.obj
 0001:0005e766       ?getLastChar@DNameStatusNode@@UBEDXZ 0045f766 f i LIBCMT:undname.obj
 0001:0005e772       ?getLastChar@charNode@@UBEDXZ 0045f772 f i LIBCMT:undname.obj
 0001:0005e776       ?getLastChar@pDNameNode@@UBEDXZ 0045f776 f i LIBCMT:undname.obj
 0001:0005e78b       ?getLastChar@pairNode@@UBEDXZ 0045f78b f i LIBCMT:undname.obj
 0001:0005e7a5       ?getLastChar@pcharNode@@UBEDXZ 0045f7a5 f i LIBCMT:undname.obj
 0001:0005e7b7       ?getLexicalFrame@UnDecorator@@CA?AVDName@@XZ 0045f7b7 f i LIBCMT:undname.obj
 0001:0005e7f4       ?getMemory@_HeapManager@@QAEPAXIH@Z 0045f7f4 f   LIBCMT:undname.obj
 0001:0005e879       ?getNumberOfDimensions@UnDecorator@@CAHXZ 0045f879 f   LIBCMT:undname.obj
 0001:0005e8da       ?getOperatorName@UnDecorator@@CA?AVDName@@_NPA_N@Z 0045f8da f i LIBCMT:undname.obj
 0001:0005eeb4       ?getPointerType@UnDecorator@@CA?AVDName@@ABV2@0@Z 0045feb4 f i LIBCMT:undname.obj
 0001:0005eed2       ?getPointerTypeArray@UnDecorator@@CA?AVDName@@ABV2@0@Z 0045fed2 f i LIBCMT:undname.obj
 0001:0005eef0       ?getPrimaryDataType@UnDecorator@@CA?AVDName@@ABV2@@Z 0045fef0 f   LIBCMT:undname.obj
 0001:0005f0a8       ?getPtrRefDataType@UnDecorator@@CA?AVDName@@ABV2@H@Z 004600a8 f i LIBCMT:undname.obj
 0001:0005f192       ?getPtrRefType@UnDecorator@@CA?AVDName@@ABV2@0PBD@Z 00460192 f   LIBCMT:undname.obj
 0001:0005f28e       ?getReferenceType@UnDecorator@@CA?AVDName@@ABV2@0PBD@Z 0046028e f i LIBCMT:undname.obj
 0001:0005f2aa       ?getRestrictionSpec@UnDecorator@@CA?AVDName@@XZ 004602aa f   LIBCMT:undname.obj
 0001:0005f398       ?getReturnType@UnDecorator@@CA?AVDName@@PAV2@@Z 00460398 f   LIBCMT:undname.obj
 0001:0005f3c7       ?getScope@UnDecorator@@CA?AVDName@@XZ 004603c7 f   LIBCMT:undname.obj
 0001:0005f79e       ?getScopedName@UnDecorator@@CA?AVDName@@XZ 0046079e f   LIBCMT:undname.obj
 0001:0005f899       ?getSignedDimension@UnDecorator@@CA?AVDName@@XZ 00460899 f   LIBCMT:undname.obj
 0001:0005f8ec       ?getStorageConvention@UnDecorator@@CA?AVDName@@XZ 004608ec f i LIBCMT:undname.obj
 0001:0005f8fd       ?getString@DName@@QBEPADPAD0@Z 004608fd f i LIBCMT:undname.obj
 0001:0005f913       ?getString@DName@@QBEPADPADH@Z 00460913 f i LIBCMT:undname.obj
 0001:0005f971       ?getString@DNameStatusNode@@UBEPADPAD0@Z 00460971 f i LIBCMT:undname.obj
 0001:0005f998       ?getString@charNode@@UBEPADPAD0@Z 00460998 f i LIBCMT:undname.obj
 0001:0005f9ad       ?getString@pDNameNode@@UBEPADPAD0@Z 004609ad f i LIBCMT:undname.obj
 0001:0005f9ca       ?getString@pairNode@@UBEPADPAD0@Z 004609ca f i LIBCMT:undname.obj
 0001:0005f9f4       ?getString@pcharNode@@UBEPADPAD0@Z 004609f4 f i LIBCMT:undname.obj
 0001:0005fa0f       ?getStringEncoding@UnDecorator@@CA?AVDName@@PADH@Z 00460a0f f   LIBCMT:undname.obj
 0001:0005fab2       ?getStringHelper@@YAPADPAD00H@Z 00460ab2 f i LIBCMT:undname.obj
 0001:0005fae7       ?getSymbolName@UnDecorator@@CA?AVDName@@XZ 00460ae7 f i LIBCMT:undname.obj
 0001:0005fb2f       ?getTemplateArgumentList@UnDecorator@@CA?AVDName@@XZ 00460b2f f   LIBCMT:undname.obj
 0001:0005fda8       ?getTemplateConstant@UnDecorator@@CA?AVDName@@XZ 00460da8 f   LIBCMT:undname.obj
 0001:000600a3       ?getTemplateName@UnDecorator@@CA?AVDName@@_N@Z 004610a3 f   LIBCMT:undname.obj
 0001:000601fd       ?getThisType@UnDecorator@@CA?AVDName@@XZ 004611fd f i LIBCMT:undname.obj
 0001:00060237       ?getThrowTypes@UnDecorator@@CA?AVDName@@XZ 00461237 f   LIBCMT:undname.obj
 0001:000602c1       ?getTypeEncoding@UnDecorator@@CAHXZ 004612c1 f i LIBCMT:undname.obj
 0001:000607b1       ?getVCallThunkType@UnDecorator@@CA?AVDName@@XZ 004617b1 f i LIBCMT:undname.obj
 0001:000607ec       ?getVbTableType@UnDecorator@@CA?AVDName@@ABV2@@Z 004617ec f i LIBCMT:undname.obj
 0001:00060801       ?getVdispMapType@UnDecorator@@CA?AVDName@@ABV2@@Z 00461801 f i LIBCMT:undname.obj
 0001:00060857       ?getVfTableType@UnDecorator@@CA?AVDName@@ABV2@@Z 00461857 f i LIBCMT:undname.obj
 0001:000609bc       ?getZName@UnDecorator@@CA?AVDName@@_N0@Z 004619bc f   LIBCMT:undname.obj
 0001:00060be6       ?haveTemplateParameters@UnDecorator@@SAHXZ 00461be6 f i LIBCMT:undname.obj
 0001:00060bf1       ?isArray@DName@@QBEHXZ     00461bf1 f i LIBCMT:undname.obj
 0001:00060bfb       ?isComArray@DName@@QBEHXZ  00461bfb f i LIBCMT:undname.obj
 0001:00060c05       ?isEmpty@DName@@QBEHXZ     00461c05 f i LIBCMT:undname.obj
 0001:00060c0d       ?isFull@Replicator@@QBEHXZ 00461c0d f i LIBCMT:undname.obj
 0001:00060c16       ?isNoTE@DName@@QBEHXZ      00461c16 f i LIBCMT:undname.obj
 0001:00060c20       ?isPinPtr@DName@@QBEHXZ    00461c20 f i LIBCMT:undname.obj
 0001:00060c2a       ?isPtrRef@DName@@QBEHXZ    00461c2a f i LIBCMT:undname.obj
 0001:00060c34       ?isUDC@DName@@QBEHXZ       00461c34 f i LIBCMT:undname.obj
 0001:00060c45       ?isUDTThunk@DName@@QBEHXZ  00461c45 f i LIBCMT:undname.obj
 0001:00060c56       ?isVCallThunk@DName@@QBEHXZ 00461c56 f i LIBCMT:undname.obj
 0001:00060c60       ?isValid@DName@@QBEHXZ     00461c60 f i LIBCMT:undname.obj
 0001:00060c6a       ?length@DName@@QBEHXZ      00461c6a f i LIBCMT:undname.obj
 0001:00060c77       ?length@DNameStatusNode@@UBEHXZ 00461c77 f i LIBCMT:undname.obj
 0001:00060c7b       ?length@charNode@@UBEHXZ   00461c7b f i LIBCMT:undname.obj
 0001:00060c7f       ?length@pDNameNode@@UBEHXZ 00461c7f f i LIBCMT:undname.obj
 0001:00060c93       ?length@pairNode@@UBEHXZ   00461c93 f i LIBCMT:undname.obj
 0001:00060cbc       ?length@pcharNode@@UBEHXZ  00461cbc f i LIBCMT:undname.obj
 0001:00060cc0       ?make@DNameStatusNode@@SAPAV1@W4DNameStatus@@@Z 00461cc0 f i LIBCMT:undname.obj
 0001:00060d46       ?setIsArray@DName@@QAEXXZ  00461d46 f i LIBCMT:undname.obj
 0001:00060d4e       ?setIsComArray@DName@@QAEXXZ 00461d4e f i LIBCMT:undname.obj
 0001:00060d56       ?setIsNoTE@DName@@QAEXXZ   00461d56 f i LIBCMT:undname.obj
 0001:00060d5e       ?setIsPinPtr@DName@@QAEXXZ 00461d5e f i LIBCMT:undname.obj
 0001:00060d66       ?setIsUDC@DName@@QAEXXZ    00461d66 f i LIBCMT:undname.obj
 0001:00060d73       ?setIsVCallThunk@DName@@QAEXXZ 00461d73 f i LIBCMT:undname.obj
 0001:00060d7b       ?setPtrRef@DName@@QAEAAV1@XZ 00461d7b f i LIBCMT:undname.obj
 0001:00060d85       ?status@DName@@QBE?AW4DNameStatus@@XZ 00461d85 f i LIBCMT:undname.obj
 0001:00060ded       ___unDName                 00461ded f   LIBCMT:undname.obj
 0001:00060e90       ___unDNameEx               00461e90 f   LIBCMT:undname.obj
 0001:00060f31       __VEC_memset               00461f31 f   LIBCMT:p4_memset.obj
 0001:00060ff9       __mbstowcs_l               00461ff9 f   LIBCMT:mbstowcs.obj
 0001:00061002       __mbstowcs_l_helper        00462002 f   LIBCMT:mbstowcs.obj
 0001:00061163       __mbstowcs_s_l             00462163 f   LIBCMT:mbstowcs.obj
 0001:00061241       _mbstowcs                  00462241 f   LIBCMT:mbstowcs.obj
 0001:00061269       _mbstowcs_s                00462269 f   LIBCMT:mbstowcs.obj
 0001:00061287       ___wtomb_environ           00462287 f   LIBCMT:wtombenv.obj
 0001:00061316       __mbsnbicoll               00462316 f   LIBCMT:mbsnbico.obj
 0001:0006132e       __mbsnbicoll_l             0046232e f   LIBCMT:mbsnbico.obj
 0001:000613e4       __filbuf                   004623e4 f   LIBCMT:_filbuf.obj
 0001:00061505       __ungetc_nolock            00462505 f   LIBCMT:ungetc.obj
 0001:000615e5       _ungetc                    004625e5 f   LIBCMT:ungetc.obj
 0001:00061655       ___isascii                 00462655 f i LIBCMT:_ctype.obj
 0001:00061665       ___iscsym                  00462665 f i LIBCMT:_ctype.obj
 0001:00061685       ___iscsymf                 00462685 f i LIBCMT:_ctype.obj
 0001:000616a2       ___toascii                 004626a2 f i LIBCMT:_ctype.obj
 0001:000616ad       __isalnum_l                004626ad f i LIBCMT:_ctype.obj
 0001:00061705       __isalpha_l                00462705 f i LIBCMT:_ctype.obj
 0001:0006175d       __isblank_l                0046275d f i LIBCMT:_ctype.obj
 0001:000617b7       __iscntrl_l                004627b7 f i LIBCMT:_ctype.obj
 0001:00061809       __iscsym_l                 00462809 f i LIBCMT:_ctype.obj
 0001:0006182a       __iscsymf_l                0046282a f i LIBCMT:_ctype.obj
 0001:0006184b       __isdigit_l                0046284b f i LIBCMT:_ctype.obj
 0001:0006189d       __isgraph_l                0046289d f i LIBCMT:_ctype.obj
 0001:000618f5       __islower_l                004628f5 f i LIBCMT:_ctype.obj
 0001:00061947       __isprint_l                00462947 f i LIBCMT:_ctype.obj
 0001:0006199f       __ispunct_l                0046299f f i LIBCMT:_ctype.obj
 0001:000619f1       __isspace_l                004629f1 f i LIBCMT:_ctype.obj
 0001:00061a43       __isupper_l                00462a43 f i LIBCMT:_ctype.obj
 0001:00061a95       __isxdigit_l               00462a95 f i LIBCMT:_ctype.obj
 0001:00061aed       _isalnum                   00462aed f i LIBCMT:_ctype.obj
 0001:00061b1a       _isalpha                   00462b1a f i LIBCMT:_ctype.obj
 0001:00061b47       _isblank                   00462b47 f i LIBCMT:_ctype.obj
 0001:00061b7c       _iscntrl                   00462b7c f i LIBCMT:_ctype.obj
 0001:00061ba7       _isdigit                   00462ba7 f i LIBCMT:_ctype.obj
 0001:00061bd2       _isgraph                   00462bd2 f i LIBCMT:_ctype.obj
 0001:00061bff       _islower                   00462bff f i LIBCMT:_ctype.obj
 0001:00061c2a       _isprint                   00462c2a f i LIBCMT:_ctype.obj
 0001:00061c57       _ispunct                   00462c57 f i LIBCMT:_ctype.obj
 0001:00061c82       _isspace                   00462c82 f i LIBCMT:_ctype.obj
 0001:00061cad       _isupper                   00462cad f i LIBCMT:_ctype.obj
 0001:00061cd8       _isxdigit                  00462cd8 f i LIBCMT:_ctype.obj
 0001:00061d05       __mbtowc_l                 00462d05 f   LIBCMT:mbtowc.obj
 0001:00061dfa       _mbtowc                    00462dfa f   LIBCMT:mbtowc.obj
 0001:00061e12       __iswctype_l               00462e12 f   LIBCMT:iswctype.obj
 0001:00061e24       _is_wctype                 00462e24 f   LIBCMT:iswctype.obj
 0001:00061e2d       _iswctype                  00462e2d f   LIBCMT:iswctype.obj
 0001:00061e83       ___crtLCMapStringW         00462e83 f   LIBCMT:w_map.obj
 0001:00061ec0       __global_unwind2           00462ec0 f   LIBCMT:exsup.obj
 0001:00061f25       __local_unwind2            00462f25 f   LIBCMT:exsup.obj
 0001:00061fa9       __abnormal_termination     00462fa9 f   LIBCMT:exsup.obj
 0001:00061fcc       __NLG_Notify1              00462fcc f   LIBCMT:exsup.obj
 0001:00061fd5       __NLG_Notify               00462fd5 f   LIBCMT:exsup.obj
 0001:00061fec       __NLG_Dispatch2            00462fec     LIBCMT:exsup.obj
 0001:00061fec       __NLG_Dispatch             00462fec     LIBCMT:exsup.obj
 0001:00061ff4       __NLG_Call                 00462ff4 f   LIBCMT:exsup.obj
 0001:00061ff6       __NLG_Return2              00462ff6     LIBCMT:exsup.obj
 0001:00061ff7       __close                    00462ff7 f   LIBCMT:close.obj
 0001:000620d2       __close_nolock             004630d2 f   LIBCMT:close.obj
 0001:0006216c       __freebuf                  0046316c f   LIBCMT:_freebuf.obj
 0001:0006219c       ___lock_fhandle            0046319c f   LIBCMT:osfinfo.obj
 0001:0006222a       __alloc_osfhnd             0046322a f   LIBCMT:osfinfo.obj
 0001:000623d3       __free_osfhnd              004633d3 f   LIBCMT:osfinfo.obj
 0001:00062459       __get_osfhandle            00463459 f   LIBCMT:osfinfo.obj
 0001:000624c0       __open_osfhandle           004634c0 f   LIBCMT:osfinfo.obj
 0001:000625d6       __set_osfhnd               004635d6 f   LIBCMT:osfinfo.obj
 0001:00062658       __unlock_fhandle           00463658 f   LIBCMT:osfinfo.obj
 0001:0006267e       __putwch                   0046367e f   LIBCMT:putwch.obj
 0001:000626ca       __putwch_nolock            004636ca f   LIBCMT:putwch.obj
 0001:00062829       __i64tow_s                 00463829 f   LIBCMT:xtows.obj
 0001:0006285a       __itow_s                   0046385a f   LIBCMT:xtows.obj
 0001:00062883       __ltow_s                   00463883 f   LIBCMT:xtows.obj
 0001:000628ad       __ui64tow_s                004638ad f   LIBCMT:xtows.obj
 0001:000628c8       __ultow_s                  004638c8 f   LIBCMT:xtows.obj
 0001:000629d3       __wtoi                     004639d3 f   LIBCMT:wtox.obj
 0001:000629dc       __wtoi64                   004639dc f   LIBCMT:wtox.obj
 0001:000629f0       __wtoi64_l                 004639f0 f   LIBCMT:wtox.obj
 0001:00062a07       __wtoi_l                   00463a07 f   LIBCMT:wtox.obj
 0001:00062a10       __wtol                     00463a10 f   LIBCMT:wtox.obj
 0001:00062a24       __wtol_l                   00463a24 f   LIBCMT:wtox.obj
 0001:00062a3b       __wtoll                    00463a3b f   LIBCMT:wtox.obj
 0001:00062a4f       __wtoll_l                  00463a4f f   LIBCMT:wtox.obj
 0001:00062a66       _wcschr                    00463a66 f   LIBCMT:wcschr.obj
 0001:00062b14       __wcsnicmp                 00463b14 f   LIBCMT:wcsnicmp.obj
 0001:00062bca       __wcsnicmp_l               00463bca f   LIBCMT:wcsnicmp.obj
 0001:00062cc3       __fltin2                   00463cc3 f   LIBCMT:cfin.obj
 0001:00062d70       __CopyMan                  00463d70 f i LIBCMT:intrncvt.obj
 0001:00062d8d       __FillZeroMan              00463d8d f i LIBCMT:intrncvt.obj
 0001:00062d9c       __IncMan                   00463d9c f i LIBCMT:intrncvt.obj
 0001:00062dfe       __IsZeroMan                00463dfe f i LIBCMT:intrncvt.obj
 0001:00062e1b       __RoundMan                 00463e1b f i LIBCMT:intrncvt.obj
 0001:00062f1c       __ShrMan                   00463f1c f i LIBCMT:intrncvt.obj
 0001:00062faa       __ZeroTail                 00463faa f i LIBCMT:intrncvt.obj
 0001:00062ff2       ___addl                    00463ff2 f i LIBCMT:intrncvt.obj
 0001:00063016       __ld12cvt                  00464016 f i LIBCMT:intrncvt.obj
 0001:00063581       __ld12tod                  00464581 f   LIBCMT:intrncvt.obj
 0001:00063af3       __ld12tof                  00464af3 f   LIBCMT:intrncvt.obj
 0001:00064065       __ld12told                 00465065 f   LIBCMT:intrncvt.obj
 0001:00064134       ___STRINGTOLD_L            00465134 f   LIBCMT:strgtold.obj
 0001:0006418f       ___ld12mul                 0046518f f i LIBCMT:strgtold.obj
 0001:0006445b       ___multtenpow12            0046545b f i LIBCMT:strgtold.obj
 0001:000647ae       ___shl_12                  004657ae f i LIBCMT:strgtold.obj
 0001:000647df       ___shr_12                  004657df f i LIBCMT:strgtold.obj
 0001:0006480f       ___strgtold12_l            0046580f f   LIBCMT:strgtold.obj
 0001:00064fb7       ?strrchr@@YAPADPADH@Z      00465fb7 f i LIBCMT:cvt.obj
 0001:00064fc0       __cfltcvt                  00465fc0 f   LIBCMT:cvt.obj
 0001:00064fe1       __cfltcvt_l                00465fe1 f   LIBCMT:cvt.obj
 0001:00065067       __cftoa                    00466067 f   LIBCMT:cvt.obj
 0001:00065085       __cftoa_l                  00466085 f   LIBCMT:cvt.obj
 0001:000653e1       __cftoe                    004663e1 f   LIBCMT:cvt.obj
 0001:00065550       __cftoe_l                  00466550 f   LIBCMT:cvt.obj
 0001:0006561e       __cftof                    0046661e f   LIBCMT:cvt.obj
 0001:00065725       __cftof_l                  00466725 f   LIBCMT:cvt.obj
 0001:000657e6       __cftog                    004667e6 f   LIBCMT:cvt.obj
 0001:00065804       __cftog_l                  00466804 f   LIBCMT:cvt.obj
 0001:00065903       __cropzeros                00466903 f   LIBCMT:cvt.obj
 0001:00065914       __cropzeros_l              00466914 f   LIBCMT:cvt.obj
 0001:00065994       __fassign                  00466994 f   LIBCMT:cvt.obj
 0001:000659ac       __fassign_l                004669ac f   LIBCMT:cvt.obj
 0001:000659ee       __forcdecpt                004669ee f   LIBCMT:cvt.obj
 0001:000659ff       __forcdecpt_l              004669ff f   LIBCMT:cvt.obj
 0001:00065a73       __positive                 00466a73 f   LIBCMT:cvt.obj
 0001:00065ab5       __setdefaultprecision      00466ab5 f   LIBCMT:fp8.obj
 0001:00065adc       ___crtsetenv               00466adc f   LIBCMT:setenv.obj
 0001:00065ddf       __strnicoll                00466ddf f   LIBCMT:strnicol.obj
 0001:00065e06       __strnicoll_l              00466e06 f   LIBCMT:strnicol.obj
 0001:0006616f       ___crtCompareStringA       0046716f f   LIBCMT:a_cmp.obj
 0001:000661b2       __read                     004671b2 f   LIBCMT:read.obj
 0001:000662c6       __read_nolock              004672c6 f   LIBCMT:read.obj
 0001:00066a57       ___termconout              00467a57 f   LIBCMT:initcon.obj
 0001:00066a6e       ___initconout              00467a6e f   LIBCMT:initcon.obj
 0001:00066c6e       __wcstol_l                 00467c6e f   LIBCMT:wcstol.obj
 0001:00066c86       __wcstoul_l                00467c86 f   LIBCMT:wcstol.obj
 0001:00066c9e       _wcstol                    00467c9e f   LIBCMT:wcstol.obj
 0001:00066cb6       _wcstoul                   00467cb6 f   LIBCMT:wcstol.obj
 0001:00066f9e       __wcstof_l                 00467f9e f   LIBCMT:wcstoq.obj
 0001:00067051       __wcstoi64                 00468051 f   LIBCMT:wcstoq.obj
 0001:0006707b       __wcstoi64_l               0046807b f   LIBCMT:wcstoq.obj
 0001:00067096       __wcstoimax_l              00468096 f   LIBCMT:wcstoq.obj
 0001:0006709f       __wcstold_l                0046809f f   LIBCMT:wcstoq.obj
 0001:000670a8       __wcstoll_l                004680a8 f   LIBCMT:wcstoq.obj
 0001:000670b1       __wcstoui64                004680b1 f   LIBCMT:wcstoq.obj
 0001:000670db       __wcstoui64_l              004680db f   LIBCMT:wcstoq.obj
 0001:000670f6       __wcstoull_l               004680f6 f   LIBCMT:wcstoq.obj
 0001:000670ff       __wcstoumax_l              004680ff f   LIBCMT:wcstoq.obj
 0001:00067108       _wcstof                    00468108 f   LIBCMT:wcstoq.obj
 0001:0006711d       _wcstoimax                 0046811d f   LIBCMT:wcstoq.obj
 0001:00067126       _wcstold                   00468126 f   LIBCMT:wcstoq.obj
 0001:0006712f       _wcstoll                   0046812f f   LIBCMT:wcstoq.obj
 0001:00067138       _wcstoull                  00468138 f   LIBCMT:wcstoq.obj
 0001:00067141       _wcstoumax                 00468141 f   LIBCMT:wcstoq.obj
 0001:0006714a       ___add_12                  0046814a f i LIBCMT:mantold.obj
 0001:000671bc       ___mtold12                 004681bc f   LIBCMT:mantold.obj
 0001:000673a0       _strrchr                   004683a0 f   LIBCMT:strrchr.obj
 0001:000674d7       __fptostr                  004684d7 f   LIBCMT:_fptostr.obj
 0001:00067587       ___dtold                   00468587 f   LIBCMT:cfout.obj
 0001:0006764f       __fltout2                  0046864f f   LIBCMT:cfout.obj
 0001:000676e0       __alldvrm                  004686e0 f   LIBCMT:lldvrm.obj
 0001:000677c0       __aullshr                  004687c0 f   LIBCMT:ullshr.obj
 0001:000677df       __get_output_format        004687df f   LIBCMT:outputformat.obj
 0001:000677e5       __set_output_format        004687e5 f   LIBCMT:outputformat.obj
 0001:00067817       __controlfp_s              00468817 f   LIBCMT:contrlfp.obj
 0001:00067874       __strdup                   00468874 f   LIBCMT:strdup.obj
 0001:000678c4       __mbschr                   004688c4 f   LIBCMT:mbschr.obj
 0001:000678d9       __mbschr_l                 004688d9 f   LIBCMT:mbschr.obj
 0001:00067976       __wchartodigit             00468976 f   LIBCMT:wchtodig.obj
 0001:00067b15       __wcstod_l                 00468b15 f   LIBCMT:wcstod.obj
 0001:00067c10       _wcstod                    00468c10 f   LIBCMT:wcstod.obj
 0001:00067c25       _$I10_OUTPUT               00468c25 f   LIBCMT:x10fout.obj
 0001:00068733       ___control87_2             00469733 f   LIBCMT:ieee87.obj
 0001:00068da7       __clearfp                  00469da7 f   LIBCMT:ieee87.obj
 0001:00068e87       __control87                00469e87 f i LIBCMT:ieee87.obj
 0001:00069189       __controlfp                0046a189 f   LIBCMT:ieee87.obj
 0001:00069494       __fpreset                  0046a494 f   LIBCMT:ieee87.obj
 0001:00069561       __set_controlfp            0046a561 f   LIBCMT:ieee87.obj
 0001:000695d4       __statusfp                 0046a5d4 f   LIBCMT:ieee87.obj
 0001:0006966e       __statusfp2                0046a66e f   LIBCMT:ieee87.obj
 0001:000696cd       __wfltin2                  0046a6cd f   LIBCMT:wcfin.obj
 0001:00069776       ___clrfp_sse2              0046a776 f   LIBCMT:fpctrl.obj
 0001:00069797       ___ctrlfp_sse2             0046a797 f   LIBCMT:fpctrl.obj
 0001:000697d0       ___fclrf_sse2              0046a7d0 f   LIBCMT:fpctrl.obj
 0001:000697ed       ___get_fpsr_sse2           0046a7ed f   LIBCMT:fpctrl.obj
 0001:00069809       ___set_fpsr_sse2           0046a809 f   LIBCMT:fpctrl.obj
 0001:0006987f       ___set_statfp_sse2         0046a87f f   LIBCMT:fpctrl.obj
 0001:00069898       ___statfp_sse2             0046a898 f   LIBCMT:fpctrl.obj
 0001:000698ad       __clrfp                    0046a8ad f   LIBCMT:fpctrl.obj
 0001:000698be       __ctrlfp                   0046a8be f   LIBCMT:fpctrl.obj
 0001:000698e9       __set_statfp               0046a8e9 f   LIBCMT:fpctrl.obj
 0001:00069941       __statfp                   0046a941 f   LIBCMT:fpctrl.obj
 0001:00069951       ___WSTRINGTOLD_L           0046a951 f   LIBCMT:wstrgtold.obj
 0001:000699ac       ___wstrgtold12_l           0046a9ac f   LIBCMT:wstrgtold.obj
 0001:0006a1fc       _GetAdaptersAddresses@20   0046b1fc f   iphlpapi:IPHLPAPI.DLL
 0001:0006a202       _ConvertLengthToIpv4Mask@8 0046b202 f   iphlpapi:IPHLPAPI.DLL
 0001:0006a208       _EncodePointer@4           0046b208 f   kernel32:KERNEL32.dll
 0001:0006a20e       _DecodePointer@4           0046b20e f   kernel32:KERNEL32.dll
 0001:0006a214       _ExitProcess@4             0046b214 f   kernel32:KERNEL32.dll
 0001:0006a21a       _GetModuleHandleExW@12     0046b21a f   kernel32:KERNEL32.dll
 0001:0006a220       _GetProcAddress@8          0046b220 f   kernel32:KERNEL32.dll
 0001:0006a226       _AreFileApisANSI@0         0046b226 f   kernel32:KERNEL32.dll
 0001:0006a22c       _MultiByteToWideChar@24    0046b22c f   kernel32:KERNEL32.dll
 0001:0006a232       _WideCharToMultiByte@32    0046b232 f   kernel32:KERNEL32.dll
 0001:0006a238       _GetDriveTypeW@4           0046b238 f   kernel32:KERNEL32.dll
 0001:0006a23e       _GetFullPathNameA@16       0046b23e f   kernel32:KERNEL32.dll
 0001:0006a244       _SetEnvironmentVariableA@8 0046b244 f   kernel32:KERNEL32.dll
 0001:0006a24a       _SetCurrentDirectoryA@4    0046b24a f   kernel32:KERNEL32.dll
 0001:0006a250       _GetCurrentDirectoryA@8    0046b250 f   kernel32:KERNEL32.dll
 0001:0006a256       _GetCommandLineA@0         0046b256 f   kernel32:KERNEL32.dll
 0001:0006a25c       _IsDebuggerPresent@0       0046b25c f   kernel32:KERNEL32.dll
 0001:0006a262       _IsProcessorFeaturePresent@4 0046b262 f   kernel32:KERNEL32.dll
 0001:0006a268       _GetSystemTimeAsFileTime@4 0046b268 f   kernel32:KERNEL32.dll
 0001:0006a26e       _GetTimeZoneInformation@4  0046b26e f   kernel32:KERNEL32.dll
 0001:0006a274       _FatalAppExitA@8           0046b274 f   kernel32:KERNEL32.dll
 0001:0006a27a       _UnhandledExceptionFilter@4 0046b27a f   kernel32:KERNEL32.dll
 0001:0006a280       _SetLastError@4            0046b280 f   kernel32:KERNEL32.dll
 0001:0006a286       _InitializeCriticalSectionAndSpinCount@8 0046b286 f   kernel32:KERNEL32.dll
 0001:0006a28c       _TerminateProcess@8        0046b28c f   kernel32:KERNEL32.dll
 0001:0006a292       _TlsAlloc@0                0046b292 f   kernel32:KERNEL32.dll
 0001:0006a298       _TlsGetValue@4             0046b298 f   kernel32:KERNEL32.dll
 0001:0006a29e       _TlsSetValue@8             0046b29e f   kernel32:KERNEL32.dll
 0001:0006a2a4       _TlsFree@4                 0046b2a4 f   kernel32:KERNEL32.dll
 0001:0006a2aa       _GetStartupInfoW@4         0046b2aa f   kernel32:KERNEL32.dll
 0001:0006a2b0       _GetTickCount@0            0046b2b0 f   kernel32:KERNEL32.dll
 0001:0006a2b6       _GetModuleHandleW@4        0046b2b6 f   kernel32:KERNEL32.dll
 0001:0006a2bc       _CreateSemaphoreW@16       0046b2bc f   kernel32:KERNEL32.dll
 0001:0006a2c2       _GetStdHandle@4            0046b2c2 f   kernel32:KERNEL32.dll
 0001:0006a2c8       _GetModuleFileNameW@12     0046b2c8 f   kernel32:KERNEL32.dll
 0001:0006a2ce       _HeapFree@12               0046b2ce f   kernel32:KERNEL32.dll
 0001:0006a2d4       _SetConsoleCtrlHandler@8   0046b2d4 f   kernel32:KERNEL32.dll
 0001:0006a2da       _FreeLibrary@4             0046b2da f   kernel32:KERNEL32.dll
 0001:0006a2e0       _LoadLibraryExW@12         0046b2e0 f   kernel32:KERNEL32.dll
 0001:0006a2e6       _IsValidCodePage@4         0046b2e6 f   kernel32:KERNEL32.dll
 0001:0006a2ec       _GetACP@0                  0046b2ec f   kernel32:KERNEL32.dll
 0001:0006a2f2       _GetOEMCP@0                0046b2f2 f   kernel32:KERNEL32.dll
 0001:0006a2f8       _GetCPInfo@8               0046b2f8 f   kernel32:KERNEL32.dll
 0001:0006a2fe       _SetCurrentDirectoryW@4    0046b2fe f   kernel32:KERNEL32.dll
 0001:0006a304       _GetCurrentDirectoryW@8    0046b304 f   kernel32:KERNEL32.dll
 0001:0006a30a       _GetFileType@4             0046b30a f   kernel32:KERNEL32.dll
 0001:0006a310       _GetCurrentThread@0        0046b310 f   kernel32:KERNEL32.dll
 0001:0006a316       _GetCurrentThreadId@0      0046b316 f   kernel32:KERNEL32.dll
 0001:0006a31c       _GetProcessHeap@0          0046b31c f   kernel32:KERNEL32.dll
 0001:0006a322       _GetCurrentProcessId@0     0046b322 f   kernel32:KERNEL32.dll
 0001:0006a328       _GetEnvironmentStringsW@0  0046b328 f   kernel32:KERNEL32.dll
 0001:0006a32e       _FreeEnvironmentStringsW@4 0046b32e f   kernel32:KERNEL32.dll
 0001:0006a334       _HeapAlloc@12              0046b334 f   kernel32:KERNEL32.dll
 0001:0006a33a       _RaiseException@16         0046b33a f   kernel32:KERNEL32.dll
 0001:0006a340       _HeapSize@12               0046b340 f   kernel32:KERNEL32.dll
 0001:0006a346       _MoveFileExW@12            0046b346 f   kernel32:KERNEL32.dll
 0001:0006a34c       _HeapReAlloc@16            0046b34c f   kernel32:KERNEL32.dll
 0001:0006a352       _GetDateFormatW@24         0046b352 f   kernel32:KERNEL32.dll
 0001:0006a358       _GetTimeFormatW@24         0046b358 f   kernel32:KERNEL32.dll
 0001:0006a35e       _CompareStringW@24         0046b35e f   kernel32:KERNEL32.dll
 0001:0006a364       _LCMapStringW@24           0046b364 f   kernel32:KERNEL32.dll
 0001:0006a36a       _GetLocaleInfoW@16         0046b36a f   kernel32:KERNEL32.dll
 0001:0006a370       _IsValidLocale@8           0046b370 f   kernel32:KERNEL32.dll
 0001:0006a376       _GetUserDefaultLCID@0      0046b376 f   kernel32:KERNEL32.dll
 0001:0006a37c       _EnumSystemLocalesW@8      0046b37c f   kernel32:KERNEL32.dll
 0001:0006a382       _RtlUnwind@16              0046b382 f   kernel32:KERNEL32.dll
 0001:0006a388       _GetStringTypeW@16         0046b388 f   kernel32:KERNEL32.dll
 0001:0006a38e       _GetConsoleCP@0            0046b38e f   kernel32:KERNEL32.dll
 0001:0006a394       _GetConsoleMode@8          0046b394 f   kernel32:KERNEL32.dll
 0001:0006a39a       _SetFilePointerEx@20       0046b39a f   kernel32:KERNEL32.dll
 0001:0006a3a0       _SetStdHandle@8            0046b3a0 f   kernel32:KERNEL32.dll
 0001:0006a3a6       _WriteConsoleW@20          0046b3a6 f   kernel32:KERNEL32.dll
 0001:0006a3ac       _ReadConsoleW@20           0046b3ac f   kernel32:KERNEL32.dll
 0001:0006a3b2       _CreateFileW@28            0046b3b2 f   kernel32:KERNEL32.dll
 0001:0006a488       ?_CallCatchBlock2@@YAPAXPAUEHRegistrationNode@@PBU_s_FuncInfo@@PAXHK@Z 0046b488 f   LIBCMT:_trnsctrl_.obj
 0001:0006a4e8       ?_CallMemberFunction0@@YGXPAX0@Z 0046b4e8 f   LIBCMT:_trnsctrl_.obj
 0001:0006a4ef       ?_CallMemberFunction1@@YGXPAX00@Z 0046b4ef f   LIBCMT:_trnsctrl_.obj
 0001:0006a4f6       ?_CallMemberFunction2@@YGXPAX00H@Z 0046b4f6 f   LIBCMT:_trnsctrl_.obj
 0001:0006a4fd       ?_CallSETranslator@@YAHPAUEHExceptionRecord@@PAUEHRegistrationNode@@PAX2PBU_s_FuncInfo@@H1@Z 0046b4fd f   LIBCMT:_trnsctrl_.obj
 0001:0006a5d4       ?_GetRangeOfTrysToCheck@@YAPBU_s_TryBlockMapEntry@@PBU_s_FuncInfo@@HHPAI1@Z 0046b5d4 f   LIBCMT:_trnsctrl_.obj
 0001:0006a652       ?_JumpToContinuation@@YGXPAXPAUEHRegistrationNode@@@Z 0046b652 f   LIBCMT:_trnsctrl_.obj
 0001:0006a684       ?_UnwindNestedFrames@@YGXPAUEHRegistrationNode@@PAUEHExceptionRecord@@@Z 0046b684 f   LIBCMT:_trnsctrl_.obj
 0001:0006a6d9       __CreateFrameInfo          0046b6d9 f   LIBCMT:_trnsctrl_.obj
 0001:0006a703       __FindAndUnlinkFrame       0046b703 f   LIBCMT:_trnsctrl_.obj
 0001:0006a753       __IsExceptionObjectToBeDestroyed 0046b753 f   LIBCMT:_trnsctrl_.obj
 0001:0006a77c       ___CxxFrameHandler         0046b77c f   LIBCMT:_trnsctrl_.obj
 0001:0006a7b2       ___CxxFrameHandler2        0046b7b2 f   LIBCMT:_trnsctrl_.obj
 0001:0006a7e8       ___CxxFrameHandler3        0046b7e8 f   LIBCMT:_trnsctrl_.obj
 0001:0006a81e       ___CxxLongjmpUnwind@4      0046b81e f   LIBCMT:_trnsctrl_.obj
 0001:0006a840       __aullrem                  0046b840 f   LIBCMT:ullrem.obj
 0001:0006a8c0       __CallSettingFrame@12      0046b8c0 f   LIBCMT:lowhelpr.obj
 0001:0006a8e7       __NLG_Return               0046b8e7     LIBCMT:lowhelpr.obj
 0001:0006a90c       ___DestructExceptionObject 0046b90c f   LIBCMT:frame.obj
 0001:0006a997       ??0bad_exception@std@@QAE@ABV01@@Z 0046b997 f i LIBCMT:frame.obj
 0001:0006a9b2       ??0bad_exception@std@@QAE@PBD@Z 0046b9b2 f i LIBCMT:frame.obj
 0001:0006a9ce       ??1bad_exception@std@@UAE@XZ 0046b9ce f i LIBCMT:frame.obj
 0001:0006a9d9       ??_Gbad_exception@std@@UAEPAXI@Z 0046b9d9 f i LIBCMT:frame.obj
 0001:0006a9d9       ??_Ebad_exception@std@@UAEPAXI@Z 0046b9d9 f i LIBCMT:frame.obj
 0001:0006b246       ?__uncaught_exception@@YA_NXZ 0046c246 f   LIBCMT:frame.obj
 0001:0006b257       ?_is_exception_typeof@@YAHABVtype_info@@PAU_EXCEPTION_POINTERS@@@Z 0046c257 f   LIBCMT:frame.obj
 0001:0006b2de       __SetWinRTOutOfMemoryExceptionCallback 0046c2de f   LIBCMT:frame.obj
 0001:0006b2eb       ___AdjustPointer           0046c2eb f   LIBCMT:frame.obj
 0001:0006b310       ___BuildCatchObject        0046c310 f   LIBCMT:frame.obj
 0001:0006b39e       ___BuildCatchObjectHelper  0046c39e f   LIBCMT:frame.obj
 0001:0006b560       ___CxxDetectRethrow        0046c560 f   LIBCMT:frame.obj
 0001:0006b5af       ___CxxExceptionFilter      0046c5af f   LIBCMT:frame.obj
 0001:0006b709       ___CxxQueryExceptionSize   0046c709 f   LIBCMT:frame.obj
 0001:0006b70d       ___CxxRegisterExceptionObject 0046c70d f   LIBCMT:frame.obj
 0001:0006b7c4       ___CxxUnregisterExceptionObject 0046c7c4 f   LIBCMT:frame.obj
 0001:0006b901       ___FrameUnwindFilter       0046c901 f   LIBCMT:frame.obj
 0001:0006b94f       ___FrameUnwindToState      0046c94f f   LIBCMT:frame.obj
 0001:0006ba28       ___GetPlatformExceptionInfo 0046ca28 f   LIBCMT:frame.obj
 0001:0006ba7d       ___InternalCxxFrameHandler 0046ca7d f   LIBCMT:frame.obj
 0001:0006bb5e       ___TypeMatch               0046cb5e f   LIBCMT:frame.obj
 0001:0006bbc5       ?_ValidateExecute@@YAHP6GHXZ@Z 0046cbc5 f   LIBCMT:validate.obj
 0001:0006bbd4       ?_ValidateRead@@YAHPBXI@Z  0046cbd4 f   LIBCMT:validate.obj
 0001:0006bbe3       ?_ValidateWrite@@YAHPAXI@Z 0046cbe3 f   LIBCMT:validate.obj
 0001:0006bbf2       __EH_epilog3               0046cbf2 f   LIBCMT:ehprolg3.obj
 0001:0006bc06       __EH_epilog3_GS            0046cc06 f   LIBCMT:ehprolg3.obj
 0001:0006bc15       __EH_epilog3_catch_GS      0046cc15 f   LIBCMT:ehprolg3.obj
 0001:0006bc24       __EH_prolog3               0046cc24 f   LIBCMT:ehprolg3.obj
 0001:0006bc57       __EH_prolog3_GS            0046cc57 f   LIBCMT:ehprolg3.obj
 0001:0006bc8d       __EH_prolog3_catch         0046cc8d f   LIBCMT:ehprolg3.obj
 0001:0006bcc3       __EH_prolog3_catch_GS      0046ccc3 f   LIBCMT:ehprolg3.obj
 0002:00000000       __imp__LookupPrivilegeValueW@12 00473000     advapi32:ADVAPI32.dll
 0002:00000004       __imp__AdjustTokenPrivileges@24 00473004     advapi32:ADVAPI32.dll
 0002:00000008       __imp__OpenProcessToken@12 00473008     advapi32:ADVAPI32.dll
 0002:0000000c       \177ADVAPI32_NULL_THUNK_DATA 0047300c     advapi32:ADVAPI32.dll
 0002:00000010       __imp__GetAdaptersAddresses@20 00473010     iphlpapi:IPHLPAPI.DLL
 0002:00000014       __imp__ConvertLengthToIpv4Mask@8 00473014     iphlpapi:IPHLPAPI.DLL
 0002:00000018       \177IPHLPAPI_NULL_THUNK_DATA 00473018     iphlpapi:IPHLPAPI.DLL
 0002:0000001c       __imp__GetStringTypeW@16   0047301c     kernel32:KERNEL32.dll
 0002:00000020       __imp__RtlUnwind@16        00473020     kernel32:KERNEL32.dll
 0002:00000024       __imp__EnumSystemLocalesW@8 00473024     kernel32:KERNEL32.dll
 0002:00000028       __imp__GetUserDefaultLCID@0 00473028     kernel32:KERNEL32.dll
 0002:0000002c       __imp__IsValidLocale@8     0047302c     kernel32:KERNEL32.dll
 0002:00000030       __imp__GetLocaleInfoW@16   00473030     kernel32:KERNEL32.dll
 0002:00000034       __imp__LCMapStringW@24     00473034     kernel32:KERNEL32.dll
 0002:00000038       __imp__CompareStringW@24   00473038     kernel32:KERNEL32.dll
 0002:0000003c       __imp__GetTimeFormatW@24   0047303c     kernel32:KERNEL32.dll
 0002:00000040       __imp__GetDateFormatW@24   00473040     kernel32:KERNEL32.dll
 0002:00000044       __imp__HeapReAlloc@16      00473044     kernel32:KERNEL32.dll
 0002:00000048       __imp__MoveFileExW@12      00473048     kernel32:KERNEL32.dll
 0002:0000004c       __imp__HeapSize@12         0047304c     kernel32:KERNEL32.dll
 0002:00000050       __imp__RaiseException@16   00473050     kernel32:KERNEL32.dll
 0002:00000054       __imp__HeapAlloc@12        00473054     kernel32:KERNEL32.dll
 0002:00000058       __imp__FreeEnvironmentStringsW@4 00473058     kernel32:KERNEL32.dll
 0002:0000005c       __imp__GetEnvironmentStringsW@0 0047305c     kernel32:KERNEL32.dll
 0002:00000060       __imp__GetCurrentProcessId@0 00473060     kernel32:KERNEL32.dll
 0002:00000064       __imp__GetProcessHeap@0    00473064     kernel32:KERNEL32.dll
 0002:00000068       __imp__GetCurrentThreadId@0 00473068     kernel32:KERNEL32.dll
 0002:0000006c       __imp__GetCurrentThread@0  0047306c     kernel32:KERNEL32.dll
 0002:00000070       __imp__GetFileType@4       00473070     kernel32:KERNEL32.dll
 0002:00000074       __imp__GetCurrentDirectoryW@8 00473074     kernel32:KERNEL32.dll
 0002:00000078       __imp__SetCurrentDirectoryW@4 00473078     kernel32:KERNEL32.dll
 0002:0000007c       __imp__GetCPInfo@8         0047307c     kernel32:KERNEL32.dll
 0002:00000080       __imp__GetOEMCP@0          00473080     kernel32:KERNEL32.dll
 0002:00000084       __imp__GetModuleFileNameA@12 00473084     kernel32:KERNEL32.dll
 0002:00000088       __imp__UnmapViewOfFile@4   00473088     kernel32:KERNEL32.dll
 0002:0000008c       __imp__CloseHandle@4       0047308c     kernel32:KERNEL32.dll
 0002:00000090       __imp__CreateFileA@28      00473090     kernel32:KERNEL32.dll
 0002:00000094       __imp__CreateFileMappingW@24 00473094     kernel32:KERNEL32.dll
 0002:00000098       __imp__MapViewOfFile@20    00473098     kernel32:KERNEL32.dll
 0002:0000009c       __imp__IsBadReadPtr@8      0047309c     kernel32:KERNEL32.dll
 0002:000000a0       __imp__VirtualQuery@12     004730a0     kernel32:KERNEL32.dll
 0002:000000a4       __imp__SetErrorMode@4      004730a4     kernel32:KERNEL32.dll
 0002:000000a8       __imp__SetUnhandledExceptionFilter@4 004730a8     kernel32:KERNEL32.dll
 0002:000000ac       __imp__InitializeCriticalSection@4 004730ac     kernel32:KERNEL32.dll
 0002:000000b0       __imp__Sleep@4             004730b0     kernel32:KERNEL32.dll
 0002:000000b4       __imp__EnterCriticalSection@4 004730b4     kernel32:KERNEL32.dll
 0002:000000b8       __imp__LeaveCriticalSection@4 004730b8     kernel32:KERNEL32.dll
 0002:000000bc       __imp__CreateEventW@16     004730bc     kernel32:KERNEL32.dll
 0002:000000c0       __imp__WaitForSingleObject@8 004730c0     kernel32:KERNEL32.dll
 0002:000000c4       __imp__FileTimeToSystemTime@8 004730c4     kernel32:KERNEL32.dll
 0002:000000c8       __imp__SetLocalTime@4      004730c8     kernel32:KERNEL32.dll
 0002:000000cc       __imp__GetCurrentProcess@0 004730cc     kernel32:KERNEL32.dll
 0002:000000d0       __imp__GetLastError@0      004730d0     kernel32:KERNEL32.dll
 0002:000000d4       __imp__CreateThread@24     004730d4     kernel32:KERNEL32.dll
 0002:000000d8       __imp__ReadFile@20         004730d8     kernel32:KERNEL32.dll
 0002:000000dc       __imp__WriteFile@20        004730dc     kernel32:KERNEL32.dll
 0002:000000e0       __imp__GetConsoleCP@0      004730e0     kernel32:KERNEL32.dll
 0002:000000e4       __imp__QueryPerformanceFrequency@4 004730e4     kernel32:KERNEL32.dll
 0002:000000e8       __imp__QueryPerformanceCounter@4 004730e8     kernel32:KERNEL32.dll
 0002:000000ec       __imp__TerminateThread@8   004730ec     kernel32:KERNEL32.dll
 0002:000000f0       __imp__OutputDebugStringW@4 004730f0     kernel32:KERNEL32.dll
 0002:000000f4       __imp__OutputDebugStringA@4 004730f4     kernel32:KERNEL32.dll
 0002:000000f8       __imp__SetCommMask@8       004730f8     kernel32:KERNEL32.dll
 0002:000000fc       __imp__PurgeComm@8         004730fc     kernel32:KERNEL32.dll
 0002:00000100       __imp__GetCommState@8      00473100     kernel32:KERNEL32.dll
 0002:00000104       __imp__SetCommState@8      00473104     kernel32:KERNEL32.dll
 0002:00000108       __imp__SetCommTimeouts@8   00473108     kernel32:KERNEL32.dll
 0002:0000010c       __imp__CancelIo@4          0047310c     kernel32:KERNEL32.dll
 0002:00000110       __imp__FlushViewOfFile@8   00473110     kernel32:KERNEL32.dll
 0002:00000114       __imp__FlushFileBuffers@4  00473114     kernel32:KERNEL32.dll
 0002:00000118       __imp__GetFileSizeEx@8     00473118     kernel32:KERNEL32.dll
 0002:0000011c       __imp__SetFileInformationByHandle@16 0047311c     kernel32:KERNEL32.dll
 0002:00000120       __imp__CreateDirectoryA@8  00473120     kernel32:KERNEL32.dll
 0002:00000124       __imp__GetFileInformationByHandleEx@16 00473124     kernel32:KERNEL32.dll
 0002:00000128       __imp__GetLogicalDriveStringsA@8 00473128     kernel32:KERNEL32.dll
 0002:0000012c       __imp__QueryDosDeviceA@12  0047312c     kernel32:KERNEL32.dll
 0002:00000130       __imp__DeleteFileA@4       00473130     kernel32:KERNEL32.dll
 0002:00000134       __imp__TlsGetValue@4       00473134     kernel32:KERNEL32.dll
 0002:00000138       __imp__TlsAlloc@0          00473138     kernel32:KERNEL32.dll
 0002:0000013c       __imp__TerminateProcess@8  0047313c     kernel32:KERNEL32.dll
 0002:00000140       __imp__InitializeCriticalSectionAndSpinCount@8 00473140     kernel32:KERNEL32.dll
 0002:00000144       __imp__SetLastError@4      00473144     kernel32:KERNEL32.dll
 0002:00000148       __imp__UnhandledExceptionFilter@4 00473148     kernel32:KERNEL32.dll
 0002:0000014c       __imp__FatalAppExitA@8     0047314c     kernel32:KERNEL32.dll
 0002:00000150       __imp__GetTimeZoneInformation@4 00473150     kernel32:KERNEL32.dll
 0002:00000154       __imp__GetSystemTimeAsFileTime@4 00473154     kernel32:KERNEL32.dll
 0002:00000158       __imp__IsProcessorFeaturePresent@4 00473158     kernel32:KERNEL32.dll
 0002:0000015c       __imp__IsDebuggerPresent@0 0047315c     kernel32:KERNEL32.dll
 0002:00000160       __imp__GetCommandLineA@0   00473160     kernel32:KERNEL32.dll
 0002:00000164       __imp__GetCurrentDirectoryA@8 00473164     kernel32:KERNEL32.dll
 0002:00000168       __imp__SetCurrentDirectoryA@4 00473168     kernel32:KERNEL32.dll
 0002:0000016c       __imp__SetEnvironmentVariableA@8 0047316c     kernel32:KERNEL32.dll
 0002:00000170       __imp__GetFullPathNameA@16 00473170     kernel32:KERNEL32.dll
 0002:00000174       __imp__GetConsoleMode@8    00473174     kernel32:KERNEL32.dll
 0002:00000178       __imp__SetFilePointerEx@20 00473178     kernel32:KERNEL32.dll
 0002:0000017c       __imp__SetStdHandle@8      0047317c     kernel32:KERNEL32.dll
 0002:00000180       __imp__WriteConsoleW@20    00473180     kernel32:KERNEL32.dll
 0002:00000184       __imp__GetACP@0            00473184     kernel32:KERNEL32.dll
 0002:00000188       __imp__IsValidCodePage@4   00473188     kernel32:KERNEL32.dll
 0002:0000018c       __imp__LoadLibraryExW@12   0047318c     kernel32:KERNEL32.dll
 0002:00000190       __imp__FreeLibrary@4       00473190     kernel32:KERNEL32.dll
 0002:00000194       __imp__SetConsoleCtrlHandler@8 00473194     kernel32:KERNEL32.dll
 0002:00000198       __imp__HeapFree@12         00473198     kernel32:KERNEL32.dll
 0002:0000019c       __imp__GetModuleFileNameW@12 0047319c     kernel32:KERNEL32.dll
 0002:000001a0       __imp__GetStdHandle@4      004731a0     kernel32:KERNEL32.dll
 0002:000001a4       __imp__CreateSemaphoreW@16 004731a4     kernel32:KERNEL32.dll
 0002:000001a8       __imp__GetModuleHandleW@4  004731a8     kernel32:KERNEL32.dll
 0002:000001ac       __imp__GetTickCount@0      004731ac     kernel32:KERNEL32.dll
 0002:000001b0       __imp__GetStartupInfoW@4   004731b0     kernel32:KERNEL32.dll
 0002:000001b4       __imp__TlsFree@4           004731b4     kernel32:KERNEL32.dll
 0002:000001b8       __imp__ReadConsoleW@20     004731b8     kernel32:KERNEL32.dll
 0002:000001bc       __imp__DeleteCriticalSection@4 004731bc     kernel32:KERNEL32.dll
 0002:000001c0       __imp__CreateFileW@28      004731c0     kernel32:KERNEL32.dll
 0002:000001c4       __imp__EncodePointer@4     004731c4     kernel32:KERNEL32.dll
 0002:000001c8       __imp__DecodePointer@4     004731c8     kernel32:KERNEL32.dll
 0002:000001cc       __imp__ExitProcess@4       004731cc     kernel32:KERNEL32.dll
 0002:000001d0       __imp__GetModuleHandleExW@12 004731d0     kernel32:KERNEL32.dll
 0002:000001d4       __imp__GetProcAddress@8    004731d4     kernel32:KERNEL32.dll
 0002:000001d8       __imp__AreFileApisANSI@0   004731d8     kernel32:KERNEL32.dll
 0002:000001dc       __imp__MultiByteToWideChar@24 004731dc     kernel32:KERNEL32.dll
 0002:000001e0       __imp__WideCharToMultiByte@32 004731e0     kernel32:KERNEL32.dll
 0002:000001e4       __imp__GetDriveTypeW@4     004731e4     kernel32:KERNEL32.dll
 0002:000001e8       __imp__TlsSetValue@8       004731e8     kernel32:KERNEL32.dll
 0002:000001ec       \177KERNEL32_NULL_THUNK_DATA 004731ec     kernel32:KERNEL32.dll
 0002:000001f0       __imp__ExitWindowsEx@8     004731f0     user32:USER32.dll
 0002:000001f4       __imp__LoadCursorA@8       004731f4     user32:USER32.dll
 0002:000001f8       __imp__UpdateWindow@4      004731f8     user32:USER32.dll
 0002:000001fc       __imp__AppendMenuA@16      004731fc     user32:USER32.dll
 0002:00000200       __imp__GetSystemMenu@8     00473200     user32:USER32.dll
 0002:00000204       __imp__ShowWindow@8        00473204     user32:USER32.dll
 0002:00000208       __imp__CreateWindowExA@48  00473208     user32:USER32.dll
 0002:0000020c       __imp__UnregisterClassA@8  0047320c     user32:USER32.dll
 0002:00000210       __imp__RegisterClassA@4    00473210     user32:USER32.dll
 0002:00000214       __imp__PostQuitMessage@4   00473214     user32:USER32.dll
 0002:00000218       __imp__DefWindowProcA@16   00473218     user32:USER32.dll
 0002:0000021c       __imp__PeekMessageA@20     0047321c     user32:USER32.dll
 0002:00000220       __imp__DispatchMessageA@4  00473220     user32:USER32.dll
 0002:00000224       __imp__TranslateMessage@4  00473224     user32:USER32.dll
 0002:00000228       __imp__GetMessageA@16      00473228     user32:USER32.dll
 0002:0000022c       \177USER32_NULL_THUNK_DATA 0047322c     user32:USER32.dll
 0002:00000230       __imp__setsockopt@20       00473230     ws2_32:WS2_32.dll
 0002:00000234       __imp__WSAStartup@8        00473234     ws2_32:WS2_32.dll
 0002:00000238       __imp__WSACleanup@0        00473238     ws2_32:WS2_32.dll
 0002:0000023c       __imp__socket@12           0047323c     ws2_32:WS2_32.dll
 0002:00000240       __imp__WSAHtons@12         00473240     ws2_32:WS2_32.dll
 0002:00000244       __imp__connect@12          00473244     ws2_32:WS2_32.dll
 0002:00000248       __imp__shutdown@8          00473248     ws2_32:WS2_32.dll
 0002:0000024c       __imp__closesocket@4       0047324c     ws2_32:WS2_32.dll
 0002:00000250       __imp__recv@16             00473250     ws2_32:WS2_32.dll
 0002:00000254       __imp__send@16             00473254     ws2_32:WS2_32.dll
 0002:00000258       __imp__htonl@4             00473258     ws2_32:WS2_32.dll
 0002:0000025c       __imp__ntohl@4             0047325c     ws2_32:WS2_32.dll
 0002:00000260       __imp__gethostname@8       00473260     ws2_32:WS2_32.dll
 0002:00000264       __imp__inet_addr@4         00473264     ws2_32:WS2_32.dll
 0002:00000268       \177WS2_32_NULL_THUNK_DATA 00473268     ws2_32:WS2_32.dll
 0002:0000026c       __imp__websSetCustomErrorHandler 0047326c     libgo:libgo.dll
 0002:00000270       __imp__websDefineAction    00473270     libgo:libgo.dll
 0002:00000274       __imp__websWriteHeaders    00473274     libgo:libgo.dll
 0002:00000278       __imp__websWriteHeader     00473278     libgo:libgo.dll
 0002:0000027c       __imp__websWriteEndHeaders 0047327c     libgo:libgo.dll
 0002:00000280       __imp__websWrite           00473280     libgo:libgo.dll
 0002:00000284       __imp__websFlush           00473284     libgo:libgo.dll
 0002:00000288       __imp__websGetSessionVar   00473288     libgo:libgo.dll
 0002:0000028c       __imp__websDecodeUrl       0047328c     libgo:libgo.dll
 0002:00000290       __imp__websSetStatus       00473290     libgo:libgo.dll
 0002:00000294       __imp__websDone            00473294     libgo:libgo.dll
 0002:00000298       __imp__websGetVar          00473298     libgo:libgo.dll
 0002:0000029c       __imp__websSetSessionVar   0047329c     libgo:libgo.dll
 0002:000002a0       __imp__logLevel            004732a0     libgo:libgo.dll
 0002:000002a4       __imp__websLoad            004732a4     libgo:libgo.dll
 0002:000002a8       __imp__websSetDebug        004732a8     libgo:libgo.dll
 0002:000002ac       __imp__websSetBackground   004732ac     libgo:libgo.dll
 0002:000002b0       __imp__websServiceEvents   004732b0     libgo:libgo.dll
 0002:000002b4       __imp__websOpen            004732b4     libgo:libgo.dll
 0002:000002b8       __imp__websListen          004732b8     libgo:libgo.dll
 0002:000002bc       __imp__websGetServer       004732bc     libgo:libgo.dll
 0002:000002c0       __imp__websGetDocuments    004732c0     libgo:libgo.dll
 0002:000002c4       __imp__websClose           004732c4     libgo:libgo.dll
 0002:000002c8       __imp__stok                004732c8     libgo:libgo.dll
 0002:000002cc       __imp__smatch              004732cc     libgo:libgo.dll
 0002:000002d0       __imp__logmsgProc          004732d0     libgo:libgo.dll
 0002:000002d4       __imp__logSetPath          004732d4     libgo:libgo.dll
 0002:000002d8       __imp__error               004732d8     libgo:libgo.dll
 0002:000002dc       __imp__websGetInst         004732dc     libgo:libgo.dll
 0002:000002e0       __imp__websParseArgs       004732e0     libgo:libgo.dll
 0002:000002e4       \177libgo_NULL_THUNK_DATA  004732e4     libgo:libgo.dll
 0002:000002e8       ___xc_a                    004732e8     LIBCMT:crt0init.obj
 0002:000003bc       ___xc_z                    004733bc     LIBCMT:crt0init.obj
 0002:000003c0       ___xi_a                    004733c0     LIBCMT:crt0init.obj
 0002:000003d8       ___xi_z                    004733d8     LIBCMT:crt0init.obj
 0002:000003dc       ___xp_a                    004733dc     LIBCMT:crt0init.obj
 0002:000003ec       ___xp_z                    004733ec     LIBCMT:crt0init.obj
 0002:000003f0       ___xt_a                    004733f0     LIBCMT:crt0init.obj
 0002:000003f4       ___xt_z                    004733f4     LIBCMT:crt0init.obj
 0002:00000438       ??_C@_04IAFLKNP@http?$AA@  00473438     goahead.obj
 0002:00000440       ??_C@_05BCHGOAMK@https?$AA@ 00473440     goahead.obj
 0002:00000448       ??_C@_07BDJLFNMO@goahead?$AA@ 00473448     goahead.obj
 0002:00000450       ??_C@_09ECKAFKMI@route?4txt?$AA@ 00473450     goahead.obj
 0002:0000045c       ??_C@_08MBMDLLPJ@auth?4txt?$AA@ 0047345c     goahead.obj
 0002:00000468       ??_C@_06HBKEEBEF@?9?9auth?$AA@ 00473468     goahead.obj
 0002:00000470       ??_C@_02EMMNKJLI@?9a?$AA@  00473470     goahead.obj
 0002:00000474       ??_C@_0N@FABFCPMB@?9?9background?$AA@ 00473474     goahead.obj
 0002:00000484       ??_C@_02GHOAPKHL@?9b?$AA@  00473484     goahead.obj
 0002:00000488       ??_C@_0L@GDGHMNDC@?9?9debugger?$AA@ 00473488     goahead.obj
 0002:00000494       ??_C@_02DBLKFNPN@?9d?$AA@  00473494     goahead.obj
 0002:00000498       ??_C@_02KEDOHJFP@?9D?$AA@  00473498     goahead.obj
 0002:0000049c       ??_C@_06OFEJHCHN@?9?9home?$AA@ 0047349c     goahead.obj
 0002:000004a4       ??_C@_0BN@BDFCFHDE@Can?8t?5change?5directory?5to?5?$CFs?$AA@ 004734a4     goahead.obj
 0002:000004c4       ??_C@_05NEJJJKMH@?9?9log?$AA@ 004734c4     goahead.obj
 0002:000004cc       ??_C@_02PJGDNHPF@?9l?$AA@  004734cc     goahead.obj
 0002:000004d0       ??_C@_09OOLJKHBB@?9?9verbose?$AA@ 004734d0     goahead.obj
 0002:000004dc       ??_C@_02EJEOCNCO@?9v?$AA@  004734dc     goahead.obj
 0002:000004e0       ??_C@_08GPHKDCBB@stdout?32?$AA@ 004734e0     goahead.obj
 0002:000004ec       ??_C@_07BMNPEMNL@?9?9route?$AA@ 004734ec     goahead.obj
 0002:000004f4       ??_C@_02CNCCOICK@?9r?$AA@  004734f4     goahead.obj
 0002:000004f8       ??_C@_09GAJKMFCA@?9?9version?$AA@ 004734f8     goahead.obj
 0002:00000504       ??_C@_02NMMKAJIM@?9V?$AA@  00473504     goahead.obj
 0002:00000508       ??_C@_05DMANCLCE@3?41?43?$AA@ 00473508     goahead.obj
 0002:00000510       ??_C@_06HAEFMDOP@?$CFs?9?$CFs?6?$AA@ 00473510     goahead.obj
 0002:00000518       ??_C@_04DKONBNON@?9?9ip?$AA@ 00473518     goahead.obj
 0002:00000520       ??_C@_02BBJAAHBC@?9I?$AA@  00473520     goahead.obj
 0002:00000524       ??_C@_03DBIELICI@web?$AA@  00473524     goahead.obj
 0002:00000528       ??_C@_0CC@NFBKELMH@Can?8t?5initialize?5server?4?5Exiting@ 00473528     goahead.obj
 0002:0000054c       ??_C@_0O@BMGIFAEA@Can?8t?5load?5?$CFs?$AA@ 0047354c     goahead.obj
 0002:0000055c       ??_C@_0BK@LKNLFBFD@http?3?1?1?$CK?380?0https?3?1?1?$CK?3443?$AA@ 0047355c     goahead.obj
 0002:00000578       ??_C@_03NNNAMNMM@?0?5?7?$AA@ 00473578     goahead.obj
 0002:0000057c       ??_C@_04KLDODFPI@?0?5?7?0?$AA@ 0047357c     goahead.obj
 0002:00000584       ??_C@_0BD@PKHKMLEL@Instructed?5to?5exit?$AA@ 00473584     goahead.obj
 0002:00000598       ??_C@_0BC@GKHIIEMO@Embedthis?5GoAhead?$AA@ 00473598     goahead.obj
 0002:000005ac       ??_C@_0BF@GBDDIEE@Configuration?5for?5?$CFs?$AA@ 004735ac     goahead.obj
 0002:000005c4       ??_C@_0CO@NCLFOKLB@?9?9?9?9?9?9?9?9?9?9?9?9?9?9?9?9?9?9?9?9?9?9?9?9?9?9?9?9?9?9?9?9@ 004735c4     goahead.obj
 0002:000005f4       ??_C@_0BK@JBCLOONF@Version?3?5?5?5?5?5?5?5?5?5?5?5?5?$CFs?9?$CFs?$AA@ 004735f4     goahead.obj
 0002:00000610       ??_C@_05GCIPIGEI@Debug?$AA@ 00473610     goahead.obj
 0002:00000618       ??_C@_0BH@KFLOCMNB@BuildType?3?5?5?5?5?5?5?5?5?5?5?$CFs?$AA@ 00473618     goahead.obj
 0002:00000630       ??_C@_03NDFEINMN@x86?$AA@  00473630     goahead.obj
 0002:00000634       ??_C@_0BH@IPEADOKM@CPU?3?5?5?5?5?5?5?5?5?5?5?5?5?5?5?5?5?$CFs?$AA@ 00473634     goahead.obj
 0002:0000064c       ??_C@_07EKMDLNDL@windows?$AA@ 0047364c     goahead.obj
 0002:00000654       ??_C@_0BH@CODCJNEF@OS?3?5?5?5?5?5?5?5?5?5?5?5?5?5?5?5?5?5?$CFs?$AA@ 00473654     goahead.obj
 0002:0000066c       ??_C@_0BH@CHEMGPGE@Host?3?5?5?5?5?5?5?5?5?5?5?5?5?5?5?5?$CFs?$AA@ 0047366c     goahead.obj
 0002:00000684       ??_C@_0BH@MIPPNLKB@Directory?3?5?5?5?5?5?5?5?5?5?5?$CFs?$AA@ 00473684     goahead.obj
 0002:0000069c       ??_C@_0BH@GIECJIKI@Documents?3?5?5?5?5?5?5?5?5?5?5?$CFs?$AA@ 0047369c     goahead.obj
 0002:000006b4       ??_C@_0DN@DPILGNFE@bit?5?9d?5?9q?5?9platform?5windows?9x86?9@ 004736b4     goahead.obj
 0002:000006f4       ??_C@_0BH@ICCLKBOF@Configure?3?5?5?5?5?5?5?5?5?5?5?$CFs?$AA@ 004736f4     goahead.obj
 0002:00000710       ??_C@_0CED@DEKHPHFC@?6?$CFs?5Usage?3?6?6?5?5?$CFs?5?$FLoptions?$FN?5?$FLdocu@ 00473710     goahead.obj
 0002:00000954       ??_C@_1BI@BGOHAHKC@?$AAm?$AAs?$AAc?$AAo?$AAr?$AAe?$AAe?$AA?4?$AAd?$AAl?$AAl?$AA?$AA@ 00473954     LIBCMT:crt0dat.obj
 0002:0000096c       ??_C@_0P@MIGLKIOC@CorExitProcess?$AA@ 0047396c     LIBCMT:crt0dat.obj
 0002:0000097c       ?ProcessDetach@NativeDll@<CrtImplementationDetails>@@0IB 0047397c     LIBCMT:stricmp.obj
 0002:00000980       ?ProcessAttach@NativeDll@<CrtImplementationDetails>@@0IB 00473980     LIBCMT:stricmp.obj
 0002:00000984       ?ThreadAttach@NativeDll@<CrtImplementationDetails>@@0IB 00473984     LIBCMT:stricmp.obj
 0002:00000988       ?ThreadDetach@NativeDll@<CrtImplementationDetails>@@0IB 00473988     LIBCMT:stricmp.obj
 0002:0000098c       ?ProcessVerifier@NativeDll@<CrtImplementationDetails>@@0IB 0047398c     LIBCMT:stricmp.obj
 0002:00000998       ?value@?$integral_constant@_N$0A@@std@@2_NB 00473998     LIBCMT:typinfo.obj
 0002:00000999       ?value@?$integral_constant@_N$00@std@@2_NB 00473999     LIBCMT:typinfo.obj
 0002:000009a0       ??_7type_info@@6B@         004739a0     LIBCMT:typinfo.obj
 0002:000009a8       ??_7bad_alloc@std@@6B@     004739a8     LIBCMT:new.obj
 0002:000009b0       ??_C@_0P@GHFPNOJB@bad?5allocation?$AA@ 004739b0     LIBCMT:new.obj
 0002:000009c0       ??_C@_02CLFPBFFP@TZ?$AA@   004739c0     LIBCMT:tzset.obj
 0002:000009c4       ___dnames                  004739c4     LIBCMT:timeset.obj
 0002:000009dc       ___mnames                  004739dc     LIBCMT:timeset.obj
 0002:00000a04       ??_C@_1BK@MGMFAEKH@?$AAk?$AAe?$AAr?$AAn?$AAe?$AAl?$AA3?$AA2?$AA?4?$AAd?$AAl?$AAl?$AA?$AA@ 00473a04     LIBCMT:winapisupp.obj
 0002:00000a20       ??_C@_08KNHFBNJ@FlsAlloc?$AA@ 00473a20     LIBCMT:winapisupp.obj
 0002:00000a2c       ??_C@_07PEJMOBNF@FlsFree?$AA@ 00473a2c     LIBCMT:winapisupp.obj
 0002:00000a34       ??_C@_0M@GDNOONDI@FlsGetValue?$AA@ 00473a34     LIBCMT:winapisupp.obj
 0002:00000a40       ??_C@_0M@JCPCPOEF@FlsSetValue?$AA@ 00473a40     LIBCMT:winapisupp.obj
 0002:00000a4c       ??_C@_0BM@HCFOFFN@InitializeCriticalSectionEx?$AA@ 00473a4c     LIBCMT:winapisupp.obj
 0002:00000a68       ??_C@_0P@DLHPPCNH@CreateEventExW?$AA@ 00473a68     LIBCMT:winapisupp.obj
 0002:00000a78       ??_C@_0BD@KIEEOEEH@CreateSemaphoreExW?$AA@ 00473a78     LIBCMT:winapisupp.obj
 0002:00000a8c       ??_C@_0BI@BKLFFAPO@SetThreadStackGuarantee?$AA@ 00473a8c     LIBCMT:winapisupp.obj
 0002:00000aa4       ??_C@_0BG@OGFAJCKC@CreateThreadpoolTimer?$AA@ 00473aa4     LIBCMT:winapisupp.obj
 0002:00000abc       ??_C@_0BD@LPLEMMDI@SetThreadpoolTimer?$AA@ 00473abc     LIBCMT:winapisupp.obj
 0002:00000ad0       ??_C@_0CA@FMNJENH@WaitForThreadpoolTimerCallbacks?$AA@ 00473ad0     LIBCMT:winapisupp.obj
 0002:00000af0       ??_C@_0BF@DCFCCNOC@CloseThreadpoolTimer?$AA@ 00473af0     LIBCMT:winapisupp.obj
 0002:00000b08       ??_C@_0BF@FLABGKKM@CreateThreadpoolWait?$AA@ 00473b08     LIBCMT:winapisupp.obj
 0002:00000b20       ??_C@_0BC@MGCOHNA@SetThreadpoolWait?$AA@ 00473b20     LIBCMT:winapisupp.obj
 0002:00000b34       ??_C@_0BE@OCIOMIMP@CloseThreadpoolWait?$AA@ 00473b34     LIBCMT:winapisupp.obj
 0002:00000b48       ??_C@_0BJ@LKGHFHBO@FlushProcessWriteBuffers?$AA@ 00473b48     LIBCMT:winapisupp.obj
 0002:00000b64       ??_C@_0BP@KALKKPMO@FreeLibraryWhenCallbackReturns?$AA@ 00473b64     LIBCMT:winapisupp.obj
 0002:00000b84       ??_C@_0BK@DFNBACLA@GetCurrentProcessorNumber?$AA@ 00473b84     LIBCMT:winapisupp.obj
 0002:00000ba0       ??_C@_0BP@KHGALBC@GetLogicalProcessorInformation?$AA@ 00473ba0     LIBCMT:winapisupp.obj
 0002:00000bc0       ??_C@_0BE@FKKLLFLM@CreateSymbolicLinkW?$AA@ 00473bc0     LIBCMT:winapisupp.obj
 0002:00000bd4       ??_C@_0BJ@OHNKDLIJ@SetDefaultDllDirectories?$AA@ 00473bd4     LIBCMT:winapisupp.obj
 0002:00000bf0       ??_C@_0BE@LJANKFHF@EnumSystemLocalesEx?$AA@ 00473bf0     LIBCMT:winapisupp.obj
 0002:00000c04       ??_C@_0BA@IHGNDAEB@CompareStringEx?$AA@ 00473c04     LIBCMT:winapisupp.obj
 0002:00000c14       ??_C@_0BA@EPCJIIPD@GetDateFormatEx?$AA@ 00473c14     LIBCMT:winapisupp.obj
 0002:00000c24       ??_C@_0BA@ONOKGCMP@GetLocaleInfoEx?$AA@ 00473c24     LIBCMT:winapisupp.obj
 0002:00000c34       ??_C@_0BA@CIJJKCJJ@GetTimeFormatEx?$AA@ 00473c34     LIBCMT:winapisupp.obj
 0002:00000c44       ??_C@_0BJ@PBCCBIPI@GetUserDefaultLocaleName?$AA@ 00473c44     LIBCMT:winapisupp.obj
 0002:00000c60       ??_C@_0BC@CELBKLLA@IsValidLocaleName?$AA@ 00473c60     LIBCMT:winapisupp.obj
 0002:00000c74       ??_C@_0O@KKBNKAPF@LCMapStringEx?$AA@ 00473c74     LIBCMT:winapisupp.obj
 0002:00000c84       ??_C@_0BE@JOGNEJCI@GetCurrentPackageId?$AA@ 00473c84     LIBCMT:winapisupp.obj
 0002:00000c98       ??_C@_0P@CDHHOHKP@GetTickCount64?$AA@ 00473c98     LIBCMT:winapisupp.obj
 0002:00000ca8       ??_C@_0BO@KPCLFDJJ@GetFileInformationByHandleExW?$AA@ 00473ca8     LIBCMT:winapisupp.obj
 0002:00000cc8       ??_C@_0BM@MHIDLABK@SetFileInformationByHandleW?$AA@ 00473cc8     LIBCMT:winapisupp.obj
 0002:00000da0       ??_C@_1FK@PGACCAFB@?$AAR?$AA6?$AA0?$AA0?$AA2?$AA?$AN?$AA?6?$AA?9?$AA?5?$AAf?$AAl?$AAo?$AAa?$AAt?$AAi?$AAn?$AAg?$AA?5?$AAp?$AAo?$AAi?$AAn?$AAt?$AA?5?$AAs?$AAu?$AAp?$AAp?$AAo?$AAr?$AAt?$AA?5@ 00473da0     LIBCMT:crt0msg.obj
 0002:00000e00       ??_C@_1FE@LLNEDJMD@?$AAR?$AA6?$AA0?$AA0?$AA8?$AA?$AN?$AA?6?$AA?9?$AA?5?$AAn?$AAo?$AAt?$AA?5?$AAe?$AAn?$AAo?$AAu?$AAg?$AAh?$AA?5?$AAs?$AAp?$AAa?$AAc?$AAe?$AA?5?$AAf?$AAo?$AAr?$AA?5?$AAa?$AAr@ 00473e00     LIBCMT:crt0msg.obj
 0002:00000e58       ??_C@_1FI@HONFMGBI@?$AAR?$AA6?$AA0?$AA0?$AA9?$AA?$AN?$AA?6?$AA?9?$AA?5?$AAn?$AAo?$AAt?$AA?5?$AAe?$AAn?$AAo?$AAu?$AAg?$AAh?$AA?5?$AAs?$AAp?$AAa?$AAc?$AAe?$AA?5?$AAf?$AAo?$AAr?$AA?5?$AAe?$AAn@ 00473e58     LIBCMT:crt0msg.obj
 0002:00000eb0       ??_C@_1EG@BEHAGFJD@?$AAR?$AA6?$AA0?$AA1?$AA0?$AA?$AN?$AA?6?$AA?9?$AA?5?$AAa?$AAb?$AAo?$AAr?$AAt?$AA?$CI?$AA?$CJ?$AA?5?$AAh?$AAa?$AAs?$AA?5?$AAb?$AAe?$AAe?$AAn?$AA?5?$AAc?$AAa?$AAl?$AAl?$AAe?$AAd@ 00473eb0     LIBCMT:crt0msg.obj
 0002:00000ef8       ??_C@_1FI@LOGNIKDM@?$AAR?$AA6?$AA0?$AA1?$AA6?$AA?$AN?$AA?6?$AA?9?$AA?5?$AAn?$AAo?$AAt?$AA?5?$AAe?$AAn?$AAo?$AAu?$AAg?$AAh?$AA?5?$AAs?$AAp?$AAa?$AAc?$AAe?$AA?5?$AAf?$AAo?$AAr?$AA?5?$AAt?$AAh@ 00473ef8     LIBCMT:crt0msg.obj
 0002:00000f50       ??_C@_1FK@BEOGODMC@?$AAR?$AA6?$AA0?$AA1?$AA7?$AA?$AN?$AA?6?$AA?9?$AA?5?$AAu?$AAn?$AAe?$AAx?$AAp?$AAe?$AAc?$AAt?$AAe?$AAd?$AA?5?$AAm?$AAu?$AAl?$AAt?$AAi?$AAt?$AAh?$AAr?$AAe?$AAa?$AAd?$AA?5@ 00473f50     LIBCMT:crt0msg.obj
 0002:00000fb0       ??_C@_1EC@JIBHAOPH@?$AAR?$AA6?$AA0?$AA1?$AA8?$AA?$AN?$AA?6?$AA?9?$AA?5?$AAu?$AAn?$AAe?$AAx?$AAp?$AAe?$AAc?$AAt?$AAe?$AAd?$AA?5?$AAh?$AAe?$AAa?$AAp?$AA?5?$AAe?$AAr?$AAr?$AAo?$AAr?$AA?$AN?$AA?6@ 00473fb0     LIBCMT:crt0msg.obj
 0002:00000ff8       ??_C@_1FC@ECHBIFBC@?$AAR?$AA6?$AA0?$AA1?$AA9?$AA?$AN?$AA?6?$AA?9?$AA?5?$AAu?$AAn?$AAa?$AAb?$AAl?$AAe?$AA?5?$AAt?$AAo?$AA?5?$AAo?$AAp?$AAe?$AAn?$AA?5?$AAc?$AAo?$AAn?$AAs?$AAo?$AAl?$AAe?$AA?5@ 00473ff8     LIBCMT:crt0msg.obj
 0002:00001050       ??_C@_1GK@FHCKBEFA@?$AAR?$AA6?$AA0?$AA2?$AA4?$AA?$AN?$AA?6?$AA?9?$AA?5?$AAn?$AAo?$AAt?$AA?5?$AAe?$AAn?$AAo?$AAu?$AAg?$AAh?$AA?5?$AAs?$AAp?$AAa?$AAc?$AAe?$AA?5?$AAf?$AAo?$AAr?$AA?5?$AA_?$AAo@ 00474050     LIBCMT:crt0msg.obj
 0002:000010c0       ??_C@_1EM@MAADIHMB@?$AAR?$AA6?$AA0?$AA2?$AA5?$AA?$AN?$AA?6?$AA?9?$AA?5?$AAp?$AAu?$AAr?$AAe?$AA?5?$AAv?$AAi?$AAr?$AAt?$AAu?$AAa?$AAl?$AA?5?$AAf?$AAu?$AAn?$AAc?$AAt?$AAi?$AAo?$AAn?$AA?5?$AAc@ 004740c0     LIBCMT:crt0msg.obj
 0002:00001110       ??_C@_1GK@MCAAGJMO@?$AAR?$AA6?$AA0?$AA2?$AA6?$AA?$AN?$AA?6?$AA?9?$AA?5?$AAn?$AAo?$AAt?$AA?5?$AAe?$AAn?$AAo?$AAu?$AAg?$AAh?$AA?5?$AAs?$AAp?$AAa?$AAc?$AAe?$AA?5?$AAf?$AAo?$AAr?$AA?5?$AAs?$AAt@ 00474110     LIBCMT:crt0msg.obj
 0002:00001180       ??_C@_1GK@MFGOKLAG@?$AAR?$AA6?$AA0?$AA2?$AA7?$AA?$AN?$AA?6?$AA?9?$AA?5?$AAn?$AAo?$AAt?$AA?5?$AAe?$AAn?$AAo?$AAu?$AAg?$AAh?$AA?5?$AAs?$AAp?$AAa?$AAc?$AAe?$AA?5?$AAf?$AAo?$AAr?$AA?5?$AAl?$AAo@ 00474180     LIBCMT:crt0msg.obj
 0002:000011f0       ??_C@_1EK@HHFLMAOL@?$AAR?$AA6?$AA0?$AA2?$AA8?$AA?$AN?$AA?6?$AA?9?$AA?5?$AAu?$AAn?$AAa?$AAb?$AAl?$AAe?$AA?5?$AAt?$AAo?$AA?5?$AAi?$AAn?$AAi?$AAt?$AAi?$AAa?$AAl?$AAi?$AAz?$AAe?$AA?5?$AAh?$AAe@ 004741f0     LIBCMT:crt0msg.obj
 0002:0000123c       ??_C@_1DO@BMFCDCD@?$AAR?$AA6?$AA0?$AA3?$AA0?$AA?$AN?$AA?6?$AA?9?$AA?5?$AAC?$AAR?$AAT?$AA?5?$AAn?$AAo?$AAt?$AA?5?$AAi?$AAn?$AAi?$AAt?$AAi?$AAa?$AAl?$AAi?$AAz?$AAe?$AAd?$AA?$AN?$AA?6?$AA?$AA@ 0047423c     LIBCMT:crt0msg.obj
 0002:00001280       ??_C@_1MG@ENCOOIDF@?$AAR?$AA6?$AA0?$AA3?$AA1?$AA?$AN?$AA?6?$AA?9?$AA?5?$AAA?$AAt?$AAt?$AAe?$AAm?$AAp?$AAt?$AA?5?$AAt?$AAo?$AA?5?$AAi?$AAn?$AAi?$AAt?$AAi?$AAa?$AAl?$AAi?$AAz?$AAe?$AA?5?$AAt@ 00474280     LIBCMT:crt0msg.obj
 0002:00001348       ??_C@_1GG@GOPILAJP@?$AAR?$AA6?$AA0?$AA3?$AA2?$AA?$AN?$AA?6?$AA?9?$AA?5?$AAn?$AAo?$AAt?$AA?5?$AAe?$AAn?$AAo?$AAu?$AAg?$AAh?$AA?5?$AAs?$AAp?$AAa?$AAc?$AAe?$AA?5?$AAf?$AAo?$AAr?$AA?5?$AAl?$AAo@ 00474348     LIBCMT:crt0msg.obj
 0002:000013b0       ??_C@_1BOO@KGEDBGAJ@?$AAR?$AA6?$AA0?$AA3?$AA3?$AA?$AN?$AA?6?$AA?9?$AA?5?$AAA?$AAt?$AAt?$AAe?$AAm?$AAp?$AAt?$AA?5?$AAt?$AAo?$AA?5?$AAu?$AAs?$AAe?$AA?5?$AAM?$AAS?$AAI?$AAL?$AA?5?$AAc?$AAo?$AAd@ 004743b0     LIBCMT:crt0msg.obj
 0002:000015a0       ??_C@_1GG@MKFPEKFO@?$AAR?$AA6?$AA0?$AA3?$AA4?$AA?$AN?$AA?6?$AA?9?$AA?5?$AAi?$AAn?$AAc?$AAo?$AAn?$AAs?$AAi?$AAs?$AAt?$AAe?$AAn?$AAt?$AA?5?$AAo?$AAn?$AAe?$AAx?$AAi?$AAt?$AA?5?$AAb?$AAe?$AAg@ 004745a0     LIBCMT:crt0msg.obj
 0002:00001608       ??_C@_1BO@BFCDCGC@?$AAD?$AAO?$AAM?$AAA?$AAI?$AAN?$AA?5?$AAe?$AAr?$AAr?$AAo?$AAr?$AA?$AN?$AA?6?$AA?$AA@ 00474608     LIBCMT:crt0msg.obj
 0002:00001628       ??_C@_1BK@KMOMNAAI@?$AAS?$AAI?$AAN?$AAG?$AA?5?$AAe?$AAr?$AAr?$AAo?$AAr?$AA?$AN?$AA?6?$AA?$AA@ 00474628     LIBCMT:crt0msg.obj
 0002:00001644       ??_C@_1BM@JBBEPPHI@?$AAT?$AAL?$AAO?$AAS?$AAS?$AA?5?$AAe?$AAr?$AAr?$AAo?$AAr?$AA?$AN?$AA?6?$AA?$AA@ 00474644     LIBCMT:crt0msg.obj
 0002:00001660       ??_C@_15JNBOKNOG@?$AA?$AN?$AA?6?$AA?$AA@ 00474660     LIBCMT:crt0msg.obj
 0002:00001668       ??_C@_1BO@BKOMIGKJ@?$AAr?$AAu?$AAn?$AAt?$AAi?$AAm?$AAe?$AA?5?$AAe?$AAr?$AAr?$AAo?$AAr?$AA?5?$AA?$AA@ 00474668     LIBCMT:crt0msg.obj
 0002:00001688       ??_C@_1DE@JNGNBFGO@?$AAR?$AAu?$AAn?$AAt?$AAi?$AAm?$AAe?$AA?5?$AAE?$AAr?$AAr?$AAo?$AAr?$AA?$CB?$AA?6?$AA?6?$AAP?$AAr?$AAo?$AAg?$AAr?$AAa?$AAm?$AA?3?$AA?5?$AA?$AA@ 00474688     LIBCMT:crt0msg.obj
 0002:000016bc       ??_C@_1CO@EAEJAADC@?$AA?$DM?$AAp?$AAr?$AAo?$AAg?$AAr?$AAa?$AAm?$AA?5?$AAn?$AAa?$AAm?$AAe?$AA?5?$AAu?$AAn?$AAk?$AAn?$AAo?$AAw?$AAn?$AA?$DO?$AA?$AA@ 004746bc     LIBCMT:crt0msg.obj
 0002:000016ec       ??_C@_17LGKOMLJ@?$AA?4?$AA?4?$AA?4?$AA?$AA@ 004746ec     LIBCMT:crt0msg.obj
 0002:000016f4       ??_C@_15IABLJNFO@?$AA?6?$AA?6?$AA?$AA@ 004746f4     LIBCMT:crt0msg.obj
 0002:00001700       ??_C@_1EK@MBDPDCGA@?$AAM?$AAi?$AAc?$AAr?$AAo?$AAs?$AAo?$AAf?$AAt?$AA?5?$AAV?$AAi?$AAs?$AAu?$AAa?$AAl?$AA?5?$AAC?$AA?$CL?$AA?$CL?$AA?5?$AAR?$AAu?$AAn?$AAt?$AAi?$AAm?$AAe?$AA?5?$AAL?$AAi?$AAb@ 00474700     LIBCMT:crt0msg.obj
 0002:0000174c       ??_C@_1BK@GAEMIDIL@?$AAA?$AAD?$AAV?$AAA?$AAP?$AAI?$AA3?$AA2?$AA?4?$AAD?$AAL?$AAL?$AA?$AA@ 0047474c     LIBCMT:rand_s.obj
 0002:00001768       ??_C@_0BC@JEAENNKH@SystemFunction036?$AA@ 00474768     LIBCMT:rand_s.obj
 0002:0000178c       ??_C@_1M@HPNHIDJI@?$AAj?$AAa?$AA?9?$AAJ?$AAP?$AA?$AA@ 0047478c     LIBCMT:mbctype.obj
 0002:00001798       ??_C@_1M@BIBDDEMK@?$AAz?$AAh?$AA?9?$AAC?$AAN?$AA?$AA@ 00474798     LIBCMT:mbctype.obj
 0002:000017a4       ??_C@_1M@JLOOOEGK@?$AAk?$AAo?$AA?9?$AAK?$AAR?$AA?$AA@ 004747a4     LIBCMT:mbctype.obj
 0002:000017b0       ??_C@_1M@CLNBBOPM@?$AAz?$AAh?$AA?9?$AAT?$AAW?$AA?$AA@ 004747b0     LIBCMT:mbctype.obj
 0002:000017bc       ??_C@_06OJHGLDPL@?$CInull?$CJ?$AA@ 004747bc     LIBCMT:output.obj
 0002:000017c4       ??_C@_1O@CEDCILHN@?$AA?$CI?$AAn?$AAu?$AAl?$AAl?$AA?$CJ?$AA?$AA@ 004747c4     LIBCMT:output.obj
 0002:000017d8       ___lookuptable             004747d8     LIBCMT:output.obj
 0002:00001838       __XcptActTab               00474838     LIBCMT:winxfltr.obj
 0002:000018c8       __XcptActTabCount          004748c8     LIBCMT:winxfltr.obj
 0002:000018cc       __XcptActTabSize           004748cc     LIBCMT:winxfltr.obj
 0002:000018d0       __First_FPE_Indx           004748d0     LIBCMT:winxfltr.obj
 0002:000018d4       __Num_FPE                  004748d4     LIBCMT:winxfltr.obj
 0002:000018d8       ??_C@_03KOEHGMDN@Sun?$AA@  004748d8     LIBCMT:nlsdata.obj
 0002:000018dc       ??_C@_03PDAGKDH@Mon?$AA@   004748dc     LIBCMT:nlsdata.obj
 0002:000018e0       ??_C@_03NAGEINEP@Tue?$AA@  004748e0     LIBCMT:nlsdata.obj
 0002:000018e4       ??_C@_03MHOMLAJA@Wed?$AA@  004748e4     LIBCMT:nlsdata.obj
 0002:000018e8       ??_C@_03IOFIKPDN@Thu?$AA@  004748e8     LIBCMT:nlsdata.obj
 0002:000018ec       ??_C@_03IDIOELNC@Fri?$AA@  004748ec     LIBCMT:nlsdata.obj
 0002:000018f0       ??_C@_03FEFJNEK@Sat?$AA@   004748f0     LIBCMT:nlsdata.obj
 0002:000018f4       ??_C@_06OOPIFAJ@Sunday?$AA@ 004748f4     LIBCMT:nlsdata.obj
 0002:000018fc       ??_C@_06JLEDEDGH@Monday?$AA@ 004748fc     LIBCMT:nlsdata.obj
 0002:00001904       ??_C@_07BAAGCFCM@Tuesday?$AA@ 00474904     LIBCMT:nlsdata.obj
 0002:0000190c       ??_C@_09DLIGFAKA@Wednesday?$AA@ 0047490c     LIBCMT:nlsdata.obj
 0002:00001918       ??_C@_08HACCIKIA@Thursday?$AA@ 00474918     LIBCMT:nlsdata.obj
 0002:00001924       ??_C@_06JECMNKMI@Friday?$AA@ 00474924     LIBCMT:nlsdata.obj
 0002:0000192c       ??_C@_08INBOOONO@Saturday?$AA@ 0047492c     LIBCMT:nlsdata.obj
 0002:00001938       ??_C@_03JIHJHPIE@Jan?$AA@  00474938     LIBCMT:nlsdata.obj
 0002:0000193c       ??_C@_03HJBDCHOM@Feb?$AA@  0047493c     LIBCMT:nlsdata.obj
 0002:00001940       ??_C@_03ODNJBKGA@Mar?$AA@  00474940     LIBCMT:nlsdata.obj
 0002:00001944       ??_C@_03LEOLGMJP@Apr?$AA@  00474944     LIBCMT:nlsdata.obj
 0002:00001948       ??_C@_03CNMDKL@May?$AA@    00474948     LIBCMT:nlsdata.obj
 0002:0000194c       ??_C@_03IDFGHECI@Jun?$AA@  0047494c     LIBCMT:nlsdata.obj
 0002:00001950       ??_C@_03LBGABGKK@Jul?$AA@  00474950     LIBCMT:nlsdata.obj
 0002:00001954       ??_C@_03IFJFEIGA@Aug?$AA@  00474954     LIBCMT:nlsdata.obj
 0002:00001958       ??_C@_03GGCAPAJC@Sep?$AA@  00474958     LIBCMT:nlsdata.obj
 0002:0000195c       ??_C@_03BMAOKBAD@Oct?$AA@  0047495c     LIBCMT:nlsdata.obj
 0002:00001960       ??_C@_03JPJOFNIA@Nov?$AA@  00474960     LIBCMT:nlsdata.obj
 0002:00001964       ??_C@_03MKABNOCG@Dec?$AA@  00474964     LIBCMT:nlsdata.obj
 0002:00001968       ??_C@_07CGJPFGJA@January?$AA@ 00474968     LIBCMT:nlsdata.obj
 0002:00001970       ??_C@_08GNJGEPFN@February?$AA@ 00474970     LIBCMT:nlsdata.obj
 0002:0000197c       ??_C@_05HPCKOFNC@March?$AA@ 0047497c     LIBCMT:nlsdata.obj
 0002:00001984       ??_C@_05DMJDNLEJ@April?$AA@ 00474984     LIBCMT:nlsdata.obj
 0002:0000198c       ??_C@_04CNLMGBGM@June?$AA@ 0047498c     LIBCMT:nlsdata.obj
 0002:00001994       ??_C@_04MIEPOIFP@July?$AA@ 00474994     LIBCMT:nlsdata.obj
 0002:0000199c       ??_C@_06LBBHFDDG@August?$AA@ 0047499c     LIBCMT:nlsdata.obj
 0002:000019a4       ??_C@_09BHHEALKD@September?$AA@ 004749a4     LIBCMT:nlsdata.obj
 0002:000019b0       ??_C@_07JJNFCEND@October?$AA@ 004749b0     LIBCMT:nlsdata.obj
 0002:000019b8       ??_C@_08HCHEGEOA@November?$AA@ 004749b8     LIBCMT:nlsdata.obj
 0002:000019c4       ??_C@_08EDHMEBNP@December?$AA@ 004749c4     LIBCMT:nlsdata.obj
 0002:000019d0       ??_C@_02DEDBPAFC@AM?$AA@   004749d0     LIBCMT:nlsdata.obj
 0002:000019d4       ??_C@_02CJNFDJBF@PM?$AA@   004749d4     LIBCMT:nlsdata.obj
 0002:000019d8       ??_C@_08BPBNCDIB@MM?1dd?1yy?$AA@ 004749d8     LIBCMT:nlsdata.obj
 0002:000019e4       ??_C@_0BE@CKGJFCPC@dddd?0?5MMMM?5dd?0?5yyyy?$AA@ 004749e4     LIBCMT:nlsdata.obj
 0002:000019f8       ??_C@_08JCCMCCIL@HH?3mm?3ss?$AA@ 004749f8     LIBCMT:nlsdata.obj
 0002:00001a04       ??_C@_17MBGCMIPB@?$AAS?$AAu?$AAn?$AA?$AA@ 00474a04     LIBCMT:nlsdata.obj
 0002:00001a0c       ??_C@_17KBOMKBF@?$AAM?$AAo?$AAn?$AA?$AA@ 00474a0c     LIBCMT:nlsdata.obj
 0002:00001a14       ??_C@_17BMKGEGOJ@?$AAT?$AAu?$AAe?$AA?$AA@ 00474a14     LIBCMT:nlsdata.obj
 0002:00001a1c       ??_C@_17CJEDCEPE@?$AAW?$AAe?$AAd?$AA?$AA@ 00474a1c     LIBCMT:nlsdata.obj
 0002:00001a24       ??_C@_17PDPHAADD@?$AAT?$AAh?$AAu?$AA?$AA@ 00474a24     LIBCMT:nlsdata.obj
 0002:00001a2c       ??_C@_17HFOLPPLP@?$AAF?$AAr?$AAi?$AA?$AA@ 00474a2c     LIBCMT:nlsdata.obj
 0002:00001a34       ??_C@_17GGIBDPIH@?$AAS?$AAa?$AAt?$AA?$AA@ 00474a34     LIBCMT:nlsdata.obj
 0002:00001a3c       ??_C@_1O@IHNHDHPB@?$AAS?$AAu?$AAn?$AAd?$AAa?$AAy?$AA?$AA@ 00474a3c     LIBCMT:nlsdata.obj
 0002:00001a4c       ??_C@_1O@MMNBFLIA@?$AAM?$AAo?$AAn?$AAd?$AAa?$AAy?$AA?$AA@ 00474a4c     LIBCMT:nlsdata.obj
 0002:00001a5c       ??_C@_1BA@ENFBFFEK@?$AAT?$AAu?$AAe?$AAs?$AAd?$AAa?$AAy?$AA?$AA@ 00474a5c     LIBCMT:nlsdata.obj
 0002:00001a6c       ??_C@_1BE@EBOGMDOH@?$AAW?$AAe?$AAd?$AAn?$AAe?$AAs?$AAd?$AAa?$AAy?$AA?$AA@ 00474a6c     LIBCMT:nlsdata.obj
 0002:00001a80       ??_C@_1BC@HHMNLIHE@?$AAT?$AAh?$AAu?$AAr?$AAs?$AAd?$AAa?$AAy?$AA?$AA@ 00474a80     LIBCMT:nlsdata.obj
 0002:00001a94       ??_C@_1O@PDICJHAG@?$AAF?$AAr?$AAi?$AAd?$AAa?$AAy?$AA?$AA@ 00474a94     LIBCMT:nlsdata.obj
 0002:00001aa4       ??_C@_1BC@ENMNNPAJ@?$AAS?$AAa?$AAt?$AAu?$AAr?$AAd?$AAa?$AAy?$AA?$AA@ 00474aa4     LIBCMT:nlsdata.obj
 0002:00001ab8       ??_C@_17DKNBKCHM@?$AAJ?$AAa?$AAn?$AA?$AA@ 00474ab8     LIBCMT:nlsdata.obj
 0002:00001ac0       ??_C@_17LMDJEKJN@?$AAF?$AAe?$AAb?$AA?$AA@ 00474ac0     LIBCMT:nlsdata.obj
 0002:00001ac8       ??_C@_17CKNLEDEC@?$AAM?$AAa?$AAr?$AA?$AA@ 00474ac8     LIBCMT:nlsdata.obj
 0002:00001ad0       ??_C@_17LFPOIHDD@?$AAA?$AAp?$AAr?$AA?$AA@ 00474ad0     LIBCMT:nlsdata.obj
 0002:00001ad8       ??_C@_17PNNKMEED@?$AAM?$AAa?$AAy?$AA?$AA@ 00474ad8     LIBCMT:nlsdata.obj
 0002:00001ae0       ??_C@_17KCJGOCPB@?$AAJ?$AAu?$AAn?$AA?$AA@ 00474ae0     LIBCMT:nlsdata.obj
 0002:00001ae8       ??_C@_17IJPCKHK@?$AAJ?$AAu?$AAl?$AA?$AA@ 00474ae8     LIBCMT:nlsdata.obj
 0002:00001af0       ??_C@_17ICPELBCN@?$AAA?$AAu?$AAg?$AA?$AA@ 00474af0     LIBCMT:nlsdata.obj
 0002:00001af8       ??_C@_17HCHCOKMG@?$AAS?$AAe?$AAp?$AA?$AA@ 00474af8     LIBCMT:nlsdata.obj
 0002:00001b00       ??_C@_17FNLKOI@?$AAO?$AAc?$AAt?$AA?$AA@ 00474b00     LIBCMT:nlsdata.obj
 0002:00001b08       ??_C@_17BBDMLCIG@?$AAN?$AAo?$AAv?$AA?$AA@ 00474b08     LIBCMT:nlsdata.obj
 0002:00001b10       ??_C@_17EGKACKIF@?$AAD?$AAe?$AAc?$AA?$AA@ 00474b10     LIBCMT:nlsdata.obj
 0002:00001b18       ??_C@_1BA@EFMEIEBA@?$AAJ?$AAa?$AAn?$AAu?$AAa?$AAr?$AAy?$AA?$AA@ 00474b18     LIBCMT:nlsdata.obj
 0002:00001b28       ??_C@_1BC@JGDDFFAM@?$AAF?$AAe?$AAb?$AAr?$AAu?$AAa?$AAr?$AAy?$AA?$AA@ 00474b28     LIBCMT:nlsdata.obj
 0002:00001b3c       ??_C@_1M@IKEENEDF@?$AAM?$AAa?$AAr?$AAc?$AAh?$AA?$AA@ 00474b3c     LIBCMT:nlsdata.obj
 0002:00001b48       ??_C@_1M@GJNLMHFD@?$AAA?$AAp?$AAr?$AAi?$AAl?$AA?$AA@ 00474b48     LIBCMT:nlsdata.obj
 0002:00001b54       ??_C@_19EPFLPGAP@?$AAJ?$AAu?$AAn?$AAe?$AA?$AA@ 00474b54     LIBCMT:nlsdata.obj
 0002:00001b60       ??_C@_19BIFMLPCD@?$AAJ?$AAu?$AAl?$AAy?$AA?$AA@ 00474b60     LIBCMT:nlsdata.obj
 0002:00001b6c       ??_C@_1O@PAHLKOAC@?$AAA?$AAu?$AAg?$AAu?$AAs?$AAt?$AA?$AA@ 00474b6c     LIBCMT:nlsdata.obj
 0002:00001b7c       ??_C@_1BE@DKAAMBJL@?$AAS?$AAe?$AAp?$AAt?$AAe?$AAm?$AAb?$AAe?$AAr?$AA?$AA@ 00474b7c     LIBCMT:nlsdata.obj
 0002:00001b90       ??_C@_1BA@EPANDLNG@?$AAO?$AAc?$AAt?$AAo?$AAb?$AAe?$AAr?$AA?$AA@ 00474b90     LIBCMT:nlsdata.obj
 0002:00001ba0       ??_C@_1BC@BGLIFPF@?$AAN?$AAo?$AAv?$AAe?$AAm?$AAb?$AAe?$AAr?$AA?$AA@ 00474ba0     LIBCMT:nlsdata.obj
 0002:00001bb4       ??_C@_1BC@FEMKIFH@?$AAD?$AAe?$AAc?$AAe?$AAm?$AAb?$AAe?$AAr?$AA?$AA@ 00474bb4     LIBCMT:nlsdata.obj
 0002:00001bc8       ??_C@_15ODEHAHHF@?$AAA?$AAM?$AA?$AA@ 00474bc8     LIBCMT:nlsdata.obj
 0002:00001bd0       ??_C@_15CLMNNGEL@?$AAP?$AAM?$AA?$AA@ 00474bd0     LIBCMT:nlsdata.obj
 0002:00001bd8       ??_C@_1BC@IEBCMHCM@?$AAM?$AAM?$AA?1?$AAd?$AAd?$AA?1?$AAy?$AAy?$AA?$AA@ 00474bd8     LIBCMT:nlsdata.obj
 0002:00001bec       ??_C@_1CI@KNAKOEBC@?$AAd?$AAd?$AAd?$AAd?$AA?0?$AA?5?$AAM?$AAM?$AAM?$AAM?$AA?5?$AAd?$AAd?$AA?0?$AA?5?$AAy?$AAy?$AAy?$AAy?$AA?$AA@ 00474bec     LIBCMT:nlsdata.obj
 0002:00001c14       ??_C@_1BC@GDGBMEMK@?$AAH?$AAH?$AA?3?$AAm?$AAm?$AA?3?$AAs?$AAs?$AA?$AA@ 00474c14     LIBCMT:nlsdata.obj
 0002:00001c28       ??_C@_1M@BMHNFIME@?$AAe?$AAn?$AA?9?$AAU?$AAS?$AA?$AA@ 00474c28     LIBCMT:nlsdata.obj
 0002:00001c38       ___lc_category             00474c38     LIBCMT:wsetloca.obj
 0002:00001c80       ??_C@_1O@GIFLHMA@?$AAL?$AAC?$AA_?$AAA?$AAL?$AAL?$AA?$AA@ 00474c80     LIBCMT:wsetloca.obj
 0002:00001c90       ??_C@_1BG@PPOMIBNJ@?$AAL?$AAC?$AA_?$AAC?$AAO?$AAL?$AAL?$AAA?$AAT?$AAE?$AA?$AA@ 00474c90     LIBCMT:wsetloca.obj
 0002:00001ca8       ??_C@_1BC@FFJGAPJM@?$AAL?$AAC?$AA_?$AAC?$AAT?$AAY?$AAP?$AAE?$AA?$AA@ 00474ca8     LIBCMT:wsetloca.obj
 0002:00001cbc       ??_C@_1BI@PCKFNJFB@?$AAL?$AAC?$AA_?$AAM?$AAO?$AAN?$AAE?$AAT?$AAA?$AAR?$AAY?$AA?$AA@ 00474cbc     LIBCMT:wsetloca.obj
 0002:00001cd4       ??_C@_1BG@ENIEDKID@?$AAL?$AAC?$AA_?$AAN?$AAU?$AAM?$AAE?$AAR?$AAI?$AAC?$AA?$AA@ 00474cd4     LIBCMT:wsetloca.obj
 0002:00001cec       ??_C@_1BA@HAAOMIIG@?$AAL?$AAC?$AA_?$AAT?$AAI?$AAM?$AAE?$AA?$AA@ 00474cec     LIBCMT:wsetloca.obj
 0002:00001d80       ??_C@_15NBPDDFIP@?$AA?$DN?$AA?$DL?$AA?$AA@ 00474d80     LIBCMT:wsetloca.obj
 0002:00001d88       ??_C@_13PJJBFPED@?$AA?$DL?$AA?$AA@ 00474d88     LIBCMT:wsetloca.obj
 0002:00001d8c       ??_C@_13NMPKAAJP@?$AA?$DN?$AA?$AA@ 00474d8c     LIBCMT:wsetloca.obj
 0002:00001d90       ??_C@_13FHBKNHDA@?$AAC?$AA?$AA@ 00474d90     LIBCMT:wsetloca.obj
 0002:00001d94       ??_C@_17MBJJLFDM@?$AA_?$AA?4?$AA?0?$AA?$AA@ 00474d94     LIBCMT:wsetloca.obj
 0002:00001d9c       ??_C@_13ENNFDPBH@?$AA_?$AA?$AA@ 00474d9c     LIBCMT:wsetloca.obj
 0002:00001da0       ??_C@_13JOFGPIOO@?$AA?4?$AA?$AA@ 00474da0     LIBCMT:wsetloca.obj
 0002:00001da8       ??_7exception@std@@6B@     00474da8     LIBCMT:stdexcpt.obj
 0002:00001db0       ??_C@_0BC@EOODALEL@Unknown?5exception?$AA@ 00474db0     LIBCMT:stdexcpt.obj
 0002:00001dc8       ??_7bad_cast@std@@6B@      00474dc8     LIBCMT:stdexcpt.obj
 0002:00001dd4       ??_7bad_typeid@std@@6B@    00474dd4     LIBCMT:stdexcpt.obj
 0002:00001de0       ??_7__non_rtti_object@std@@6B@ 00474de0     LIBCMT:stdexcpt.obj
 0002:00001e08       ??_C@_1M@PBPMMENC@?$AAa?$AAm?$AA?1?$AAp?$AAm?$AA?$AA@ 00474e08     LIBCMT:wcsftime.obj
 0002:00001e14       ??_C@_17BLFJJHMM@?$AAa?$AA?1?$AAp?$AA?$AA@ 00474e14     LIBCMT:wcsftime.obj
 0002:00001e1c       ??_C@_1BG@GOEBHBDC@?$AAU?$AAS?$AAE?$AAR?$AA3?$AA2?$AA?4?$AAD?$AAL?$AAL?$AA?$AA@ 00474e1c     LIBCMT:crtmboxw.obj
 0002:00001e34       ??_C@_0M@DLDCCGNP@MessageBoxW?$AA@ 00474e34     LIBCMT:crtmboxw.obj
 0002:00001e40       ??_C@_0BA@HNOPNCHB@GetActiveWindow?$AA@ 00474e40     LIBCMT:crtmboxw.obj
 0002:00001e50       ??_C@_0BD@HHGDFDBJ@GetLastActivePopup?$AA@ 00474e50     LIBCMT:crtmboxw.obj
 0002:00001e64       ??_C@_0BK@DEKFELLI@GetUserObjectInformationW?$AA@ 00474e64     LIBCMT:crtmboxw.obj
 0002:00001e80       ??_C@_0BI@DFKBFLJE@GetProcessWindowStation?$AA@ 00474e80     LIBCMT:crtmboxw.obj
 0002:00001e98       _LcidToLocaleNameTable     00474e98     LIBCMT:winapinls.obj
 0002:000025b8       _LocaleNameToIndexTable    004755b8     LIBCMT:winapinls.obj
 0002:00002cd8       ??_C@_15EMKDOKLE@?$AAa?$AAr?$AA?$AA@ 00475cd8     LIBCMT:winapinls.obj
 0002:00002ce0       ??_C@_15KNPADPLH@?$AAb?$AAg?$AA?$AA@ 00475ce0     LIBCMT:winapinls.obj
 0002:00002ce8       ??_C@_15EDMHLDMO@?$AAc?$AAa?$AA?$AA@ 00475ce8     LIBCMT:winapinls.obj
 0002:00002cf0       ??_C@_1O@BPEAJADD@?$AAz?$AAh?$AA?9?$AAC?$AAH?$AAS?$AA?$AA@ 00475cf0     LIBCMT:winapinls.obj
 0002:00002d00       ??_C@_15LJNHCMNK@?$AAc?$AAs?$AA?$AA@ 00475d00     LIBCMT:winapinls.obj
 0002:00002d08       ??_C@_15FOMCIDHG@?$AAd?$AAa?$AA?$AA@ 00475d08     LIBCMT:winapinls.obj
 0002:00002d10       ??_C@_15NBKABECB@?$AAd?$AAe?$AA?$AA@ 00475d10     LIBCMT:winapinls.obj
 0002:00002d18       ??_C@_15GHPEIIAO@?$AAe?$AAl?$AA?$AA@ 00475d18     LIBCMT:winapinls.obj
 0002:00002d20       ??_C@_15MNPNEAIF@?$AAe?$AAn?$AA?$AA@ 00475d20     LIBCMT:winapinls.obj
 0002:00002d28       ??_C@_15GPIOMPMH@?$AAe?$AAs?$AA?$AA@ 00475d28     LIBCMT:winapinls.obj
 0002:00002d30       ??_C@_15NGLOAKJC@?$AAf?$AAi?$AA?$AA@ 00475d30     LIBCMT:winapinls.obj
 0002:00002d38       ??_C@_15FBKGNKAM@?$AAf?$AAr?$AA?$AA@ 00475d38     LIBCMT:winapinls.obj
 0002:00002d40       ??_C@_15KGGCNEFK@?$AAh?$AAe?$AA?$AA@ 00475d40     LIBCMT:winapinls.obj
 0002:00002d48       ??_C@_15PGHLIDMF@?$AAh?$AAu?$AA?$AA@ 00475d48     LIBCMT:winapinls.obj
 0002:00002d50       ??_C@_15BIEMAPLM@?$AAi?$AAs?$AA?$AA@ 00475d50     LIBCMT:winapinls.obj
 0002:00002d58       ??_C@_15IFJLDHAF@?$AAi?$AAt?$AA?$AA@ 00475d58     LIBCMT:winapinls.obj
 0002:00002d60       ??_C@_15GEMIOCAG@?$AAj?$AAa?$AA?$AA@ 00475d60     LIBCMT:winapinls.obj
 0002:00002d68       ??_C@_15EPELEGJA@?$AAk?$AAo?$AA?$AA@ 00475d68     LIBCMT:winapinls.obj
 0002:00002d70       ??_C@_15NDDHIMN@?$AAn?$AAl?$AA?$AA@ 00475d70     LIBCMT:winapinls.obj
 0002:00002d78       ??_C@_15BPIGNHCD@?$AAn?$AAo?$AA?$AA@ 00475d78     LIBCMT:winapinls.obj
 0002:00002d80       ??_C@_15DEOPBLCG@?$AAp?$AAl?$AA?$AA@ 00475d80     LIBCMT:winapinls.obj
 0002:00002d88       ??_C@_15KBECGEFG@?$AAp?$AAt?$AA?$AA@ 00475d88     LIBCMT:winapinls.obj
 0002:00002d90       ??_C@_15GLJCBFMD@?$AAr?$AAo?$AA?$AA@ 00475d90     LIBCMT:winapinls.obj
 0002:00002d98       ??_C@_15FEDGKCDI@?$AAr?$AAu?$AA?$AA@ 00475d98     LIBCMT:winapinls.obj
 0002:00002da0       ??_C@_15GLKMLLHM@?$AAh?$AAr?$AA?$AA@ 00475da0     LIBCMT:winapinls.obj
 0002:00002da8       ??_C@_15CPKMFBDB@?$AAs?$AAk?$AA?$AA@ 00475da8     LIBCMT:winapinls.obj
 0002:00002db0       ??_C@_15BAAIOGMK@?$AAs?$AAq?$AA?$AA@ 00475db0     LIBCMT:winapinls.obj
 0002:00002db8       ??_C@_15INNPNOHD@?$AAs?$AAv?$AA?$AA@ 00475db8     LIBCMT:winapinls.obj
 0002:00002dc0       ??_C@_15CABMMOGH@?$AAt?$AAh?$AA?$AA@ 00475dc0     LIBCMT:winapinls.obj
 0002:00002dc8       ??_C@_15BPLIHJJM@?$AAt?$AAr?$AA?$AA@ 00475dc8     LIBCMT:winapinls.obj
 0002:00002dd0       ??_C@_15NEOEKKDJ@?$AAu?$AAr?$AA?$AA@ 00475dd0     LIBCMT:winapinls.obj
 0002:00002dd8       ??_C@_15NFICGAJK@?$AAi?$AAd?$AA?$AA@ 00475dd8     LIBCMT:winapinls.obj
 0002:00002de0       ??_C@_15PJPFLCCM@?$AAu?$AAk?$AA?$AA@ 00475de0     LIBCMT:winapinls.obj
 0002:00002de8       ??_C@_15HPJPHDM@?$AAb?$AAe?$AA?$AA@ 00475de8     LIBCMT:winapinls.obj
 0002:00002df0       ??_C@_15LCHLGJII@?$AAs?$AAl?$AA?$AA@ 00475df0     LIBCMT:winapinls.obj
 0002:00002df8       ??_C@_15PCFJPHHO@?$AAe?$AAt?$AA?$AA@ 00475df8     LIBCMT:winapinls.obj
 0002:00002e00       ??_C@_15HPFPGODN@?$AAl?$AAv?$AA?$AA@ 00475e00     LIBCMT:winapinls.obj
 0002:00002e08       ??_C@_15NFFGKGLG@?$AAl?$AAt?$AA?$AA@ 00475e08     LIBCMT:winapinls.obj
 0002:00002e10       ??_C@_15BDAKCCHN@?$AAf?$AAa?$AA?$AA@ 00475e10     LIBCMT:winapinls.obj
 0002:00002e18       ??_C@_15NFGIAIAJ@?$AAv?$AAi?$AA?$AA@ 00475e18     LIBCMT:winapinls.obj
 0002:00002e20       ??_C@_15LMKNDMHN@?$AAh?$AAy?$AA?$AA@ 00475e20     LIBCMT:winapinls.obj
 0002:00002e28       ??_C@_15IJBHMCFL@?$AAa?$AAz?$AA?$AA@ 00475e28     LIBCMT:winapinls.obj
 0002:00002e30       ??_C@_15EKOFJABL@?$AAe?$AAu?$AA?$AA@ 00475e30     LIBCMT:winapinls.obj
 0002:00002e38       ??_C@_15BGHADCNK@?$AAm?$AAk?$AA?$AA@ 00475e38     LIBCMT:winapinls.obj
 0002:00002e40       ??_C@_15JDNICKHM@?$AAa?$AAf?$AA?$AA@ 00475e40     LIBCMT:winapinls.obj
 0002:00002e48       ??_C@_15KPJEDBKD@?$AAk?$AAa?$AA?$AA@ 00475e48     LIBCMT:winapinls.obj
 0002:00002e50       ??_C@_15PDNFFFEO@?$AAf?$AAo?$AA?$AA@ 00475e50     LIBCMT:winapinls.obj
 0002:00002e58       ??_C@_15OMLEGLOC@?$AAh?$AAi?$AA?$AA@ 00475e58     LIBCMT:winapinls.obj
 0002:00002e60       ??_C@_15IDNNENKK@?$AAm?$AAs?$AA?$AA@ 00475e60     LIBCMT:winapinls.obj
 0002:00002e68       ??_C@_15MACJNBMH@?$AAk?$AAk?$AA?$AA@ 00475e68     LIBCMT:winapinls.obj
 0002:00002e70       ??_C@_15DKDJEOND@?$AAk?$AAy?$AA?$AA@ 00475e70     LIBCMT:winapinls.obj
 0002:00002e78       ??_C@_15DFGDLJBG@?$AAs?$AAw?$AA?$AA@ 00475e78     LIBCMT:winapinls.obj
 0002:00002e80       ??_C@_15BBFAICNG@?$AAu?$AAz?$AA?$AA@ 00475e80     LIBCMT:winapinls.obj
 0002:00002e88       ??_C@_15DKNDCGEA@?$AAt?$AAt?$AA?$AA@ 00475e88     LIBCMT:winapinls.obj
 0002:00002e90       ??_C@_15MGIFMDPL@?$AAp?$AAa?$AA?$AA@ 00475e90     LIBCMT:winapinls.obj
 0002:00002e98       ??_C@_15HCNDBBA@?$AAg?$AAu?$AA?$AA@ 00475e98     LIBCMT:winapinls.obj
 0002:00002ea0       ??_C@_15FNBEIBON@?$AAt?$AAa?$AA?$AA@ 00475ea0     LIBCMT:winapinls.obj
 0002:00002ea8       ??_C@_15NCHGBGLK@?$AAt?$AAe?$AA?$AA@ 00475ea8     LIBCMT:winapinls.obj
 0002:00002eb0       ??_C@_15PHPHCBPF@?$AAk?$AAn?$AA?$AA@ 00475eb0     LIBCMT:winapinls.obj
 0002:00002eb8       ??_C@_15DLGBCKMP@?$AAm?$AAr?$AA?$AA@ 00475eb8     LIBCMT:winapinls.obj
 0002:00002ec0       ??_C@_15EABBLBFF@?$AAs?$AAa?$AA?$AA@ 00475ec0     LIBCMT:winapinls.obj
 0002:00002ec8       ??_C@_15CBKOMCOI@?$AAm?$AAn?$AA?$AA@ 00475ec8     LIBCMT:winapinls.obj
 0002:00002ed0       ??_C@_15CKDMCJAF@?$AAg?$AAl?$AA?$AA@ 00475ed0     LIBCMT:winapinls.obj
 0002:00002ed8       ??_C@_17CNJFBPG@?$AAk?$AAo?$AAk?$AA?$AA@ 00475ed8     LIBCMT:winapinls.obj
 0002:00002ee0       ??_C@_17FFBJICPL@?$AAs?$AAy?$AAr?$AA?$AA@ 00475ee0     LIBCMT:winapinls.obj
 0002:00002ee8       ??_C@_17KPNDCPAF@?$AAd?$AAi?$AAv?$AA?$AA@ 00475ee8     LIBCMT:winapinls.obj
 0002:00002ef0       ??_C@_11LOCGONAA@?$AA?$AA@ 00475ef0     LIBCMT:winapinls.obj
 0002:00002ef4       ??_C@_1M@OKAHONE@?$AAa?$AAr?$AA?9?$AAS?$AAA?$AA?$AA@ 00475ef4     LIBCMT:winapinls.obj
 0002:00002f00       ??_C@_1M@FFFIGIGK@?$AAb?$AAg?$AA?9?$AAB?$AAG?$AA?$AA@ 00475f00     LIBCMT:winapinls.obj
 0002:00002f0c       ??_C@_1M@BJNKEDC@?$AAc?$AAa?$AA?9?$AAE?$AAS?$AA?$AA@ 00475f0c     LIBCMT:winapinls.obj
 0002:00002f18       ??_C@_1M@IJJHFJHA@?$AAc?$AAs?$AA?9?$AAC?$AAZ?$AA?$AA@ 00475f18     LIBCMT:winapinls.obj
 0002:00002f24       ??_C@_1M@CLPEOBGI@?$AAd?$AAa?$AA?9?$AAD?$AAK?$AA?$AA@ 00475f24     LIBCMT:winapinls.obj
 0002:00002f30       ??_C@_1M@MCMADGCB@?$AAd?$AAe?$AA?9?$AAD?$AAE?$AA?$AA@ 00475f30     LIBCMT:winapinls.obj
 0002:00002f3c       ??_C@_1M@OOCKEMAM@?$AAe?$AAl?$AA?9?$AAG?$AAR?$AA?$AA@ 00475f3c     LIBCMT:winapinls.obj
 0002:00002f48       ??_C@_1M@DDNJFGID@?$AAf?$AAi?$AA?9?$AAF?$AAI?$AA?$AA@ 00475f48     LIBCMT:winapinls.obj
 0002:00002f54       ??_C@_1M@GLIPPMAC@?$AAf?$AAr?$AA?9?$AAF?$AAR?$AA?$AA@ 00475f54     LIBCMT:winapinls.obj
 0002:00002f60       ??_C@_1M@GFMCHPE@?$AAh?$AAe?$AA?9?$AAI?$AAL?$AA?$AA@ 00475f60     LIBCMT:winapinls.obj
 0002:00002f6c       ??_C@_1M@MHLPGNKM@?$AAh?$AAu?$AA?9?$AAH?$AAU?$AA?$AA@ 00475f6c     LIBCMT:winapinls.obj
 0002:00002f78       ??_C@_1M@LPDDNNPN@?$AAi?$AAs?$AA?9?$AAI?$AAS?$AA?$AA@ 00475f78     LIBCMT:winapinls.obj
 0002:00002f84       ??_C@_1M@MADIPODN@?$AAi?$AAt?$AA?9?$AAI?$AAT?$AA?$AA@ 00475f84     LIBCMT:winapinls.obj
 0002:00002f90       ??_C@_1M@IHBJJGG@?$AAn?$AAl?$AA?9?$AAN?$AAL?$AA?$AA@ 00475f90     LIBCMT:winapinls.obj
 0002:00002f9c       ??_C@_1M@EANAGDL@?$AAn?$AAb?$AA?9?$AAN?$AAO?$AA?$AA@ 00475f9c     LIBCMT:winapinls.obj
 0002:00002fa8       ??_C@_1M@NEIEMEGP@?$AAp?$AAl?$AA?9?$AAP?$AAL?$AA?$AA@ 00475fa8     LIBCMT:winapinls.obj
 0002:00002fb4       ??_C@_1M@BOCFIGEP@?$AAp?$AAt?$AA?9?$AAB?$AAR?$AA?$AA@ 00475fb4     LIBCMT:winapinls.obj
 0002:00002fc0       ??_C@_1M@IMPFOPBG@?$AAr?$AAo?$AA?9?$AAR?$AAO?$AA?$AA@ 00475fc0     LIBCMT:winapinls.obj
 0002:00002fcc       ??_C@_1M@IDNNEJMM@?$AAr?$AAu?$AA?9?$AAR?$AAU?$AA?$AA@ 00475fcc     LIBCMT:winapinls.obj
 0002:00002fd8       ??_C@_1M@LILEEOGM@?$AAh?$AAr?$AA?9?$AAH?$AAR?$AA?$AA@ 00475fd8     LIBCMT:winapinls.obj
 0002:00002fe4       ??_C@_1M@FKIFEHPB@?$AAs?$AAk?$AA?9?$AAS?$AAK?$AA?$AA@ 00475fe4     LIBCMT:winapinls.obj
 0002:00002ff0       ??_C@_1M@LJMAMNPJ@?$AAs?$AAq?$AA?9?$AAA?$AAL?$AA?$AA@ 00475ff0     LIBCMT:winapinls.obj
 0002:00002ffc       ??_C@_1M@GIAKDKJK@?$AAs?$AAv?$AA?9?$AAS?$AAE?$AA?$AA@ 00475ffc     LIBCMT:winapinls.obj
 0002:00003008       ??_C@_1M@MKJKIKCL@?$AAt?$AAh?$AA?9?$AAT?$AAH?$AA?$AA@ 00476008     LIBCMT:winapinls.obj
 0002:00003014       ??_C@_1M@MFLCCMPB@?$AAt?$AAr?$AA?9?$AAT?$AAR?$AA?$AA@ 00476014     LIBCMT:winapinls.obj
 0002:00003020       ??_C@_1M@OIJHDKJN@?$AAu?$AAr?$AA?9?$AAP?$AAK?$AA?$AA@ 00476020     LIBCMT:winapinls.obj
 0002:0000302c       ??_C@_1M@LHIPCIEK@?$AAi?$AAd?$AA?9?$AAI?$AAD?$AA?$AA@ 0047602c     LIBCMT:winapinls.obj
 0002:00003038       ??_C@_1M@MFMOBGI@?$AAu?$AAk?$AA?9?$AAU?$AAA?$AA?$AA@ 00476038     LIBCMT:winapinls.obj
 0002:00003044       ??_C@_1M@OBGLJIPL@?$AAb?$AAe?$AA?9?$AAB?$AAY?$AA?$AA@ 00476044     LIBCMT:winapinls.obj
 0002:00003050       ??_C@_1M@BCFAJEAD@?$AAs?$AAl?$AA?9?$AAS?$AAI?$AA?$AA@ 00476050     LIBCMT:winapinls.obj
 0002:0000305c       ??_C@_1M@FKFFEDDN@?$AAe?$AAt?$AA?9?$AAE?$AAE?$AA?$AA@ 0047605c     LIBCMT:winapinls.obj
 0002:00003068       ??_C@_1M@KGKKAACI@?$AAl?$AAv?$AA?9?$AAL?$AAV?$AA?$AA@ 00476068     LIBCMT:winapinls.obj
 0002:00003074       ??_C@_1M@IFGBIJO@?$AAl?$AAt?$AA?9?$AAL?$AAT?$AA?$AA@ 00476074     LIBCMT:winapinls.obj
 0002:00003080       ??_C@_1M@FGEAHEDM@?$AAf?$AAa?$AA?9?$AAI?$AAR?$AA?$AA@ 00476080     LIBCMT:winapinls.obj
 0002:0000308c       ??_C@_1M@KBMAIBFN@?$AAv?$AAi?$AA?9?$AAV?$AAN?$AA?$AA@ 0047608c     LIBCMT:winapinls.obj
 0002:00003098       ??_C@_1M@GPCBKDJK@?$AAh?$AAy?$AA?9?$AAA?$AAM?$AA?$AA@ 00476098     LIBCMT:winapinls.obj
 0002:000030a4       ??_C@_1BG@BECMDDJB@?$AAa?$AAz?$AA?9?$AAA?$AAZ?$AA?9?$AAL?$AAa?$AAt?$AAn?$AA?$AA@ 004760a4     LIBCMT:winapinls.obj
 0002:000030bc       ??_C@_1M@MAOFCAEA@?$AAe?$AAu?$AA?9?$AAE?$AAS?$AA?$AA@ 004760bc     LIBCMT:winapinls.obj
 0002:000030c8       ??_C@_1M@IGHABKPI@?$AAm?$AAk?$AA?9?$AAM?$AAK?$AA?$AA@ 004760c8     LIBCMT:winapinls.obj
 0002:000030d4       ??_C@_1M@IAIGNEJG@?$AAt?$AAn?$AA?9?$AAZ?$AAA?$AA?$AA@ 004760d4     LIBCMT:winapinls.obj
 0002:000030e0       ??_C@_1M@IIJCOJFA@?$AAx?$AAh?$AA?9?$AAZ?$AAA?$AA?$AA@ 004760e0     LIBCMT:winapinls.obj
 0002:000030ec       ??_C@_1M@LGPJHNJH@?$AAz?$AAu?$AA?9?$AAZ?$AAA?$AA?$AA@ 004760ec     LIBCMT:winapinls.obj
 0002:000030f8       ??_C@_1M@HOKAOIO@?$AAa?$AAf?$AA?9?$AAZ?$AAA?$AA?$AA@ 004760f8     LIBCMT:winapinls.obj
 0002:00003104       ??_C@_1M@DPCLHLIE@?$AAk?$AAa?$AA?9?$AAG?$AAE?$AA?$AA@ 00476104     LIBCMT:winapinls.obj
 0002:00003110       ??_C@_1M@BLKMHJBI@?$AAf?$AAo?$AA?9?$AAF?$AAO?$AA?$AA@ 00476110     LIBCMT:winapinls.obj
 0002:0000311c       ??_C@_1M@LGGJAPPB@?$AAh?$AAi?$AA?9?$AAI?$AAN?$AA?$AA@ 0047611c     LIBCMT:winapinls.obj
 0002:00003128       ??_C@_1M@FIKPIHFE@?$AAm?$AAt?$AA?9?$AAM?$AAT?$AA?$AA@ 00476128     LIBCMT:winapinls.obj
 0002:00003134       ??_C@_1M@HEGGPBFA@?$AAs?$AAe?$AA?9?$AAN?$AAO?$AA?$AA@ 00476134     LIBCMT:winapinls.obj
 0002:00003140       ??_C@_1M@EIBJEEPA@?$AAm?$AAs?$AA?9?$AAM?$AAY?$AA?$AA@ 00476140     LIBCMT:winapinls.obj
 0002:0000314c       ??_C@_1M@FHLBGMPP@?$AAk?$AAk?$AA?9?$AAK?$AAZ?$AA?$AA@ 0047614c     LIBCMT:winapinls.obj
 0002:00003158       ??_C@_1M@NGJJLCGI@?$AAk?$AAy?$AA?9?$AAK?$AAG?$AA?$AA@ 00476158     LIBCMT:winapinls.obj
 0002:00003164       ??_C@_1M@GIENNBFC@?$AAs?$AAw?$AA?9?$AAK?$AAE?$AA?$AA@ 00476164     LIBCMT:winapinls.obj
 0002:00003170       ??_C@_1BG@NDGMJIMJ@?$AAu?$AAz?$AA?9?$AAU?$AAZ?$AA?9?$AAL?$AAa?$AAt?$AAn?$AA?$AA@ 00476170     LIBCMT:winapinls.obj
 0002:00003188       ??_C@_1M@IDCCIHBC@?$AAt?$AAt?$AA?9?$AAR?$AAU?$AA?$AA@ 00476188     LIBCMT:winapinls.obj
 0002:00003194       ??_C@_1M@LOICPMOJ@?$AAb?$AAn?$AA?9?$AAI?$AAN?$AA?$AA@ 00476194     LIBCMT:winapinls.obj
 0002:000031a0       ??_C@_1M@KPKKNEAH@?$AAp?$AAa?$AA?9?$AAI?$AAN?$AA?$AA@ 004761a0     LIBCMT:winapinls.obj
 0002:000031ac       ??_C@_1M@PJGPPBOG@?$AAg?$AAu?$AA?9?$AAI?$AAN?$AA?$AA@ 004761ac     LIBCMT:winapinls.obj
 0002:000031b8       ??_C@_1M@KMKMOPHI@?$AAt?$AAa?$AA?9?$AAI?$AAN?$AA?$AA@ 004761b8     LIBCMT:winapinls.obj
 0002:000031c4       ??_C@_1M@KFEHEPAC@?$AAt?$AAe?$AA?9?$AAI?$AAN?$AA?$AA@ 004761c4     LIBCMT:winapinls.obj
 0002:000031d0       ??_C@_1M@CDCLMGHI@?$AAk?$AAn?$AA?9?$AAI?$AAN?$AA?$AA@ 004761d0     LIBCMT:winapinls.obj
 0002:000031dc       ??_C@_1M@MIODLDKF@?$AAm?$AAl?$AA?9?$AAI?$AAN?$AA?$AA@ 004761dc     LIBCMT:winapinls.obj
 0002:000031e8       ??_C@_1M@PBIEACPO@?$AAm?$AAr?$AA?9?$AAI?$AAN?$AA?$AA@ 004761e8     LIBCMT:winapinls.obj
 0002:000031f4       ??_C@_1M@NIDEAGPH@?$AAs?$AAa?$AA?9?$AAI?$AAN?$AA?$AA@ 004761f4     LIBCMT:winapinls.obj
 0002:00003200       ??_C@_1M@FHIHCBIO@?$AAm?$AAn?$AA?9?$AAM?$AAN?$AA?$AA@ 00476200     LIBCMT:winapinls.obj
 0002:0000320c       ??_C@_1M@JAIJPENP@?$AAc?$AAy?$AA?9?$AAG?$AAB?$AA?$AA@ 0047620c     LIBCMT:winapinls.obj
 0002:00003218       ??_C@_1M@PHGFBEPN@?$AAg?$AAl?$AA?9?$AAE?$AAS?$AA?$AA@ 00476218     LIBCMT:winapinls.obj
 0002:00003224       ??_C@_1O@KPIPDNCP@?$AAk?$AAo?$AAk?$AA?9?$AAI?$AAN?$AA?$AA@ 00476224     LIBCMT:winapinls.obj
 0002:00003234       ??_C@_1O@KNHJLDJA@?$AAs?$AAy?$AAr?$AA?9?$AAS?$AAY?$AA?$AA@ 00476234     LIBCMT:winapinls.obj
 0002:00003244       ??_C@_1O@MKEKBLAH@?$AAd?$AAi?$AAv?$AA?9?$AAM?$AAV?$AA?$AA@ 00476244     LIBCMT:winapinls.obj
 0002:00003254       ??_C@_1O@OHDCKDDF@?$AAq?$AAu?$AAz?$AA?9?$AAB?$AAO?$AA?$AA@ 00476254     LIBCMT:winapinls.obj
 0002:00003264       ??_C@_1M@LEPJNLFD@?$AAn?$AAs?$AA?9?$AAZ?$AAA?$AA?$AA@ 00476264     LIBCMT:winapinls.obj
 0002:00003270       ??_C@_1M@OMLEIIJB@?$AAm?$AAi?$AA?9?$AAN?$AAZ?$AA?$AA@ 00476270     LIBCMT:winapinls.obj
 0002:0000327c       ??_C@_1M@PMPEAILG@?$AAa?$AAr?$AA?9?$AAI?$AAQ?$AA?$AA@ 0047627c     LIBCMT:winapinls.obj
 0002:00003288       ??_C@_1M@CNKPNOEE@?$AAd?$AAe?$AA?9?$AAC?$AAH?$AA?$AA@ 00476288     LIBCMT:winapinls.obj
 0002:00003294       ??_C@_1M@LKMGMLKO@?$AAe?$AAn?$AA?9?$AAG?$AAB?$AA?$AA@ 00476294     LIBCMT:winapinls.obj
 0002:000032a0       ??_C@_1M@PGKJFFGL@?$AAe?$AAs?$AA?9?$AAM?$AAX?$AA?$AA@ 004762a0     LIBCMT:winapinls.obj
 0002:000032ac       ??_C@_1M@DNNANBDC@?$AAf?$AAr?$AA?9?$AAB?$AAE?$AA?$AA@ 004762ac     LIBCMT:winapinls.obj
 0002:000032b8       ??_C@_1M@HLGMDFHM@?$AAi?$AAt?$AA?9?$AAC?$AAH?$AA?$AA@ 004762b8     LIBCMT:winapinls.obj
 0002:000032c4       ??_C@_1M@CLLBGJH@?$AAn?$AAl?$AA?9?$AAB?$AAE?$AA?$AA@ 004762c4     LIBCMT:winapinls.obj
 0002:000032d0       ??_C@_1M@BODBOGLF@?$AAn?$AAn?$AA?9?$AAN?$AAO?$AA?$AA@ 004762d0     LIBCMT:winapinls.obj
 0002:000032dc       ??_C@_1M@HFFAHKAD@?$AAp?$AAt?$AA?9?$AAP?$AAT?$AA?$AA@ 004762dc     LIBCMT:winapinls.obj
 0002:000032e8       ??_C@_1BG@LNOAKHIE@?$AAs?$AAr?$AA?9?$AAS?$AAP?$AA?9?$AAL?$AAa?$AAt?$AAn?$AA?$AA@ 004762e8     LIBCMT:winapinls.obj
 0002:00003300       ??_C@_1M@HBMHBGAK@?$AAs?$AAv?$AA?9?$AAF?$AAI?$AA?$AA@ 00476300     LIBCMT:winapinls.obj
 0002:0000330c       ??_C@_1BG@DGCJGJBE@?$AAa?$AAz?$AA?9?$AAA?$AAZ?$AA?9?$AAC?$AAy?$AAr?$AAl?$AA?$AA@ 0047630c     LIBCMT:winapinls.obj
 0002:00003324       ??_C@_1M@KEJDAAHB@?$AAs?$AAe?$AA?9?$AAS?$AAE?$AA?$AA@ 00476324     LIBCMT:winapinls.obj
 0002:00003330       ??_C@_1M@HEIBJJAD@?$AAm?$AAs?$AA?9?$AAB?$AAN?$AA?$AA@ 00476330     LIBCMT:winapinls.obj
 0002:0000333c       ??_C@_1BG@PBGJMCEM@?$AAu?$AAz?$AA?9?$AAU?$AAZ?$AA?9?$AAC?$AAy?$AAr?$AAl?$AA?$AA@ 0047633c     LIBCMT:winapinls.obj
 0002:00003354       ??_C@_1O@LAOBCMDF@?$AAq?$AAu?$AAz?$AA?9?$AAE?$AAC?$AA?$AA@ 00476354     LIBCMT:winapinls.obj
 0002:00003364       ??_C@_1M@POEEMAIO@?$AAa?$AAr?$AA?9?$AAE?$AAG?$AA?$AA@ 00476364     LIBCMT:winapinls.obj
 0002:00003370       ??_C@_1M@EFAKDEDL@?$AAz?$AAh?$AA?9?$AAH?$AAK?$AA?$AA@ 00476370     LIBCMT:winapinls.obj
 0002:0000337c       ??_C@_1M@HKKIJHGI@?$AAd?$AAe?$AA?9?$AAA?$AAT?$AA?$AA@ 0047637c     LIBCMT:winapinls.obj
 0002:00003388       ??_C@_1M@KBFBEHJF@?$AAe?$AAn?$AA?9?$AAA?$AAU?$AA?$AA@ 00476388     LIBCMT:winapinls.obj
 0002:00003394       ??_C@_1M@MNPLFAAH@?$AAe?$AAs?$AA?9?$AAE?$AAS?$AA?$AA@ 00476394     LIBCMT:winapinls.obj
 0002:000033a0       ??_C@_1M@HJOOJFMA@?$AAf?$AAr?$AA?9?$AAC?$AAA?$AA?$AA@ 004763a0     LIBCMT:winapinls.obj
 0002:000033ac       ??_C@_1BG@JPOFPNAB@?$AAs?$AAr?$AA?9?$AAS?$AAP?$AA?9?$AAC?$AAy?$AAr?$AAl?$AA?$AA@ 004763ac     LIBCMT:winapinls.obj
 0002:000033c4       ??_C@_1M@LNFOCMOB@?$AAs?$AAe?$AA?9?$AAF?$AAI?$AA?$AA@ 004763c4     LIBCMT:winapinls.obj
 0002:000033d0       ??_C@_1O@MGJBOAMB@?$AAq?$AAu?$AAz?$AA?9?$AAP?$AAE?$AA?$AA@ 004763d0     LIBCMT:winapinls.obj
 0002:000033e0       ??_C@_1M@GJINLBOK@?$AAa?$AAr?$AA?9?$AAL?$AAY?$AA?$AA@ 004763e0     LIBCMT:winapinls.obj
 0002:000033ec       ??_C@_1M@GGMNHJNL@?$AAz?$AAh?$AA?9?$AAS?$AAG?$AA?$AA@ 004763ec     LIBCMT:winapinls.obj
 0002:000033f8       ??_C@_1M@HOIKODND@?$AAd?$AAe?$AA?9?$AAL?$AAU?$AA?$AA@ 004763f8     LIBCMT:winapinls.obj
 0002:00003404       ??_C@_1M@DDOCCGFG@?$AAe?$AAn?$AA?9?$AAC?$AAA?$AA?$AA@ 00476404     LIBCMT:winapinls.obj
 0002:00003410       ??_C@_1M@BNOEMJLF@?$AAe?$AAs?$AA?9?$AAG?$AAT?$AA?$AA@ 00476410     LIBCMT:winapinls.obj
 0002:0000341c       ??_C@_1M@EOGNKEK@?$AAf?$AAr?$AA?9?$AAC?$AAH?$AA?$AA@ 0047641c     LIBCMT:winapinls.obj
 0002:00003428       ??_C@_1M@FLIDJFHL@?$AAh?$AAr?$AA?9?$AAB?$AAA?$AA?$AA@ 00476428     LIBCMT:winapinls.obj
 0002:00003434       ??_C@_1O@FMCELNAJ@?$AAs?$AAm?$AAj?$AA?9?$AAN?$AAO?$AA?$AA@ 00476434     LIBCMT:winapinls.obj
 0002:00003444       ??_C@_1M@JHGLJMGJ@?$AAa?$AAr?$AA?9?$AAD?$AAZ?$AA?$AA@ 00476444     LIBCMT:winapinls.obj
 0002:00003450       ??_C@_1M@JKKFDCNP@?$AAz?$AAh?$AA?9?$AAM?$AAO?$AA?$AA@ 00476450     LIBCMT:winapinls.obj
 0002:0000345c       ??_C@_1M@GEEFALPE@?$AAd?$AAe?$AA?9?$AAL?$AAI?$AA?$AA@ 0047645c     LIBCMT:winapinls.obj
 0002:00003468       ??_C@_1M@IGEOFBG@?$AAe?$AAn?$AA?9?$AAN?$AAZ?$AA?$AA@ 00476468     LIBCMT:winapinls.obj
 0002:00003474       ??_C@_1M@KDBONEHP@?$AAe?$AAs?$AA?9?$AAC?$AAR?$AA?$AA@ 00476474     LIBCMT:winapinls.obj
 0002:00003480       ??_C@_1M@FHMDOHNN@?$AAf?$AAr?$AA?9?$AAL?$AAU?$AA?$AA@ 00476480     LIBCMT:winapinls.obj
 0002:0000348c       ??_C@_1BG@NFKKMAFG@?$AAb?$AAs?$AA?9?$AAB?$AAA?$AA?9?$AAL?$AAa?$AAt?$AAn?$AA?$AA@ 0047648c     LIBCMT:winapinls.obj
 0002:000034a4       ??_C@_1O@IMNBEMCI@?$AAs?$AAm?$AAj?$AA?9?$AAS?$AAE?$AA?$AA@ 004764a4     LIBCMT:winapinls.obj
 0002:000034b4       ??_C@_1M@DHHMBNDP@?$AAa?$AAr?$AA?9?$AAM?$AAA?$AA?$AA@ 004764b4     LIBCMT:winapinls.obj
 0002:000034c0       ??_C@_1M@BNBLJCGH@?$AAe?$AAn?$AA?9?$AAI?$AAE?$AA?$AA@ 004764c0     LIBCMT:winapinls.obj
 0002:000034cc       ??_C@_1M@GEPAFMDL@?$AAe?$AAs?$AA?9?$AAP?$AAA?$AA?$AA@ 004764cc     LIBCMT:winapinls.obj
 0002:000034d8       ??_C@_1M@OJONDMDL@?$AAf?$AAr?$AA?9?$AAM?$AAC?$AA?$AA@ 004764d8     LIBCMT:winapinls.obj
 0002:000034e4       ??_C@_1BG@OBCNFJB@?$AAs?$AAr?$AA?9?$AAB?$AAA?$AA?9?$AAL?$AAa?$AAt?$AAn?$AA?$AA@ 004764e4     LIBCMT:winapinls.obj
 0002:000034fc       ??_C@_1O@KEMEEGPO@?$AAs?$AAm?$AAa?$AA?9?$AAN?$AAO?$AA?$AA@ 004764fc     LIBCMT:winapinls.obj
 0002:0000350c       ??_C@_1M@ELMGFODK@?$AAa?$AAr?$AA?9?$AAT?$AAN?$AA?$AA@ 0047650c     LIBCMT:winapinls.obj
 0002:00003518       ??_C@_1M@BHDLHFAF@?$AAe?$AAn?$AA?9?$AAZ?$AAA?$AA?$AA@ 00476518     LIBCMT:winapinls.obj
 0002:00003524       ??_C@_1M@BMGIGLIF@?$AAe?$AAs?$AA?9?$AAD?$AAO?$AA?$AA@ 00476524     LIBCMT:winapinls.obj
 0002:00003530       ??_C@_1BG@CMBHIPBE@?$AAs?$AAr?$AA?9?$AAB?$AAA?$AA?9?$AAC?$AAy?$AAr?$AAl?$AA?$AA@ 00476530     LIBCMT:winapinls.obj
 0002:00003548       ??_C@_1O@HEDBLHNP@?$AAs?$AAm?$AAa?$AA?9?$AAS?$AAE?$AA?$AA@ 00476548     LIBCMT:winapinls.obj
 0002:00003558       ??_C@_1M@DAGCADIM@?$AAa?$AAr?$AA?9?$AAO?$AAM?$AA?$AA@ 00476558     LIBCMT:winapinls.obj
 0002:00003564       ??_C@_1M@FODLMICG@?$AAe?$AAn?$AA?9?$AAJ?$AAM?$AA?$AA@ 00476564     LIBCMT:winapinls.obj
 0002:00003570       ??_C@_1M@DNMLCIHB@?$AAe?$AAs?$AA?9?$AAV?$AAE?$AA?$AA@ 00476570     LIBCMT:winapinls.obj
 0002:0000357c       ??_C@_1O@EOKHMKJK@?$AAs?$AAm?$AAs?$AA?9?$AAF?$AAI?$AA?$AA@ 0047657c     LIBCMT:winapinls.obj
 0002:0000358c       ??_C@_1M@CAFJMKOF@?$AAa?$AAr?$AA?9?$AAY?$AAE?$AA?$AA@ 0047658c     LIBCMT:winapinls.obj
 0002:00003598       ??_C@_1M@CBFHIJLI@?$AAe?$AAn?$AA?9?$AAC?$AAB?$AA?$AA@ 00476598     LIBCMT:winapinls.obj
 0002:000035a4       ??_C@_1M@BGNFLDN@?$AAe?$AAs?$AA?9?$AAC?$AAO?$AA?$AA@ 004765a4     LIBCMT:winapinls.obj
 0002:000035b0       ??_C@_1O@JMPHMAMC@?$AAs?$AAm?$AAn?$AA?9?$AAF?$AAI?$AA?$AA@ 004765b0     LIBCMT:winapinls.obj
 0002:000035c0       ??_C@_1M@JLANABKE@?$AAa?$AAr?$AA?9?$AAS?$AAY?$AA?$AA@ 004765c0     LIBCMT:winapinls.obj
 0002:000035cc       ??_C@_1M@HPKGCFGN@?$AAe?$AAn?$AA?9?$AAB?$AAZ?$AA?$AA@ 004765cc     LIBCMT:winapinls.obj
 0002:000035d8       ??_C@_1M@OLJCMLGM@?$AAe?$AAs?$AA?9?$AAP?$AAE?$AA?$AA@ 004765d8     LIBCMT:winapinls.obj
 0002:000035e4       ??_C@_1M@MKKGFKLE@?$AAa?$AAr?$AA?9?$AAJ?$AAO?$AA?$AA@ 004765e4     LIBCMT:winapinls.obj
 0002:000035f0       ??_C@_1M@EKPGLDNI@?$AAe?$AAn?$AA?9?$AAT?$AAT?$AA?$AA@ 004765f0     LIBCMT:winapinls.obj
 0002:000035fc       ??_C@_1M@OONGHFHE@?$AAe?$AAs?$AA?9?$AAA?$AAR?$AA?$AA@ 004765fc     LIBCMT:winapinls.obj
 0002:00003608       ??_C@_1M@OOJFGBHE@?$AAa?$AAr?$AA?9?$AAL?$AAB?$AA?$AA@ 00476608     LIBCMT:winapinls.obj
 0002:00003614       ??_C@_1M@GCEJHNEG@?$AAe?$AAn?$AA?9?$AAZ?$AAW?$AA?$AA@ 00476614     LIBCMT:winapinls.obj
 0002:00003620       ??_C@_1M@JNOCAHJI@?$AAe?$AAs?$AA?9?$AAE?$AAC?$AA?$AA@ 00476620     LIBCMT:winapinls.obj
 0002:0000362c       ??_C@_1M@JEFHPGGB@?$AAa?$AAr?$AA?9?$AAK?$AAW?$AA?$AA@ 0047662c     LIBCMT:winapinls.obj
 0002:00003638       ??_C@_1M@MLKIBJOJ@?$AAe?$AAn?$AA?9?$AAP?$AAH?$AA?$AA@ 00476638     LIBCMT:winapinls.obj
 0002:00003644       ??_C@_1M@BDNIPEND@?$AAe?$AAs?$AA?9?$AAC?$AAL?$AA?$AA@ 00476644     LIBCMT:winapinls.obj
 0002:00003650       ??_C@_1M@MPNMEKBD@?$AAa?$AAr?$AA?9?$AAA?$AAE?$AA?$AA@ 00476650     LIBCMT:winapinls.obj
 0002:0000365c       ??_C@_1M@KBJALCPI@?$AAe?$AAs?$AA?9?$AAU?$AAY?$AA?$AA@ 0047665c     LIBCMT:winapinls.obj
 0002:00003668       ??_C@_1M@LLCCOAGA@?$AAa?$AAr?$AA?9?$AAB?$AAH?$AA?$AA@ 00476668     LIBCMT:winapinls.obj
 0002:00003674       ??_C@_1M@PBFNCDEL@?$AAe?$AAs?$AA?9?$AAP?$AAY?$AA?$AA@ 00476674     LIBCMT:winapinls.obj
 0002:00003680       ??_C@_1M@EDGINPNP@?$AAa?$AAr?$AA?9?$AAQ?$AAA?$AA?$AA@ 00476680     LIBCMT:winapinls.obj
 0002:0000368c       ??_C@_1M@MKDBIIJI@?$AAe?$AAs?$AA?9?$AAB?$AAO?$AA?$AA@ 0047668c     LIBCMT:winapinls.obj
 0002:00003698       ??_C@_1M@CPKKEBLD@?$AAe?$AAs?$AA?9?$AAS?$AAV?$AA?$AA@ 00476698     LIBCMT:winapinls.obj
 0002:000036a4       ??_C@_1M@NDBGMMJL@?$AAe?$AAs?$AA?9?$AAH?$AAN?$AA?$AA@ 004766a4     LIBCMT:winapinls.obj
 0002:000036b0       ??_C@_1M@JIJIBHDP@?$AAe?$AAs?$AA?9?$AAN?$AAI?$AA?$AA@ 004766b0     LIBCMT:winapinls.obj
 0002:000036bc       ??_C@_1M@CGFMKEEK@?$AAe?$AAs?$AA?9?$AAP?$AAR?$AA?$AA@ 004766bc     LIBCMT:winapinls.obj
 0002:000036c8       ??_C@_1O@ICJHKIIK@?$AAz?$AAh?$AA?9?$AAC?$AAH?$AAT?$AA?$AA@ 004766c8     LIBCMT:winapinls.obj
 0002:000036d8       ??_C@_15CLNEJCE@?$AAs?$AAr?$AA?$AA@ 004766d8     LIBCMT:winapinls.obj
 0002:000036e0       ??_C@_1M@KAHEKEIG@?$AAa?$AAf?$AA?9?$AAz?$AAa?$AA?$AA@ 004766e0     LIBCMT:winapinls.obj
 0002:000036ec       ??_C@_1M@GIECOABL@?$AAa?$AAr?$AA?9?$AAa?$AAe?$AA?$AA@ 004766ec     LIBCMT:winapinls.obj
 0002:000036f8       ??_C@_1M@BMLMEKGI@?$AAa?$AAr?$AA?9?$AAb?$AAh?$AA?$AA@ 004766f8     LIBCMT:winapinls.obj
 0002:00003704       ??_C@_1M@DAPFDGGB@?$AAa?$AAr?$AA?9?$AAd?$AAz?$AA?$AA@ 00476704     LIBCMT:winapinls.obj
 0002:00003710       ??_C@_1M@FJNKGKIG@?$AAa?$AAr?$AA?9?$AAe?$AAg?$AA?$AA@ 00476710     LIBCMT:winapinls.obj
 0002:0000371c       ??_C@_1M@FLGKKCLO@?$AAa?$AAr?$AA?9?$AAi?$AAq?$AA?$AA@ 0047671c     LIBCMT:winapinls.obj
 0002:00003728       ??_C@_1M@GNDIPALM@?$AAa?$AAr?$AA?9?$AAj?$AAo?$AA?$AA@ 00476728     LIBCMT:winapinls.obj
 0002:00003734       ??_C@_1M@DDMJFMGJ@?$AAa?$AAr?$AA?9?$AAk?$AAw?$AA?$AA@ 00476734     LIBCMT:winapinls.obj
 0002:00003740       ??_C@_1M@EJALMLHM@?$AAa?$AAr?$AA?9?$AAl?$AAb?$AA?$AA@ 00476740     LIBCMT:winapinls.obj
 0002:0000374c       ??_C@_1M@MOBDBLOC@?$AAa?$AAr?$AA?9?$AAl?$AAy?$AA?$AA@ 0047674c     LIBCMT:winapinls.obj
 0002:00003758       ??_C@_1M@JAOCLHDH@?$AAa?$AAr?$AA?9?$AAm?$AAa?$AA?$AA@ 00476758     LIBCMT:winapinls.obj
 0002:00003764       ??_C@_1M@JHPMKJIE@?$AAa?$AAr?$AA?9?$AAo?$AAm?$AA?$AA@ 00476764     LIBCMT:winapinls.obj
 0002:00003770       ??_C@_1M@OEPGHFNH@?$AAa?$AAr?$AA?9?$AAq?$AAa?$AA?$AA@ 00476770     LIBCMT:winapinls.obj
 0002:0000377c       ??_C@_1M@KJDONENM@?$AAa?$AAr?$AA?9?$AAs?$AAa?$AA?$AA@ 0047677c     LIBCMT:winapinls.obj
 0002:00003788       ??_C@_1M@DMJDKLKM@?$AAa?$AAr?$AA?9?$AAs?$AAy?$AA?$AA@ 00476788     LIBCMT:winapinls.obj
 0002:00003794       ??_C@_1M@OMFIPEDC@?$AAa?$AAr?$AA?9?$AAt?$AAn?$AA?$AA@ 00476794     LIBCMT:winapinls.obj
 0002:000037a0       ??_C@_1M@IHMHGAON@?$AAa?$AAr?$AA?9?$AAy?$AAe?$AA?$AA@ 004767a0     LIBCMT:winapinls.obj
 0002:000037ac       ??_C@_1BG@KDCPGJGB@?$AAa?$AAz?$AA?9?$AAa?$AAz?$AA?9?$AAc?$AAy?$AAr?$AAl?$AA?$AA@ 004767ac     LIBCMT:winapinls.obj
 0002:000037c4       ??_C@_1BG@IBCKDDOE@?$AAa?$AAz?$AA?9?$AAa?$AAz?$AA?9?$AAl?$AAa?$AAt?$AAn?$AA?$AA@ 004767c4     LIBCMT:winapinls.obj
 0002:000037dc       ??_C@_1M@EGPFDCPD@?$AAb?$AAe?$AA?9?$AAb?$AAy?$AA?$AA@ 004767dc     LIBCMT:winapinls.obj
 0002:000037e8       ??_C@_1M@PCMGMCGC@?$AAb?$AAg?$AA?9?$AAb?$AAg?$AA?$AA@ 004767e8     LIBCMT:winapinls.obj
 0002:000037f4       ??_C@_1M@BJBMFGOB@?$AAb?$AAn?$AA?9?$AAi?$AAn?$AA?$AA@ 004767f4     LIBCMT:winapinls.obj
 0002:00003800       ??_C@_1BG@EAKMMACD@?$AAb?$AAs?$AA?9?$AAb?$AAa?$AA?9?$AAl?$AAa?$AAt?$AAn?$AA?$AA@ 00476800     LIBCMT:winapinls.obj
 0002:00003818       ??_C@_1M@KGADAODK@?$AAc?$AAa?$AA?9?$AAe?$AAs?$AA?$AA@ 00476818     LIBCMT:winapinls.obj
 0002:00003824       ??_C@_1M@COAJPDHI@?$AAc?$AAs?$AA?9?$AAc?$AAz?$AA?$AA@ 00476824     LIBCMT:winapinls.obj
 0002:00003830       ??_C@_1M@DHBHFONH@?$AAc?$AAy?$AA?9?$AAg?$AAb?$AA?$AA@ 00476830     LIBCMT:winapinls.obj
 0002:0000383c       ??_C@_1M@IMGKELGA@?$AAd?$AAa?$AA?9?$AAd?$AAk?$AA?$AA@ 0047683c     LIBCMT:winapinls.obj
 0002:00003848       ??_C@_1M@NNDGDNGA@?$AAd?$AAe?$AA?9?$AAa?$AAt?$AA?$AA@ 00476848     LIBCMT:winapinls.obj
 0002:00003854       ??_C@_1M@IKDBHEEM@?$AAd?$AAe?$AA?9?$AAc?$AAh?$AA?$AA@ 00476854     LIBCMT:winapinls.obj
 0002:00003860       ??_C@_1M@GFFOJMCJ@?$AAd?$AAe?$AA?9?$AAd?$AAe?$AA?$AA@ 00476860     LIBCMT:winapinls.obj
 0002:0000386c       ??_C@_1M@MDNLKBPM@?$AAd?$AAe?$AA?9?$AAl?$AAi?$AA?$AA@ 0047686c     LIBCMT:winapinls.obj
 0002:00003878       ??_C@_1M@NJBEEJNL@?$AAd?$AAe?$AA?9?$AAl?$AAu?$AA?$AA@ 00476878     LIBCMT:winapinls.obj
 0002:00003884       ??_C@_1O@GNNELBAP@?$AAd?$AAi?$AAv?$AA?9?$AAm?$AAv?$AA?$AA@ 00476884     LIBCMT:winapinls.obj
 0002:00003894       ??_C@_1M@EJLEOGAE@?$AAe?$AAl?$AA?9?$AAg?$AAr?$AA?$AA@ 00476894     LIBCMT:winapinls.obj
 0002:000038a0       ??_C@_1M@GMPONJN@?$AAe?$AAn?$AA?9?$AAa?$AAu?$AA?$AA@ 004768a0     LIBCMT:winapinls.obj
 0002:000038ac       ??_C@_1M@NIDIIPGF@?$AAe?$AAn?$AA?9?$AAb?$AAz?$AA?$AA@ 004768ac     LIBCMT:winapinls.obj
 0002:000038b8       ??_C@_1M@JEHMIMFO@?$AAe?$AAn?$AA?9?$AAc?$AAa?$AA?$AA@ 004768b8     LIBCMT:winapinls.obj
 0002:000038c4       ??_C@_1M@IGMJCDLA@?$AAe?$AAn?$AA?9?$AAc?$AAb?$AA?$AA@ 004768c4     LIBCMT:winapinls.obj
 0002:000038d0       ??_C@_1M@BNFIGBKG@?$AAe?$AAn?$AA?9?$AAg?$AAb?$AA?$AA@ 004768d0     LIBCMT:winapinls.obj
 0002:000038dc       ??_C@_1M@LKIFDIGP@?$AAe?$AAn?$AA?9?$AAi?$AAe?$AA?$AA@ 004768dc     LIBCMT:winapinls.obj
 0002:000038e8       ??_C@_1M@PJKFGCCO@?$AAe?$AAn?$AA?9?$AAj?$AAm?$AA?$AA@ 004768e8     LIBCMT:winapinls.obj
 0002:000038f4       ??_C@_1M@KPPKEPBO@?$AAe?$AAn?$AA?9?$AAn?$AAz?$AA?$AA@ 004768f4     LIBCMT:winapinls.obj
 0002:00003900       ??_C@_1M@GMDGLDOB@?$AAe?$AAn?$AA?9?$AAp?$AAh?$AA?$AA@ 00476900     LIBCMT:winapinls.obj
 0002:0000390c       ??_C@_1M@ONGIBJNA@?$AAe?$AAn?$AA?9?$AAt?$AAt?$AA?$AA@ 0047690c     LIBCMT:winapinls.obj
 0002:00003918       ??_C@_1M@LLODPCMM@?$AAe?$AAn?$AA?9?$AAu?$AAs?$AA?$AA@ 00476918     LIBCMT:winapinls.obj
 0002:00003924       ??_C@_1M@LAKFNPAN@?$AAe?$AAn?$AA?9?$AAz?$AAa?$AA?$AA@ 00476924     LIBCMT:winapinls.obj
 0002:00003930       ??_C@_1M@MFNHNHEO@?$AAe?$AAn?$AA?9?$AAz?$AAw?$AA?$AA@ 00476930     LIBCMT:winapinls.obj
 0002:0000393c       ??_C@_1M@EJEINPHM@?$AAe?$AAs?$AA?9?$AAa?$AAr?$AA?$AA@ 0047693c     LIBCMT:winapinls.obj
 0002:00003948       ??_C@_1M@GNKPCCJA@?$AAe?$AAs?$AA?9?$AAb?$AAo?$AA?$AA@ 00476948     LIBCMT:winapinls.obj
 0002:00003954       ??_C@_1M@LEEGFONL@?$AAe?$AAs?$AA?9?$AAc?$AAl?$AA?$AA@ 00476954     LIBCMT:winapinls.obj
 0002:00003960       ??_C@_1M@KGPDPBDF@?$AAe?$AAs?$AA?9?$AAc?$AAo?$AA?$AA@ 00476960     LIBCMT:winapinls.obj
 0002:0000396c       ??_C@_1M@EIAHOHH@?$AAe?$AAs?$AA?9?$AAc?$AAr?$AA?$AA@ 0047696c     LIBCMT:winapinls.obj
 0002:00003978       ??_C@_1M@LLPGMBIN@?$AAe?$AAs?$AA?9?$AAd?$AAo?$AA?$AA@ 00476978     LIBCMT:winapinls.obj
 0002:00003984       ??_C@_1M@DKHMKNJA@?$AAe?$AAs?$AA?9?$AAe?$AAc?$AA?$AA@ 00476984     LIBCMT:winapinls.obj
 0002:00003990       ??_C@_1M@GKGFPKAP@?$AAe?$AAs?$AA?9?$AAe?$AAs?$AA?$AA@ 00476990     LIBCMT:winapinls.obj
 0002:0000399c       ??_C@_1M@LKHKGDLN@?$AAe?$AAs?$AA?9?$AAg?$AAt?$AA?$AA@ 0047699c     LIBCMT:winapinls.obj
 0002:000039a8       ??_C@_1M@HEIIGGJD@?$AAe?$AAs?$AA?9?$AAh?$AAn?$AA?$AA@ 004769a8     LIBCMT:winapinls.obj
 0002:000039b4       ??_C@_1M@FBDHPPGD@?$AAe?$AAs?$AA?9?$AAm?$AAx?$AA?$AA@ 004769b4     LIBCMT:winapinls.obj
 0002:000039c0       ??_C@_1M@DPAGLNDH@?$AAe?$AAs?$AA?9?$AAn?$AAi?$AA?$AA@ 004769c0     LIBCMT:winapinls.obj
 0002:000039cc       ??_C@_1M@MDGOPGDD@?$AAe?$AAs?$AA?9?$AAp?$AAa?$AA?$AA@ 004769cc     LIBCMT:winapinls.obj
 0002:000039d8       ??_C@_1M@EMAMGBGE@?$AAe?$AAs?$AA?9?$AAp?$AAe?$AA?$AA@ 004769d8     LIBCMT:winapinls.obj
 0002:000039e4       ??_C@_1M@IBMCAOEC@?$AAe?$AAs?$AA?9?$AAp?$AAr?$AA?$AA@ 004769e4     LIBCMT:winapinls.obj
 0002:000039f0       ??_C@_1M@FGMDIJED@?$AAe?$AAs?$AA?9?$AAp?$AAy?$AA?$AA@ 004769f0     LIBCMT:winapinls.obj
 0002:000039fc       ??_C@_1M@IIDEOLLL@?$AAe?$AAs?$AA?9?$AAs?$AAv?$AA?$AA@ 004769fc     LIBCMT:winapinls.obj
 0002:00003a08       ??_C@_1M@GAOBIPA@?$AAe?$AAs?$AA?9?$AAu?$AAy?$AA?$AA@ 00476a08     LIBCMT:winapinls.obj
 0002:00003a14       ??_C@_1M@JKFFICHJ@?$AAe?$AAs?$AA?9?$AAv?$AAe?$AA?$AA@ 00476a14     LIBCMT:winapinls.obj
 0002:00003a20       ??_C@_1M@PNMLOJDF@?$AAe?$AAt?$AA?9?$AAe?$AAe?$AA?$AA@ 00476a20     LIBCMT:winapinls.obj
 0002:00003a2c       ??_C@_1M@GHHLIKEI@?$AAe?$AAu?$AA?9?$AAe?$AAs?$AA?$AA@ 00476a2c     LIBCMT:winapinls.obj
 0002:00003a38       ??_C@_1M@PBNONODE@?$AAf?$AAa?$AA?9?$AAi?$AAr?$AA?$AA@ 00476a38     LIBCMT:winapinls.obj
 0002:00003a44       ??_C@_1M@JEEHPMIL@?$AAf?$AAi?$AA?9?$AAf?$AAi?$AA?$AA@ 00476a44     LIBCMT:winapinls.obj
 0002:00003a50       ??_C@_1M@LMDCNDBA@?$AAf?$AAo?$AA?9?$AAf?$AAo?$AA?$AA@ 00476a50     LIBCMT:winapinls.obj
 0002:00003a5c       ??_C@_1M@JKEOHLDK@?$AAf?$AAr?$AA?9?$AAb?$AAe?$AA?$AA@ 00476a5c     LIBCMT:winapinls.obj
 0002:00003a68       ??_C@_1M@NOHADPMI@?$AAf?$AAr?$AA?9?$AAc?$AAa?$AA?$AA@ 00476a68     LIBCMT:winapinls.obj
 0002:00003a74       ??_C@_1M@KDHIHAEC@?$AAf?$AAr?$AA?9?$AAc?$AAh?$AA?$AA@ 00476a74     LIBCMT:winapinls.obj
 0002:00003a80       ??_C@_1M@MMBBFGAK@?$AAf?$AAr?$AA?9?$AAf?$AAr?$AA?$AA@ 00476a80     LIBCMT:winapinls.obj
 0002:00003a8c       ??_C@_1M@PAFNENNF@?$AAf?$AAr?$AA?9?$AAl?$AAu?$AA?$AA@ 00476a8c     LIBCMT:winapinls.obj
 0002:00003a98       ??_C@_1M@EOHDJGDD@?$AAf?$AAr?$AA?9?$AAm?$AAc?$AA?$AA@ 00476a98     LIBCMT:winapinls.obj
 0002:00003aa4       ??_C@_1M@FAPLLOPF@?$AAg?$AAl?$AA?9?$AAe?$AAs?$AA?$AA@ 00476aa4     LIBCMT:winapinls.obj
 0002:00003ab0       ??_C@_1M@FOPBFLOO@?$AAg?$AAu?$AA?9?$AAi?$AAn?$AA?$AA@ 00476ab0     LIBCMT:winapinls.obj
 0002:00003abc       ??_C@_1M@KBMCINPM@?$AAh?$AAe?$AA?9?$AAi?$AAl?$AA?$AA@ 00476abc     LIBCMT:winapinls.obj
 0002:00003ac8       ??_C@_1M@BBPHKFPJ@?$AAh?$AAi?$AA?9?$AAi?$AAn?$AA?$AA@ 00476ac8     LIBCMT:winapinls.obj
 0002:00003ad4       ??_C@_1M@PMBNDPHD@?$AAh?$AAr?$AA?9?$AAb?$AAa?$AA?$AA@ 00476ad4     LIBCMT:winapinls.obj
 0002:00003ae0       ??_C@_1M@BPCKOEGE@?$AAh?$AAr?$AA?9?$AAh?$AAr?$AA?$AA@ 00476ae0     LIBCMT:winapinls.obj
 0002:00003aec       ??_C@_1M@GACBMHKE@?$AAh?$AAu?$AA?9?$AAh?$AAu?$AA?$AA@ 00476aec     LIBCMT:winapinls.obj
 0002:00003af8       ??_C@_1M@MILPAJJC@?$AAh?$AAy?$AA?9?$AAa?$AAm?$AA?$AA@ 00476af8     LIBCMT:winapinls.obj
 0002:00003b04       ??_C@_1M@BABBICEC@?$AAi?$AAd?$AA?9?$AAi?$AAd?$AA?$AA@ 00476b04     LIBCMT:winapinls.obj
 0002:00003b10       ??_C@_1M@BIKNHHPF@?$AAi?$AAs?$AA?9?$AAi?$AAs?$AA?$AA@ 00476b10     LIBCMT:winapinls.obj
 0002:00003b1c       ??_C@_1M@NMPCJPHE@?$AAi?$AAt?$AA?9?$AAc?$AAh?$AA?$AA@ 00476b1c     LIBCMT:winapinls.obj
 0002:00003b28       ??_C@_1M@GHKGFEDF@?$AAi?$AAt?$AA?9?$AAi?$AAt?$AA?$AA@ 00476b28     LIBCMT:winapinls.obj
 0002:00003b34       ??_C@_1M@NIEJCJJA@?$AAj?$AAa?$AA?9?$AAj?$AAp?$AA?$AA@ 00476b34     LIBCMT:winapinls.obj
 0002:00003b40       ??_C@_1M@JILFNBIM@?$AAk?$AAa?$AA?9?$AAg?$AAe?$AA?$AA@ 00476b40     LIBCMT:winapinls.obj
 0002:00003b4c       ??_C@_1M@PACPMGPH@?$AAk?$AAk?$AA?9?$AAk?$AAz?$AA?$AA@ 00476b4c     LIBCMT:winapinls.obj
 0002:00003b58       ??_C@_1M@IELFGMHA@?$AAk?$AAn?$AA?9?$AAi?$AAn?$AA?$AA@ 00476b58     LIBCMT:winapinls.obj
 0002:00003b64       ??_C@_1O@IBBJHCH@?$AAk?$AAo?$AAk?$AA?9?$AAi?$AAn?$AA?$AA@ 00476b64     LIBCMT:winapinls.obj
 0002:00003b74       ??_C@_1M@DMHAEOGC@?$AAk?$AAo?$AA?9?$AAk?$AAr?$AA?$AA@ 00476b74     LIBCMT:winapinls.obj
 0002:00003b80       ??_C@_1M@HBAHBIGA@?$AAk?$AAy?$AA?9?$AAk?$AAg?$AA?$AA@ 00476b80     LIBCMT:winapinls.obj
 0002:00003b8c       ??_C@_1M@KPMILCJG@?$AAl?$AAt?$AA?9?$AAl?$AAt?$AA?$AA@ 00476b8c     LIBCMT:winapinls.obj
 0002:00003b98       ??_C@_1M@BDEKKCA@?$AAl?$AAv?$AA?9?$AAl?$AAv?$AA?$AA@ 00476b98     LIBCMT:winapinls.obj
 0002:00003ba4       ??_C@_1M@ELCKCCJJ@?$AAm?$AAi?$AA?9?$AAn?$AAz?$AA?$AA@ 00476ba4     LIBCMT:winapinls.obj
 0002:00003bb0       ??_C@_1M@CBOOLAPA@?$AAm?$AAk?$AA?9?$AAm?$AAk?$AA?$AA@ 00476bb0     LIBCMT:winapinls.obj
 0002:00003bbc       ??_C@_1M@GPHNBJKN@?$AAm?$AAl?$AA?9?$AAi?$AAn?$AA?$AA@ 00476bbc     LIBCMT:winapinls.obj
 0002:00003bc8       ??_C@_1M@PABJILIG@?$AAm?$AAn?$AA?9?$AAm?$AAn?$AA?$AA@ 00476bc8     LIBCMT:winapinls.obj
 0002:00003bd4       ??_C@_1M@FGBKKIPG@?$AAm?$AAr?$AA?9?$AAi?$AAn?$AA?$AA@ 00476bd4     LIBCMT:winapinls.obj
 0002:00003be0       ??_C@_1M@NDBPDDAL@?$AAm?$AAs?$AA?9?$AAb?$AAn?$AA?$AA@ 00476be0     LIBCMT:winapinls.obj
 0002:00003bec       ??_C@_1M@OPIHOOPI@?$AAm?$AAs?$AA?9?$AAm?$AAy?$AA?$AA@ 00476bec     LIBCMT:winapinls.obj
 0002:00003bf8       ??_C@_1M@PPDBCNFM@?$AAm?$AAt?$AA?9?$AAm?$AAt?$AA?$AA@ 00476bf8     LIBCMT:winapinls.obj
 0002:00003c04       ??_C@_1M@KDJDKMDD@?$AAn?$AAb?$AA?9?$AAn?$AAo?$AA?$AA@ 00476c04     LIBCMT:winapinls.obj
 0002:00003c10       ??_C@_1M@KFCFLMJP@?$AAn?$AAl?$AA?9?$AAb?$AAe?$AA?$AA@ 00476c10     LIBCMT:winapinls.obj
 0002:00003c1c       ??_C@_1M@KPOPDDGO@?$AAn?$AAl?$AA?9?$AAn?$AAl?$AA?$AA@ 00476c1c     LIBCMT:winapinls.obj
 0002:00003c28       ??_C@_1M@LJKPEMLN@?$AAn?$AAn?$AA?9?$AAn?$AAo?$AA?$AA@ 00476c28     LIBCMT:winapinls.obj
 0002:00003c34       ??_C@_1M@BDGHHBFL@?$AAn?$AAs?$AA?9?$AAz?$AAa?$AA?$AA@ 00476c34     LIBCMT:winapinls.obj
 0002:00003c40       ??_C@_1M@IDEHOAP@?$AAp?$AAa?$AA?9?$AAi?$AAn?$AA?$AA@ 00476c40     LIBCMT:winapinls.obj
 0002:00003c4c       ??_C@_1M@HDBKGOGH@?$AAp?$AAl?$AA?9?$AAp?$AAl?$AA?$AA@ 00476c4c     LIBCMT:winapinls.obj
 0002:00003c58       ??_C@_1M@LJLLCMEH@?$AAp?$AAt?$AA?9?$AAb?$AAr?$AA?$AA@ 00476c58     LIBCMT:winapinls.obj
 0002:00003c64       ??_C@_1M@NCMONAAL@?$AAp?$AAt?$AA?9?$AAp?$AAt?$AA?$AA@ 00476c64     LIBCMT:winapinls.obj
 0002:00003c70       ??_C@_1O@EAKMAJDN@?$AAq?$AAu?$AAz?$AA?9?$AAb?$AAo?$AA?$AA@ 00476c70     LIBCMT:winapinls.obj
 0002:00003c80       ??_C@_1O@BHHPIGDN@?$AAq?$AAu?$AAz?$AA?9?$AAe?$AAc?$AA?$AA@ 00476c80     LIBCMT:winapinls.obj
 0002:00003c90       ??_C@_1O@GBAPEKMJ@?$AAq?$AAu?$AAz?$AA?9?$AAp?$AAe?$AA?$AA@ 00476c90     LIBCMT:winapinls.obj
 0002:00003ca0       ??_C@_1M@CLGLEFBO@?$AAr?$AAo?$AA?9?$AAr?$AAo?$AA?$AA@ 00476ca0     LIBCMT:winapinls.obj
 0002:00003cac       ??_C@_1M@CEEDODME@?$AAr?$AAu?$AA?9?$AAr?$AAu?$AA?$AA@ 00476cac     LIBCMT:winapinls.obj
 0002:00003cb8       ??_C@_1M@HPKKKMPP@?$AAs?$AAa?$AA?9?$AAi?$AAn?$AA?$AA@ 00476cb8     LIBCMT:winapinls.obj
 0002:00003cc4       ??_C@_1M@BKMAIGOJ@?$AAs?$AAe?$AA?9?$AAf?$AAi?$AA?$AA@ 00476cc4     LIBCMT:winapinls.obj
 0002:00003cd0       ??_C@_1M@NDPIFLFI@?$AAs?$AAe?$AA?9?$AAn?$AAo?$AA?$AA@ 00476cd0     LIBCMT:winapinls.obj
 0002:00003cdc       ??_C@_1M@DANKKHJ@?$AAs?$AAe?$AA?9?$AAs?$AAe?$AA?$AA@ 00476cdc     LIBCMT:winapinls.obj
 0002:00003ce8       ??_C@_1M@PNBLONPJ@?$AAs?$AAk?$AA?9?$AAs?$AAk?$AA?$AA@ 00476ce8     LIBCMT:winapinls.obj
 0002:00003cf4       ??_C@_1M@LFMODOAL@?$AAs?$AAl?$AA?9?$AAs?$AAi?$AA?$AA@ 00476cf4     LIBCMT:winapinls.obj
 0002:00003d00       ??_C@_1O@DFKOMPG@?$AAs?$AAm?$AAa?$AA?9?$AAn?$AAo?$AA?$AA@ 00476d00     LIBCMT:winapinls.obj
 0002:00003d10       ??_C@_1O@NDKPBNNH@?$AAs?$AAm?$AAa?$AA?9?$AAs?$AAe?$AA?$AA@ 00476d10     LIBCMT:winapinls.obj
 0002:00003d20       ??_C@_1O@PLLKBHAB@?$AAs?$AAm?$AAj?$AA?9?$AAn?$AAo?$AA?$AA@ 00476d20     LIBCMT:winapinls.obj
 0002:00003d30       ??_C@_1O@CLEPOGCA@?$AAs?$AAm?$AAj?$AA?9?$AAs?$AAe?$AA?$AA@ 00476d30     LIBCMT:winapinls.obj
 0002:00003d40       ??_C@_1O@DLGJGKMK@?$AAs?$AAm?$AAn?$AA?9?$AAf?$AAi?$AA?$AA@ 00476d40     LIBCMT:winapinls.obj
 0002:00003d50       ??_C@_1O@OJDJGAJC@?$AAs?$AAm?$AAs?$AA?9?$AAf?$AAi?$AA?$AA@ 00476d50     LIBCMT:winapinls.obj
 0002:00003d60       ??_C@_1M@BOFOGHPB@?$AAs?$AAq?$AA?9?$AAa?$AAl?$AA?$AA@ 00476d60     LIBCMT:winapinls.obj
 0002:00003d6c       ??_C@_1BG@LJBBIPGB@?$AAs?$AAr?$AA?9?$AAb?$AAa?$AA?9?$AAc?$AAy?$AAr?$AAl?$AA?$AA@ 00476d6c     LIBCMT:winapinls.obj
 0002:00003d84       ??_C@_1BG@JLBENFOE@?$AAs?$AAr?$AA?9?$AAb?$AAa?$AA?9?$AAl?$AAa?$AAt?$AAn?$AA?$AA@ 00476d84     LIBCMT:winapinls.obj
 0002:00003d9c       ??_C@_1BG@KODPNHE@?$AAs?$AAr?$AA?9?$AAs?$AAp?$AA?9?$AAc?$AAy?$AAr?$AAl?$AA?$AA@ 00476d9c     LIBCMT:winapinls.obj
 0002:00003db4       ??_C@_1BG@CIOGKHPB@?$AAs?$AAr?$AA?9?$AAs?$AAp?$AA?9?$AAl?$AAa?$AAt?$AAn?$AA?$AA@ 00476db4     LIBCMT:winapinls.obj
 0002:00003dcc       ??_C@_1M@NGFJLMAC@?$AAs?$AAv?$AA?9?$AAf?$AAi?$AA?$AA@ 00476dcc     LIBCMT:winapinls.obj
 0002:00003dd8       ??_C@_1M@MPJEJAJC@?$AAs?$AAv?$AA?9?$AAs?$AAe?$AA?$AA@ 00476dd8     LIBCMT:winapinls.obj
 0002:00003de4       ??_C@_1M@MPNDHLFK@?$AAs?$AAw?$AA?9?$AAk?$AAe?$AA?$AA@ 00476de4     LIBCMT:winapinls.obj
 0002:00003df0       ??_C@_1O@KOHBJJI@?$AAs?$AAy?$AAr?$AA?9?$AAs?$AAy?$AA?$AA@ 00476df0     LIBCMT:winapinls.obj
 0002:00003e00       ??_C@_1M@LDCEFHA@?$AAt?$AAa?$AA?9?$AAi?$AAn?$AA?$AA@ 00476e00     LIBCMT:winapinls.obj
 0002:00003e0c       ??_C@_1M@CNJOFAK@?$AAt?$AAe?$AA?9?$AAi?$AAn?$AA?$AA@ 00476e0c     LIBCMT:winapinls.obj
 0002:00003e18       ??_C@_1M@GNAECACD@?$AAt?$AAh?$AA?9?$AAt?$AAh?$AA?$AA@ 00476e18     LIBCMT:winapinls.obj
 0002:00003e24       ??_C@_1M@CHBIHOJO@?$AAt?$AAn?$AA?9?$AAz?$AAa?$AA?$AA@ 00476e24     LIBCMT:winapinls.obj
 0002:00003e30       ??_C@_1M@GCCMIGPJ@?$AAt?$AAr?$AA?9?$AAt?$AAr?$AA?$AA@ 00476e30     LIBCMT:winapinls.obj
 0002:00003e3c       ??_C@_1M@CELMCNBK@?$AAt?$AAt?$AA?9?$AAr?$AAu?$AA?$AA@ 00476e3c     LIBCMT:winapinls.obj
 0002:00003e48       ??_C@_1M@KLMCELGA@?$AAu?$AAk?$AA?9?$AAu?$AAa?$AA?$AA@ 00476e48     LIBCMT:winapinls.obj
 0002:00003e54       ??_C@_1M@EPAJJAJF@?$AAu?$AAr?$AA?9?$AAp?$AAk?$AA?$AA@ 00476e54     LIBCMT:winapinls.obj
 0002:00003e60       ??_C@_1BG@GEGPMCDJ@?$AAu?$AAz?$AA?9?$AAu?$AAz?$AA?9?$AAc?$AAy?$AAr?$AAl?$AA?$AA@ 00476e60     LIBCMT:winapinls.obj
 0002:00003e78       ??_C@_1BG@EGGKJILM@?$AAu?$AAz?$AA?9?$AAu?$AAz?$AA?9?$AAl?$AAa?$AAt?$AAn?$AA?$AA@ 00476e78     LIBCMT:winapinls.obj
 0002:00003e90       ??_C@_1M@GFOCLFF@?$AAv?$AAi?$AA?9?$AAv?$AAn?$AA?$AA@ 00476e90     LIBCMT:winapinls.obj
 0002:00003e9c       ??_C@_1M@CPAMEDFI@?$AAx?$AAh?$AA?9?$AAz?$AAa?$AA?$AA@ 00476e9c     LIBCMT:winapinls.obj
 0002:00003ea8       ??_C@_1O@EBKIFIGN@?$AAz?$AAh?$AA?9?$AAc?$AAh?$AAs?$AA?$AA@ 00476ea8     LIBCMT:winapinls.obj
 0002:00003eb8       ??_C@_1O@NMHPGANE@?$AAz?$AAh?$AA?9?$AAc?$AAh?$AAt?$AA?$AA@ 00476eb8     LIBCMT:winapinls.obj
 0002:00003ec8       ??_C@_1M@LPINJOMC@?$AAz?$AAh?$AA?9?$AAc?$AAn?$AA?$AA@ 00476ec8     LIBCMT:winapinls.obj
 0002:00003ed4       ??_C@_1M@OCJEJODD@?$AAz?$AAh?$AA?9?$AAh?$AAk?$AA?$AA@ 00476ed4     LIBCMT:winapinls.obj
 0002:00003ee0       ??_C@_1M@DNDLJINH@?$AAz?$AAh?$AA?9?$AAm?$AAo?$AA?$AA@ 00476ee0     LIBCMT:winapinls.obj
 0002:00003eec       ??_C@_1M@MBFDNDND@?$AAz?$AAh?$AA?9?$AAs?$AAg?$AA?$AA@ 00476eec     LIBCMT:winapinls.obj
 0002:00003ef8       ??_C@_1M@IMEPLEPE@?$AAz?$AAh?$AA?9?$AAt?$AAw?$AA?$AA@ 00476ef8     LIBCMT:winapinls.obj
 0002:00003f04       ??_C@_1M@BBGHNHJP@?$AAz?$AAu?$AA?9?$AAz?$AAa?$AA?$AA@ 00476f04     LIBCMT:winapinls.obj
 0002:00003f10       ___lookuptable_s           00476f10     LIBCMT:outputs.obj
 0002:00003f70       ___newctype                00476f70     LIBCMT:ctype.obj
 0002:00004270       __wctype                   00477270     LIBCMT:ctype.obj
 0002:00004478       ___newclmap                00477478     LIBCMT:ctype.obj
 0002:000045f8       ___newcumap                004775f8     LIBCMT:ctype.obj
 0002:00004778       ___rg_language             00477778     LIBCMT:getqloc.obj
 0002:00004a84       ??_C@_1BC@LLOKLNP@?$AAa?$AAm?$AAe?$AAr?$AAi?$AAc?$AAa?$AAn?$AA?$AA@ 00477a84     LIBCMT:getqloc.obj
 0002:00004a98       ??_C@_1CC@HEIGCDGG@?$AAa?$AAm?$AAe?$AAr?$AAi?$AAc?$AAa?$AAn?$AA?5?$AAe?$AAn?$AAg?$AAl?$AAi?$AAs?$AAh?$AA?$AA@ 00477a98     LIBCMT:getqloc.obj
 0002:00004abc       ??_C@_1CC@IHCNOMIN@?$AAa?$AAm?$AAe?$AAr?$AAi?$AAc?$AAa?$AAn?$AA?9?$AAe?$AAn?$AAg?$AAl?$AAi?$AAs?$AAh?$AA?$AA@ 00477abc     LIBCMT:getqloc.obj
 0002:00004ae0       ??_C@_1BG@GKAGPCGG@?$AAa?$AAu?$AAs?$AAt?$AAr?$AAa?$AAl?$AAi?$AAa?$AAn?$AA?$AA@ 00477ae0     LIBCMT:getqloc.obj
 0002:00004af8       ??_C@_1BA@GMENCENF@?$AAb?$AAe?$AAl?$AAg?$AAi?$AAa?$AAn?$AA?$AA@ 00477af8     LIBCMT:getqloc.obj
 0002:00004b08       ??_C@_1BC@PJMIIAAN@?$AAc?$AAa?$AAn?$AAa?$AAd?$AAi?$AAa?$AAn?$AA?$AA@ 00477b08     LIBCMT:getqloc.obj
 0002:00004b1c       ??_C@_17NOIMNFBF@?$AAc?$AAh?$AAh?$AA?$AA@ 00477b1c     LIBCMT:getqloc.obj
 0002:00004b24       ??_C@_17GGDALCHA@?$AAc?$AAh?$AAi?$AA?$AA@ 00477b24     LIBCMT:getqloc.obj
 0002:00004b2c       ??_C@_1BA@NPNJKIBL@?$AAc?$AAh?$AAi?$AAn?$AAe?$AAs?$AAe?$AA?$AA@ 00477b2c     LIBCMT:getqloc.obj
 0002:00004b3c       ??_C@_1CC@DINBAMMJ@?$AAc?$AAh?$AAi?$AAn?$AAe?$AAs?$AAe?$AA?9?$AAh?$AAo?$AAn?$AAg?$AAk?$AAo?$AAn?$AAg?$AA?$AA@ 00477b3c     LIBCMT:getqloc.obj
 0002:00004b60       ??_C@_1CG@IOBJPACO@?$AAc?$AAh?$AAi?$AAn?$AAe?$AAs?$AAe?$AA?9?$AAs?$AAi?$AAm?$AAp?$AAl?$AAi?$AAf?$AAi?$AAe?$AAd?$AA?$AA@ 00477b60     LIBCMT:getqloc.obj
 0002:00004b88       ??_C@_1CE@GAJNDCKG@?$AAc?$AAh?$AAi?$AAn?$AAe?$AAs?$AAe?$AA?9?$AAs?$AAi?$AAn?$AAg?$AAa?$AAp?$AAo?$AAr?$AAe?$AA?$AA@ 00477b88     LIBCMT:getqloc.obj
 0002:00004bac       ??_C@_1CI@PAJPIOOD@?$AAc?$AAh?$AAi?$AAn?$AAe?$AAs?$AAe?$AA?9?$AAt?$AAr?$AAa?$AAd?$AAi?$AAt?$AAi?$AAo?$AAn?$AAa?$AAl?$AA?$AA@ 00477bac     LIBCMT:getqloc.obj
 0002:00004bd4       ??_C@_1BM@NILJBMMD@?$AAd?$AAu?$AAt?$AAc?$AAh?$AA?9?$AAb?$AAe?$AAl?$AAg?$AAi?$AAa?$AAn?$AA?$AA@ 00477bd4     LIBCMT:getqloc.obj
 0002:00004bf0       ??_C@_1CC@OOJPJNEJ@?$AAe?$AAn?$AAg?$AAl?$AAi?$AAs?$AAh?$AA?9?$AAa?$AAm?$AAe?$AAr?$AAi?$AAc?$AAa?$AAn?$AA?$AA@ 00477bf0     LIBCMT:getqloc.obj
 0002:00004c14       ??_C@_1BI@IOLFEEM@?$AAe?$AAn?$AAg?$AAl?$AAi?$AAs?$AAh?$AA?9?$AAa?$AAu?$AAs?$AA?$AA@ 00477c14     LIBCMT:getqloc.obj
 0002:00004c2c       ??_C@_1BO@HFFNLENJ@?$AAe?$AAn?$AAg?$AAl?$AAi?$AAs?$AAh?$AA?9?$AAb?$AAe?$AAl?$AAi?$AAz?$AAe?$AA?$AA@ 00477c2c     LIBCMT:getqloc.obj
 0002:00004c4c       ??_C@_1BI@HAPKJMPO@?$AAe?$AAn?$AAg?$AAl?$AAi?$AAs?$AAh?$AA?9?$AAc?$AAa?$AAn?$AA?$AA@ 00477c4c     LIBCMT:getqloc.obj
 0002:00004c64       ??_C@_1CE@HLNDMIOJ@?$AAe?$AAn?$AAg?$AAl?$AAi?$AAs?$AAh?$AA?9?$AAc?$AAa?$AAr?$AAi?$AAb?$AAb?$AAe?$AAa?$AAn?$AA?$AA@ 00477c64     LIBCMT:getqloc.obj
 0002:00004c88       ??_C@_1BI@LDHJHHAC@?$AAe?$AAn?$AAg?$AAl?$AAi?$AAs?$AAh?$AA?9?$AAi?$AAr?$AAe?$AA?$AA@ 00477c88     LIBCMT:getqloc.obj
 0002:00004ca0       ??_C@_1CA@NJMMCFOC@?$AAe?$AAn?$AAg?$AAl?$AAi?$AAs?$AAh?$AA?9?$AAj?$AAa?$AAm?$AAa?$AAi?$AAc?$AAa?$AA?$AA@ 00477ca0     LIBCMT:getqloc.obj
 0002:00004cc0       ??_C@_1BG@BHJEBBGG@?$AAe?$AAn?$AAg?$AAl?$AAi?$AAs?$AAh?$AA?9?$AAn?$AAz?$AA?$AA@ 00477cc0     LIBCMT:getqloc.obj
 0002:00004cd8       ??_C@_1CK@FGOEJJCO@?$AAe?$AAn?$AAg?$AAl?$AAi?$AAs?$AAh?$AA?9?$AAs?$AAo?$AAu?$AAt?$AAh?$AA?5?$AAa?$AAf?$AAr?$AAi?$AAc?$AAa?$AA?$AA@ 00477cd8     LIBCMT:getqloc.obj
 0002:00004d04       ??_C@_1DE@PDBJPCJ@?$AAe?$AAn?$AAg?$AAl?$AAi?$AAs?$AAh?$AA?9?$AAt?$AAr?$AAi?$AAn?$AAi?$AAd?$AAa?$AAd?$AA?5?$AAy?$AA?5?$AAt?$AAo?$AAb?$AAa?$AAg?$AAo?$AA?$AA@ 00477d04     LIBCMT:getqloc.obj
 0002:00004d38       ??_C@_1BG@JGCANDME@?$AAe?$AAn?$AAg?$AAl?$AAi?$AAs?$AAh?$AA?9?$AAu?$AAk?$AA?$AA@ 00477d38     LIBCMT:getqloc.obj
 0002:00004d50       ??_C@_1BG@DINKMLE@?$AAe?$AAn?$AAg?$AAl?$AAi?$AAs?$AAh?$AA?9?$AAu?$AAs?$AA?$AA@ 00477d50     LIBCMT:getqloc.obj
 0002:00004d68       ??_C@_1BI@NMFDBHJE@?$AAe?$AAn?$AAg?$AAl?$AAi?$AAs?$AAh?$AA?9?$AAu?$AAs?$AAa?$AA?$AA@ 00477d68     LIBCMT:getqloc.obj
 0002:00004d80       ??_C@_1BO@OIHKJKII@?$AAf?$AAr?$AAe?$AAn?$AAc?$AAh?$AA?9?$AAb?$AAe?$AAl?$AAg?$AAi?$AAa?$AAn?$AA?$AA@ 00477d80     LIBCMT:getqloc.obj
 0002:00004da0       ??_C@_1CA@NKAELJKI@?$AAf?$AAr?$AAe?$AAn?$AAc?$AAh?$AA?9?$AAc?$AAa?$AAn?$AAa?$AAd?$AAi?$AAa?$AAn?$AA?$AA@ 00477da0     LIBCMT:getqloc.obj
 0002:00004dc0       ??_C@_1CE@MGKCNLGN@?$AAf?$AAr?$AAe?$AAn?$AAc?$AAh?$AA?9?$AAl?$AAu?$AAx?$AAe?$AAm?$AAb?$AAo?$AAu?$AAr?$AAg?$AA?$AA@ 00477dc0     LIBCMT:getqloc.obj
 0002:00004de4       ??_C@_1BK@CEGEAILM@?$AAf?$AAr?$AAe?$AAn?$AAc?$AAh?$AA?9?$AAs?$AAw?$AAi?$AAs?$AAs?$AA?$AA@ 00477de4     LIBCMT:getqloc.obj
 0002:00004e00       ??_C@_1CA@PAFKEOCC@?$AAg?$AAe?$AAr?$AAm?$AAa?$AAn?$AA?9?$AAa?$AAu?$AAs?$AAt?$AAr?$AAi?$AAa?$AAn?$AA?$AA@ 00477e00     LIBCMT:getqloc.obj
 0002:00004e20       ??_C@_1CI@HCFHGOFD@?$AAg?$AAe?$AAr?$AAm?$AAa?$AAn?$AA?9?$AAl?$AAi?$AAc?$AAh?$AAt?$AAe?$AAn?$AAs?$AAt?$AAe?$AAi?$AAn?$AA?$AA@ 00477e20     LIBCMT:getqloc.obj
 0002:00004e48       ??_C@_1CE@FEDDNPDG@?$AAg?$AAe?$AAr?$AAm?$AAa?$AAn?$AA?9?$AAl?$AAu?$AAx?$AAe?$AAm?$AAb?$AAo?$AAu?$AAr?$AAg?$AA?$AA@ 00477e48     LIBCMT:getqloc.obj
 0002:00004e6c       ??_C@_1BK@LIMINNMN@?$AAg?$AAe?$AAr?$AAm?$AAa?$AAn?$AA?9?$AAs?$AAw?$AAi?$AAs?$AAs?$AA?$AA@ 00477e6c     LIBCMT:getqloc.obj
 0002:00004e88       ??_C@_1BM@LGMDBEPD@?$AAi?$AAr?$AAi?$AAs?$AAh?$AA?9?$AAe?$AAn?$AAg?$AAl?$AAi?$AAs?$AAh?$AA?$AA@ 00477e88     LIBCMT:getqloc.obj
 0002:00004ea4       ??_C@_1BM@NNCFBAEE@?$AAi?$AAt?$AAa?$AAl?$AAi?$AAa?$AAn?$AA?9?$AAs?$AAw?$AAi?$AAs?$AAs?$AA?$AA@ 00477ea4     LIBCMT:getqloc.obj
 0002:00004ec0       ??_C@_1BE@FEDJNPIB@?$AAn?$AAo?$AAr?$AAw?$AAe?$AAg?$AAi?$AAa?$AAn?$AA?$AA@ 00477ec0     LIBCMT:getqloc.obj
 0002:00004ed4       ??_C@_1CC@CILKDEIE@?$AAn?$AAo?$AAr?$AAw?$AAe?$AAg?$AAi?$AAa?$AAn?$AA?9?$AAb?$AAo?$AAk?$AAm?$AAa?$AAl?$AA?$AA@ 00477ed4     LIBCMT:getqloc.obj
 0002:00004ef8       ??_C@_1CE@DHMMHEPL@?$AAn?$AAo?$AAr?$AAw?$AAe?$AAg?$AAi?$AAa?$AAn?$AA?9?$AAn?$AAy?$AAn?$AAo?$AAr?$AAs?$AAk?$AA?$AA@ 00477ef8     LIBCMT:getqloc.obj
 0002:00004f1c       ??_C@_1CK@OPNMHECD@?$AAp?$AAo?$AAr?$AAt?$AAu?$AAg?$AAu?$AAe?$AAs?$AAe?$AA?9?$AAb?$AAr?$AAa?$AAz?$AAi?$AAl?$AAi?$AAa?$AAn?$AA?$AA@ 00477f1c     LIBCMT:getqloc.obj
 0002:00004f48       ??_C@_1CE@KEEHCDB@?$AAs?$AAp?$AAa?$AAn?$AAi?$AAs?$AAh?$AA?9?$AAa?$AAr?$AAg?$AAe?$AAn?$AAt?$AAi?$AAn?$AAa?$AA?$AA@ 00477f48     LIBCMT:getqloc.obj
 0002:00004f6c       ??_C@_1CA@GIAOLHJD@?$AAs?$AAp?$AAa?$AAn?$AAi?$AAs?$AAh?$AA?9?$AAb?$AAo?$AAl?$AAi?$AAv?$AAi?$AAa?$AA?$AA@ 00477f6c     LIBCMT:getqloc.obj
 0002:00004f8c       ??_C@_1BM@OJNDFNPD@?$AAs?$AAp?$AAa?$AAn?$AAi?$AAs?$AAh?$AA?9?$AAc?$AAh?$AAi?$AAl?$AAe?$AA?$AA@ 00477f8c     LIBCMT:getqloc.obj
 0002:00004fa8       ??_C@_1CC@OCOLPALL@?$AAs?$AAp?$AAa?$AAn?$AAi?$AAs?$AAh?$AA?9?$AAc?$AAo?$AAl?$AAo?$AAm?$AAb?$AAi?$AAa?$AA?$AA@ 00477fa8     LIBCMT:getqloc.obj
 0002:00004fcc       ??_C@_1CG@BPOFMKBB@?$AAs?$AAp?$AAa?$AAn?$AAi?$AAs?$AAh?$AA?9?$AAc?$AAo?$AAs?$AAt?$AAa?$AA?5?$AAr?$AAi?$AAc?$AAa?$AA?$AA@ 00477fcc     LIBCMT:getqloc.obj
 0002:00004ff4       ??_C@_1DG@IGOBAPBB@?$AAs?$AAp?$AAa?$AAn?$AAi?$AAs?$AAh?$AA?9?$AAd?$AAo?$AAm?$AAi?$AAn?$AAi?$AAc?$AAa?$AAn?$AA?5?$AAr?$AAe?$AAp?$AAu?$AAb?$AAl?$AAi?$AAc?$AA?$AA@ 00477ff4     LIBCMT:getqloc.obj
 0002:0000502c       ??_C@_1CA@JHAPGEGI@?$AAs?$AAp?$AAa?$AAn?$AAi?$AAs?$AAh?$AA?9?$AAe?$AAc?$AAu?$AAa?$AAd?$AAo?$AAr?$AA?$AA@ 0047802c     LIBCMT:getqloc.obj
 0002:0000504c       ??_C@_1CI@LAPALJPP@?$AAs?$AAp?$AAa?$AAn?$AAi?$AAs?$AAh?$AA?9?$AAe?$AAl?$AA?5?$AAs?$AAa?$AAl?$AAv?$AAa?$AAd?$AAo?$AAr?$AA?$AA@ 0047804c     LIBCMT:getqloc.obj
 0002:00005074       ??_C@_1CE@PDGBOFOM@?$AAs?$AAp?$AAa?$AAn?$AAi?$AAs?$AAh?$AA?9?$AAg?$AAu?$AAa?$AAt?$AAe?$AAm?$AAa?$AAl?$AAa?$AA?$AA@ 00478074     LIBCMT:getqloc.obj
 0002:00005098       ??_C@_1CC@NBEBAODI@?$AAs?$AAp?$AAa?$AAn?$AAi?$AAs?$AAh?$AA?9?$AAh?$AAo?$AAn?$AAd?$AAu?$AAr?$AAa?$AAs?$AA?$AA@ 00478098     LIBCMT:getqloc.obj
 0002:000050bc       ??_C@_1CA@LLKGHBMF@?$AAs?$AAp?$AAa?$AAn?$AAi?$AAs?$AAh?$AA?9?$AAm?$AAe?$AAx?$AAi?$AAc?$AAa?$AAn?$AA?$AA@ 004780bc     LIBCMT:getqloc.obj
 0002:000050dc       ??_C@_1BO@LKNDOIGD@?$AAs?$AAp?$AAa?$AAn?$AAi?$AAs?$AAh?$AA?9?$AAm?$AAo?$AAd?$AAe?$AAr?$AAn?$AA?$AA@ 004780dc     LIBCMT:getqloc.obj
 0002:000050fc       ??_C@_1CE@NMDMOEEB@?$AAs?$AAp?$AAa?$AAn?$AAi?$AAs?$AAh?$AA?9?$AAn?$AAi?$AAc?$AAa?$AAr?$AAa?$AAg?$AAu?$AAa?$AA?$AA@ 004780fc     LIBCMT:getqloc.obj
 0002:00005120       ??_C@_1BO@LLCBEJGB@?$AAs?$AAp?$AAa?$AAn?$AAi?$AAs?$AAh?$AA?9?$AAp?$AAa?$AAn?$AAa?$AAm?$AAa?$AA?$AA@ 00478120     LIBCMT:getqloc.obj
 0002:00005140       ??_C@_1CC@FKPGGIHO@?$AAs?$AAp?$AAa?$AAn?$AAi?$AAs?$AAh?$AA?9?$AAp?$AAa?$AAr?$AAa?$AAg?$AAu?$AAa?$AAy?$AA?$AA@ 00478140     LIBCMT:getqloc.obj
 0002:00005164       ??_C@_1BK@CDEIHOOP@?$AAs?$AAp?$AAa?$AAn?$AAi?$AAs?$AAh?$AA?9?$AAp?$AAe?$AAr?$AAu?$AA?$AA@ 00478164     LIBCMT:getqloc.obj
 0002:00005180       ??_C@_1CI@GAHAKKGP@?$AAs?$AAp?$AAa?$AAn?$AAi?$AAs?$AAh?$AA?9?$AAp?$AAu?$AAe?$AAr?$AAt?$AAo?$AA?5?$AAr?$AAi?$AAc?$AAo?$AA?$AA@ 00478180     LIBCMT:getqloc.obj
 0002:000051a8       ??_C@_1CA@NKJBCAGP@?$AAs?$AAp?$AAa?$AAn?$AAi?$AAs?$AAh?$AA?9?$AAu?$AAr?$AAu?$AAg?$AAu?$AAa?$AAy?$AA?$AA@ 004781a8     LIBCMT:getqloc.obj
 0002:000051c8       ??_C@_1CE@ODILCONM@?$AAs?$AAp?$AAa?$AAn?$AAi?$AAs?$AAh?$AA?9?$AAv?$AAe?$AAn?$AAe?$AAz?$AAu?$AAe?$AAl?$AAa?$AA?$AA@ 004781c8     LIBCMT:getqloc.obj
 0002:000051ec       ??_C@_1CA@OBNMCGFO@?$AAs?$AAw?$AAe?$AAd?$AAi?$AAs?$AAh?$AA?9?$AAf?$AAi?$AAn?$AAl?$AAa?$AAn?$AAd?$AA?$AA@ 004781ec     LIBCMT:getqloc.obj
 0002:0000520c       ??_C@_1M@PIPDDPPI@?$AAs?$AAw?$AAi?$AAs?$AAs?$AA?$AA@ 0047820c     LIBCMT:getqloc.obj
 0002:00005218       ??_C@_15GMFIMNFM@?$AAu?$AAs?$AA?$AA@ 00478218     LIBCMT:getqloc.obj
 0002:00005220       ??_C@_17HAEBFAGL@?$AAu?$AAs?$AAa?$AA?$AA@ 00478220     LIBCMT:getqloc.obj
 0002:00005228       ___rg_country              00478228     LIBCMT:getqloc.obj
 0002:0000533c       ??_C@_1BA@DPFJEPHB@?$AAa?$AAm?$AAe?$AAr?$AAi?$AAc?$AAa?$AA?$AA@ 0047833c     LIBCMT:getqloc.obj
 0002:0000534c       ??_C@_1BA@ELOGGFK@?$AAb?$AAr?$AAi?$AAt?$AAa?$AAi?$AAn?$AA?$AA@ 0047834c     LIBCMT:getqloc.obj
 0002:0000535c       ??_C@_1M@GHBGIGDA@?$AAc?$AAh?$AAi?$AAn?$AAa?$AA?$AA@ 0047835c     LIBCMT:getqloc.obj
 0002:00005368       ??_C@_1M@NCHEJOPO@?$AAc?$AAz?$AAe?$AAc?$AAh?$AA?$AA@ 00478368     LIBCMT:getqloc.obj
 0002:00005374       ??_C@_1BA@BKPAPBLA@?$AAe?$AAn?$AAg?$AAl?$AAa?$AAn?$AAd?$AA?$AA@ 00478374     LIBCMT:getqloc.obj
 0002:00005384       ??_C@_1BM@HKBCKIPC@?$AAg?$AAr?$AAe?$AAa?$AAt?$AA?5?$AAb?$AAr?$AAi?$AAt?$AAa?$AAi?$AAn?$AA?$AA@ 00478384     LIBCMT:getqloc.obj
 0002:000053a0       ??_C@_1BA@PPCHPGJB@?$AAh?$AAo?$AAl?$AAl?$AAa?$AAn?$AAd?$AA?$AA@ 004783a0     LIBCMT:getqloc.obj
 0002:000053b0       ??_C@_1BE@JBMPEGDG@?$AAh?$AAo?$AAn?$AAg?$AA?9?$AAk?$AAo?$AAn?$AAg?$AA?$AA@ 004783b0     LIBCMT:getqloc.obj
 0002:000053c4       ??_C@_1BI@KOELBBPJ@?$AAn?$AAe?$AAw?$AA?9?$AAz?$AAe?$AAa?$AAl?$AAa?$AAn?$AAd?$AA?$AA@ 004783c4     LIBCMT:getqloc.obj
 0002:000053dc       ??_C@_15HIEBHAIO@?$AAn?$AAz?$AA?$AA@ 004783dc     LIBCMT:getqloc.obj
 0002:000053e4       ??_C@_1BC@CHBCPFPI@?$AAp?$AAr?$AA?5?$AAc?$AAh?$AAi?$AAn?$AAa?$AA?$AA@ 004783e4     LIBCMT:getqloc.obj
 0002:000053f8       ??_C@_1BC@JAOIIFKD@?$AAp?$AAr?$AA?9?$AAc?$AAh?$AAi?$AAn?$AAa?$AA?$AA@ 004783f8     LIBCMT:getqloc.obj
 0002:0000540c       ??_C@_1BI@BEHPPHKC@?$AAp?$AAu?$AAe?$AAr?$AAt?$AAo?$AA?9?$AAr?$AAi?$AAc?$AAo?$AA?$AA@ 0047840c     LIBCMT:getqloc.obj
 0002:00005424       ??_C@_1O@PAEOFKDI@?$AAs?$AAl?$AAo?$AAv?$AAa?$AAk?$AA?$AA@ 00478424     LIBCMT:getqloc.obj
 0002:00005434       ??_C@_1BK@FIHMCKAM@?$AAs?$AAo?$AAu?$AAt?$AAh?$AA?5?$AAa?$AAf?$AAr?$AAi?$AAc?$AAa?$AA?$AA@ 00478434     LIBCMT:getqloc.obj
 0002:00005450       ??_C@_1BI@NAEOODKB@?$AAs?$AAo?$AAu?$AAt?$AAh?$AA?5?$AAk?$AAo?$AAr?$AAe?$AAa?$AA?$AA@ 00478450     LIBCMT:getqloc.obj
 0002:00005468       ??_C@_1BK@FBDGGIFF@?$AAs?$AAo?$AAu?$AAt?$AAh?$AA?9?$AAa?$AAf?$AAr?$AAi?$AAc?$AAa?$AA?$AA@ 00478468     LIBCMT:getqloc.obj
 0002:00005484       ??_C@_1BI@GHLEJDPK@?$AAs?$AAo?$AAu?$AAt?$AAh?$AA?9?$AAk?$AAo?$AAr?$AAe?$AAa?$AA?$AA@ 00478484     LIBCMT:getqloc.obj
 0002:0000549c       ??_C@_1CE@PLHLOMJF@?$AAt?$AAr?$AAi?$AAn?$AAi?$AAd?$AAa?$AAd?$AA?5?$AA?$CG?$AA?5?$AAt?$AAo?$AAb?$AAa?$AAg?$AAo?$AA?$AA@ 0047849c     LIBCMT:getqloc.obj
 0002:000054c0       ??_C@_1BO@MODIMHHI@?$AAu?$AAn?$AAi?$AAt?$AAe?$AAd?$AA?9?$AAk?$AAi?$AAn?$AAg?$AAd?$AAo?$AAm?$AA?$AA@ 004784c0     LIBCMT:getqloc.obj
 0002:000054e0       ??_C@_1BM@FFHJONBJ@?$AAu?$AAn?$AAi?$AAt?$AAe?$AAd?$AA?9?$AAs?$AAt?$AAa?$AAt?$AAe?$AAs?$AA?$AA@ 004784e0     LIBCMT:getqloc.obj
 0002:000054fc       ___rg_language_count       004784fc     LIBCMT:getqloc.obj
 0002:00005500       ___rg_country_count        00478500     LIBCMT:getqloc.obj
 0002:00005504       ??_C@_17DNCLJFIF@?$AAA?$AAC?$AAP?$AA?$AA@ 00478504     LIBCMT:getqloc.obj
 0002:0000550c       ??_C@_17CIKBIHLH@?$AAO?$AAC?$AAP?$AA?$AA@ 0047850c     LIBCMT:getqloc.obj
 0002:00005514       ___rglangidNotDefault      00478514     LIBCMT:getqloc_downlevel.obj
 0002:00005528       __FPinit                   00478528     LIBCMT:fpinit.obj
 0002:000056bc       ??_C@_08EHJDFFNH@__based?$CI?$AA@ 004786bc     LIBCMT:undname.obj
 0002:000056c8       ??_C@_07KOLFKCDI@__cdecl?$AA@ 004786c8     LIBCMT:undname.obj
 0002:000056d0       ??_C@_08GHMPAG@__pascal?$AA@ 004786d0     LIBCMT:undname.obj
 0002:000056dc       ??_C@_09IFJBGAPI@__stdcall?$AA@ 004786dc     LIBCMT:undname.obj
 0002:000056e8       ??_C@_0L@NPHFGOKO@__thiscall?$AA@ 004786e8     LIBCMT:undname.obj
 0002:000056f4       ??_C@_0L@JMKHOMEK@__fastcall?$AA@ 004786f4     LIBCMT:undname.obj
 0002:00005700       ??_C@_0N@BCKKPABJ@__vectorcall?$AA@ 00478700     LIBCMT:undname.obj
 0002:00005710       ??_C@_09HIJEGCPM@__clrcall?$AA@ 00478710     LIBCMT:undname.obj
 0002:0000571c       ??_C@_06GHPCKEAG@__eabi?$AA@ 0047871c     LIBCMT:undname.obj
 0002:00005724       ??_C@_07JOMMBBKO@__ptr64?$AA@ 00478724     LIBCMT:undname.obj
 0002:0000572c       ??_C@_0L@PILCLIHE@__restrict?$AA@ 0047872c     LIBCMT:undname.obj
 0002:00005738       ??_C@_0M@GFIIJFMG@__unaligned?$AA@ 00478738     LIBCMT:undname.obj
 0002:00005744       ??_C@_09DHDLOLLB@restrict?$CI?$AA@ 00478744     LIBCMT:undname.obj
 0002:00005750       ??_C@_04NIHEBCM@?5new?$AA@ 00478750     LIBCMT:undname.obj
 0002:00005758       ??_C@_07FPCDHGMM@?5delete?$AA@ 00478758     LIBCMT:undname.obj
 0002:00005760       ??_C@_01DCLJPIOD@?$CB?$AA@ 00478760     LIBCMT:undname.obj
 0002:00005764       ??_C@_02GPECMEKF@?$FL?$FN?$AA@ 00478764     LIBCMT:undname.obj
 0002:00005768       ??_C@_08LHJFAFGD@operator?$AA@ 00478768     LIBCMT:undname.obj
 0002:00005774       ??_C@_02HBOOOICD@?9?$DO?$AA@ 00478774     LIBCMT:undname.obj
 0002:00005778       ??_C@_02ECNGHCIF@?$CL?$CL?$AA@ 00478778     LIBCMT:undname.obj
 0002:0000577c       ??_C@_02BAABKJLB@?9?9?$AA@ 0047877c     LIBCMT:undname.obj
 0002:00005780       ??_C@_01JOAMLHOP@?9?$AA@   00478780     LIBCMT:undname.obj
 0002:00005784       ??_C@_01MIFGBAGJ@?$CL?$AA@ 00478784     LIBCMT:undname.obj
 0002:00005788       ??_C@_01HNPIGOCE@?$CG?$AA@ 00478788     LIBCMT:undname.obj
 0002:0000578c       ??_C@_03MNHNFDLC@?9?$DO?$CK?$AA@ 0047878c     LIBCMT:undname.obj
 0002:00005790       ??_C@_01KMDKNFGN@?1?$AA@   00478790     LIBCMT:undname.obj
 0002:00005794       ??_C@_01FGNFDNOH@?$CF?$AA@ 00478794     LIBCMT:undname.obj
 0002:00005798       ??_C@_02HCKGKOFO@?$CI?$CJ?$AA@ 00478798     LIBCMT:undname.obj
 0002:0000579c       ??_C@_01PJKLJHI@?$HO?$AA@  0047879c     LIBCMT:undname.obj
 0002:000057a0       ??_C@_01JKBOJNNK@?$FO?$AA@ 004787a0     LIBCMT:undname.obj
 0002:000057a4       ??_C@_01DNKMNLPK@?$HM?$AA@ 004787a4     LIBCMT:undname.obj
 0002:000057a8       ??_C@_02PPKAJPJL@?$CG?$CG?$AA@ 004787a8     LIBCMT:undname.obj
 0002:000057ac       ??_C@_02NONPIBCD@?$HM?$HM?$AA@ 004787ac     LIBCMT:undname.obj
 0002:000057b0       ??_C@_02FPIMKNGF@?$CK?$DN?$AA@ 004787b0     LIBCMT:undname.obj
 0002:000057b4       ??_C@_02FOEOMHFC@?$CL?$DN?$AA@ 004787b4     LIBCMT:undname.obj
 0002:000057b8       ??_C@_02FKMDLLOA@?9?$DN?$AA@ 004787b8     LIBCMT:undname.obj
 0002:000057bc       ??_C@_02FJEHGPIO@?1?$DN?$AA@ 004787bc     LIBCMT:undname.obj
 0002:000057c0       ??_C@_02FENAOKFI@?$CF?$DN?$AA@ 004787c0     LIBCMT:undname.obj
 0002:000057c4       ??_C@_03IKFCCPFF@?$DO?$DO?$DN?$AA@ 004787c4     LIBCMT:undname.obj
 0002:000057c8       ??_C@_03CDNPDDLA@?$DM?$DM?$DN?$AA@ 004787c8     LIBCMT:undname.obj
 0002:000057cc       ??_C@_02FGJGFEAB@?$CG?$DN?$AA@ 004787cc     LIBCMT:undname.obj
 0002:000057d0       ??_C@_02DHLNPPGH@?$HM?$DN?$AA@ 004787d0     LIBCMT:undname.obj
 0002:000057d4       ??_C@_02MHEGNOJ@?$FO?$DN?$AA@ 004787d4     LIBCMT:undname.obj
 0002:000057d8       ??_C@_09IFPLHPGF@?$GAvftable?8?$AA@ 004787d8     LIBCMT:undname.obj
 0002:000057e4       ??_C@_09BLBHBJP@?$GAvbtable?8?$AA@ 004787e4     LIBCMT:undname.obj
 0002:000057f0       ??_C@_07FEEIOKP@?$GAvcall?8?$AA@ 004787f0     LIBCMT:undname.obj
 0002:000057f8       ??_C@_08LLFFHHDJ@?$GAtypeof?8?$AA@ 004787f8     LIBCMT:undname.obj
 0002:00005804       ??_C@_0BF@KDPPACIK@?$GAlocal?5static?5guard?8?$AA@ 00478804     LIBCMT:undname.obj
 0002:0000581c       ??_C@_08OBABFOLI@?$GAstring?8?$AA@ 0047881c     LIBCMT:undname.obj
 0002:00005828       ??_C@_0BD@JDLKDPAB@?$GAvbase?5destructor?8?$AA@ 00478828     LIBCMT:undname.obj
 0002:0000583c       ??_C@_0BN@DEGPLNFK@?$GAvector?5deleting?5destructor?8?$AA@ 0047883c     LIBCMT:undname.obj
 0002:0000585c       ??_C@_0BO@OBMKPJIG@?$GAdefault?5constructor?5closure?8?$AA@ 0047885c     LIBCMT:undname.obj
 0002:0000587c       ??_C@_0BN@IMDCHIKM@?$GAscalar?5deleting?5destructor?8?$AA@ 0047887c     LIBCMT:undname.obj
 0002:0000589c       ??_C@_0BO@PFGOCPJJ@?$GAvector?5constructor?5iterator?8?$AA@ 0047889c     LIBCMT:undname.obj
 0002:000058bc       ??_C@_0BN@LFPFMEDL@?$GAvector?5destructor?5iterator?8?$AA@ 004788bc     LIBCMT:undname.obj
 0002:000058dc       ??_C@_0CE@IKBNEHA@?$GAvector?5vbase?5constructor?5iterat@ 004788dc     LIBCMT:undname.obj
 0002:00005900       ??_C@_0BL@NILFHHPC@?$GAvirtual?5displacement?5map?8?$AA@ 00478900     LIBCMT:undname.obj
 0002:0000591c       ??_C@_0CB@JONCMFFK@?$GAeh?5vector?5constructor?5iterator?8@ 0047891c     LIBCMT:undname.obj
 0002:00005940       ??_C@_0CA@GCEOPDGL@?$GAeh?5vector?5destructor?5iterator?8?$AA@ 00478940     LIBCMT:undname.obj
 0002:00005960       ??_C@_0CH@OOJPLCPH@?$GAeh?5vector?5vbase?5constructor?5ite@ 00478960     LIBCMT:undname.obj
 0002:00005988       ??_C@_0BL@LLKPOHJI@?$GAcopy?5constructor?5closure?8?$AA@ 00478988     LIBCMT:undname.obj
 0002:000059a4       ??_C@_0BA@KBCDOMBN@?$GAudt?5returning?8?$AA@ 004789a4     LIBCMT:undname.obj
 0002:000059b4       ??_C@_03KLGMFNMG@?$GAEH?$AA@ 004789b4     LIBCMT:undname.obj
 0002:000059b8       ??_C@_05KHLCHHI@?$GARTTI?$AA@ 004789b8     LIBCMT:undname.obj
 0002:000059c0       ??_C@_0BA@KKLDJDLB@?$GAlocal?5vftable?8?$AA@ 004789c0     LIBCMT:undname.obj
 0002:000059d0       ??_C@_0CE@IIHCMGGL@?$GAlocal?5vftable?5constructor?5closu@ 004789d0     LIBCMT:undname.obj
 0002:000059f4       ??_C@_06FHBGPFGH@?5new?$FL?$FN?$AA@ 004789f4     LIBCMT:undname.obj
 0002:000059fc       ??_C@_09LBNFPBCA@?5delete?$FL?$FN?$AA@ 004789fc     LIBCMT:undname.obj
 0002:00005a08       ??_C@_0P@HJKNJFNN@?$GAomni?5callsig?8?$AA@ 00478a08     LIBCMT:undname.obj
 0002:00005a18       ??_C@_0BL@CNOONJFP@?$GAplacement?5delete?5closure?8?$AA@ 00478a18     LIBCMT:undname.obj
 0002:00005a34       ??_C@_0BN@CKNJLHMB@?$GAplacement?5delete?$FL?$FN?5closure?8?$AA@ 00478a34     LIBCMT:undname.obj
 0002:00005a54       ??_C@_0CG@CFDHKGGD@?$GAmanaged?5vector?5constructor?5iter@ 00478a54     LIBCMT:undname.obj
 0002:00005a7c       ??_C@_0CF@IMGKMJNO@?$GAmanaged?5vector?5destructor?5itera@ 00478a7c     LIBCMT:undname.obj
 0002:00005aa4       ??_C@_0CG@HLDDJMAG@?$GAeh?5vector?5copy?5constructor?5iter@ 00478aa4     LIBCMT:undname.obj
 0002:00005acc       ??_C@_0CM@FCBBDIGB@?$GAeh?5vector?5vbase?5copy?5constructo@ 00478acc     LIBCMT:undname.obj
 0002:00005af8       ??_C@_0BL@CLIPGLGB@?$GAdynamic?5initializer?5for?5?8?$AA@ 00478af8     LIBCMT:undname.obj
 0002:00005b14       ??_C@_0CB@PDBIFEP@?$GAdynamic?5atexit?5destructor?5for?5?8@ 00478b14     LIBCMT:undname.obj
 0002:00005b38       ??_C@_0CD@CGAJBKEJ@?$GAvector?5copy?5constructor?5iterato@ 00478b38     LIBCMT:undname.obj
 0002:00005b5c       ??_C@_0CJ@GJELGAMM@?$GAvector?5vbase?5copy?5constructor?5i@ 00478b5c     LIBCMT:undname.obj
 0002:00005b88       ??_C@_0CL@FGIJHLCE@?$GAmanaged?5vector?5copy?5constructor@ 00478b88     LIBCMT:undname.obj
 0002:00005bb4       ??_C@_0BM@PMGGMLDN@?$GAlocal?5static?5thread?5guard?8?$AA@ 00478bb4     LIBCMT:undname.obj
 0002:00005bd0       ??_C@_0BC@DAFEJGAK@?5Type?5Descriptor?8?$AA@ 00478bd0     LIBCMT:undname.obj
 0002:00005be4       ??_C@_0BM@LDKODKLH@?5Base?5Class?5Descriptor?5at?5?$CI?$AA@ 00478be4     LIBCMT:undname.obj
 0002:00005c00       ??_C@_0BD@LGICGFMM@?5Base?5Class?5Array?8?$AA@ 00478c00     LIBCMT:undname.obj
 0002:00005c14       ??_C@_0BN@MECKDCOJ@?5Class?5Hierarchy?5Descriptor?8?$AA@ 00478c14     LIBCMT:undname.obj
 0002:00005c34       ??_C@_0BK@CFCOFLF@?5Complete?5Object?5Locator?8?$AA@ 00478c34     LIBCMT:undname.obj
 0002:00005c50       ??_C@_04HEJADOOB@CV?3?5?$AA@ 00478c50     LIBCMT:undname.obj
 0002:00005c58       ??_C@_02MOLJINC@?3?3?$AA@  00478c58     LIBCMT:undname.obj
 0002:00005c5c       ??_C@_0BE@JAEOCHPE@template?9parameter?9?$AA@ 00478c5c     LIBCMT:undname.obj
 0002:00005c70       ??_C@_0O@KHGCOMHP@generic?9type?9?$AA@ 00478c70     LIBCMT:undname.obj
 0002:00005c80       ??_C@_01NLNLIGKH@?$GA?$AA@ 00478c80     LIBCMT:undname.obj
 0002:00005c84       ??_C@_01GEODFPGF@?8?$AA@   00478c84     LIBCMT:undname.obj
 0002:00005c88       ??_C@_0BG@JNJLAMPM@?$GAanonymous?5namespace?8?$AA@ 00478c88     LIBCMT:undname.obj
 0002:00005ca0       ??_C@_02OHHJMEON@?8?8?$AA@ 00478ca0     LIBCMT:undname.obj
 0002:00005ca4       ??_C@_0BN@IBLMMFAP@?$GAnon?9type?9template?9parameter?$AA@ 00478ca4     LIBCMT:undname.obj
 0002:00005cc4       ??_C@_04GKJNKENE@void?$AA@ 00478cc4     LIBCMT:undname.obj
 0002:00005ccc       ??_C@_0BE@EODMJLIF@?$GAtemplate?9parameter?$AA@ 00478ccc     LIBCMT:undname.obj
 0002:00005ce0       ??_C@_03KHICJKCI@?4?4?4?$AA@ 00478ce0     LIBCMT:undname.obj
 0002:00005ce4       ??_C@_04HIBGFPH@NULL?$AA@  00478ce4     LIBCMT:undname.obj
 0002:00005cec       ??_C@_03OPGICMGF@?$HN?8?5?$AA@ 00478cec     LIBCMT:undname.obj
 0002:00005cf0       ??_C@_02IGFCGPIL@?$HN?8?$AA@ 00478cf0     LIBCMT:undname.obj
 0002:00005cf4       ??_C@_0N@CBHHHENL@?$GAvtordispex?$HL?$AA@ 00478cf4     LIBCMT:undname.obj
 0002:00005d04       ??_C@_0L@GHPFDFH@?$GAvtordisp?$HL?$AA@ 00478d04     LIBCMT:undname.obj
 0002:00005d10       ??_C@_0L@HNGCOGAE@?$GAadjustor?$HL?$AA@ 00478d10     LIBCMT:undname.obj
 0002:00005d1c       ??_C@_0CB@KJDOOODE@?$GAlocal?5static?5destructor?5helper?8@ 00478d1c     LIBCMT:undname.obj
 0002:00005d40       ??_C@_0DB@ILEFOCIJ@?$GAtemplate?5static?5data?5member?5con@ 00478d40     LIBCMT:undname.obj
 0002:00005d74       ??_C@_0DA@HGFJFBBE@?$GAtemplate?5static?5data?5member?5des@ 00478d74     LIBCMT:undname.obj
 0002:00005da4       ??_C@_07PGOEDBHP@static?5?$AA@ 00478da4     LIBCMT:undname.obj
 0002:00005dac       ??_C@_08NIEOINHE@virtual?5?$AA@ 00478dac     LIBCMT:undname.obj
 0002:00005db8       ??_C@_09LAPHOOG@private?3?5?$AA@ 00478db8     LIBCMT:undname.obj
 0002:00005dc4       ??_C@_0M@GAIFPFIP@protected?3?5?$AA@ 00478dc4     LIBCMT:undname.obj
 0002:00005dd0       ??_C@_08GPDDCMKI@public?3?5?$AA@ 00478dd0     LIBCMT:undname.obj
 0002:00005ddc       ??_C@_08KJLFOPNE@?$FLthunk?$FN?3?$AA@ 00478ddc     LIBCMT:undname.obj
 0002:00005de8       ??_C@_0M@DHNBOJMP@extern?5?$CCC?$CC?5?$AA@ 00478de8     LIBCMT:undname.obj
 0002:00005df4       ??_C@_02KCKGHPCA@?$CJ?5?$AA@ 00478df4     LIBCMT:undname.obj
 0002:00005df8       ??_C@_05CIHEBHNO@char?5?$AA@ 00478df8     LIBCMT:undname.obj
 0002:00005e00       ??_C@_06EHJMALKF@short?5?$AA@ 00478e00     LIBCMT:undname.obj
 0002:00005e08       ??_C@_04LAHKHJMA@int?5?$AA@ 00478e08     LIBCMT:undname.obj
 0002:00005e10       ??_C@_05CJIMAING@long?5?$AA@ 00478e10     LIBCMT:undname.obj
 0002:00005e18       ??_C@_09EBBEKKIH@unsigned?5?$AA@ 00478e18     LIBCMT:undname.obj
 0002:00005e24       ??_C@_05BEFAKPML@void?5?$AA@ 00478e24     LIBCMT:undname.obj
 0002:00005e2c       ??_C@_08PABEKFH@volatile?$AA@ 00478e2c     LIBCMT:undname.obj
 0002:00005e38       ??_C@_0P@GCOCNKDM@std?3?3nullptr_t?$AA@ 00478e38     LIBCMT:undname.obj
 0002:00005e48       ??_C@_0L@EGPHHEKN@?$DMellipsis?$DO?$AA@ 00478e48     LIBCMT:undname.obj
 0002:00005e54       ??_C@_04EENFHACM@?0?4?4?4?$AA@ 00478e54     LIBCMT:undname.obj
 0002:00005e5c       ??_C@_0M@ELJOJFFH@?0?$DMellipsis?$DO?$AA@ 00478e5c     LIBCMT:undname.obj
 0002:00005e68       ??_C@_07HDJPLPEK@?5throw?$CI?$AA@ 00478e68     LIBCMT:undname.obj
 0002:00005e70       ??_C@_03PBJBJNON@cpu?$AA@  00478e70     LIBCMT:undname.obj
 0002:00005e74       ??_C@_03DCBBJBAA@amp?$AA@  00478e74     LIBCMT:undname.obj
 0002:00005e78       ??_C@_02KEGNLNML@?0?5?$AA@ 00478e78     LIBCMT:undname.obj
 0002:00005e7c       ??_C@_04ENMBGAPA@char?$AA@ 00478e7c     LIBCMT:undname.obj
 0002:00005e84       ??_C@_05BFKKPKCG@short?$AA@ 00478e84     LIBCMT:undname.obj
 0002:00005e8c       ??_C@_03JBIPMCLC@int?$AA@  00478e8c     LIBCMT:undname.obj
 0002:00005e90       ??_C@_04GOKPGOLB@long?$AA@ 00478e90     LIBCMT:undname.obj
 0002:00005e98       ??_C@_05KNFBNCOH@float?$AA@ 00478e98     LIBCMT:undname.obj
 0002:00005ea0       ??_C@_06BNJCAIGJ@double?$AA@ 00478ea0     LIBCMT:undname.obj
 0002:00005ea8       ??_C@_04DDKJGDCM@bool?$AA@ 00478ea8     LIBCMT:undname.obj
 0002:00005eb0       ??_C@_06EBGKOKIG@__int8?$AA@ 00478eb0     LIBCMT:undname.obj
 0002:00005eb8       ??_C@_07ICFHOGAF@__int16?$AA@ 00478eb8     LIBCMT:undname.obj
 0002:00005ec0       ??_C@_07OFLPPHGP@__int32?$AA@ 00478ec0     LIBCMT:undname.obj
 0002:00005ec8       ??_C@_07LFCOJCAC@__int64?$AA@ 00478ec8     LIBCMT:undname.obj
 0002:00005ed0       ??_C@_08GAHOLHEO@__int128?$AA@ 00478ed0     LIBCMT:undname.obj
 0002:00005edc       ??_C@_09EEKGDCPH@?$DMunknown?$DO?$AA@ 00478edc     LIBCMT:undname.obj
 0002:00005ee8       ??_C@_07CLGGIAMF@wchar_t?$AA@ 00478ee8     LIBCMT:undname.obj
 0002:00005ef0       ??_C@_06GCICPBLB@__w64?5?$AA@ 00478ef0     LIBCMT:undname.obj
 0002:00005ef8       ??_C@_07EDHNAJHC@signed?5?$AA@ 00478ef8     LIBCMT:undname.obj
 0002:00005f00       ??_C@_05BNCCCJPP@const?$AA@ 00478f00     LIBCMT:undname.obj
 0002:00005f08       ??_C@_09EFNPDFFP@?5volatile?$AA@ 00478f08     LIBCMT:undname.obj
 0002:00005f14       ??_C@_0P@GCIFDJCJ@?$GAunknown?5ecsu?8?$AA@ 00478f14     LIBCMT:undname.obj
 0002:00005f24       ??_C@_06MOJHIBMG@union?5?$AA@ 00478f24     LIBCMT:undname.obj
 0002:00005f2c       ??_C@_07DIBCDNGL@struct?5?$AA@ 00478f2c     LIBCMT:undname.obj
 0002:00005f34       ??_C@_06LJBABKPM@class?5?$AA@ 00478f34     LIBCMT:undname.obj
 0002:00005f3c       ??_C@_08KOFANOFK@coclass?5?$AA@ 00478f3c     LIBCMT:undname.obj
 0002:00005f48       ??_C@_0N@DLIEFKNA@cointerface?5?$AA@ 00478f48     LIBCMT:undname.obj
 0002:00005f58       ??_C@_05LJGMCFOG@enum?5?$AA@ 00478f58     LIBCMT:undname.obj
 0002:00005f60       ??_C@_09GAIEOBLP@volatile?5?$AA@ 00478f60     LIBCMT:undname.obj
 0002:00005f6c       ??_C@_06LIJLOJAG@const?5?$AA@ 00478f6c     LIBCMT:undname.obj
 0002:00005f74       ??_C@_0M@EALIELKG@cli?3?3array?$DM?$AA@ 00478f74     LIBCMT:undname.obj
 0002:00005f80       ??_C@_0O@GKABPPIF@cli?3?3pin_ptr?$DM?$AA@ 00478f80     LIBCMT:undname.obj
 0002:00005f90       ??_C@_02GOGNNPBN@?$CJ?$FL?$AA@ 00478f90     LIBCMT:undname.obj
 0002:00005f94       ??_C@_06EEGAIFAK@?$HLflat?$HN?$AA@ 00478f94     LIBCMT:undname.obj
 0002:00005f9c       ??_C@_05JIBOFOHK@?$HLfor?5?$AA@ 00478f9c     LIBCMT:undname.obj
 0002:00005fa4       ??_C@_02MDINNEEG@s?5?$AA@  00478fa4     LIBCMT:undname.obj
 0002:00005fac       ??_7DNameNode@@6B@         00478fac     LIBCMT:undname.obj
 0002:00005fbc       ??_7charNode@@6B@          00478fbc     LIBCMT:undname.obj
 0002:00005fcc       ??_7pcharNode@@6B@         00478fcc     LIBCMT:undname.obj
 0002:00005fdc       ??_7pDNameNode@@6B@        00478fdc     LIBCMT:undname.obj
 0002:00005fec       ??_7DNameStatusNode@@6B@   00478fec     LIBCMT:undname.obj
 0002:00005ffc       ??_7pairNode@@6B@          00478ffc     LIBCMT:undname.obj
 0002:00006008       ??_C@_04OKOHEJBO@?5?$DP?$DP?5?$AA@ 00479008     LIBCMT:undname.obj
 0002:00006010       ??_C@_05KLBDPFGC@e?$CL000?$AA@ 00479010     LIBCMT:cvt.obj
 0002:00006018       ??_C@_1BA@BALFACEM@?$AAC?$AAO?$AAN?$AAO?$AAU?$AAT?$AA$?$AA?$AA@ 00479018     LIBCMT:initcon.obj
 0002:00006028       __real@00000000            00479028     LIBCMT:wcstoq.obj
 0002:0000602c       ??_C@_06PGGFOGJG@1?$CDSNAN?$AA@ 0047902c     LIBCMT:x10fout.obj
 0002:00006034       ??_C@_05PHHOCPM@1?$CDIND?$AA@ 00479034     LIBCMT:x10fout.obj
 0002:0000603c       ??_C@_05DNEBIAHO@1?$CDINF?$AA@ 0047903c     LIBCMT:x10fout.obj
 0002:00006044       ??_C@_06IMKFLFPG@1?$CDQNAN?$AA@ 00479044     LIBCMT:x10fout.obj
 0002:0000604c       ??_C@_0M@IHJMIJIE@requestorid?$AA@ 0047904c     WebApi:WebApi.obj
 0002:00006058       ??_C@_09NKLDHDBO@authtoken?$AA@ 00479058     WebApi:WebApi.obj
 0002:00006064       ??_C@_09OIGPADLP@authLevel?$AA@ 00479064     WebApi:WebApi.obj
 0002:00006070       ??_C@_06LPELCIKE@userId?$AA@ 00479070     WebApi:WebApi.obj
 0002:00006078       ??_C@_0M@IKKMHDBG@Module?3?5?$CFs?6?$AA@ 00479078     WebApi:WebApi.obj
 0002:00006084       ??_C@_0CJ@NGIIPJAH@?5?5no?5debug?5information?6?5?5?5?5addre@ 00479084     WebApi:WebApi.obj
 0002:000060b0       ??_C@_0CK@HFAAAIAJ@?5?5module?5not?5accessible?6?5?5?5?5addr@ 004790b0     WebApi:WebApi.obj
 0002:000060dc       ??_C@_0M@HLIOLAMA@?5?5line?3?5?$CFd?6?$AA@ 004790dc     WebApi:WebApi.obj
 0002:000060e8       ??_C@_0BD@JDNMMPIF@?5?5line?3?5?$DMunknown?$DO?6?$AA@ 004790e8     WebApi:WebApi.obj
 0002:000060fc       ??_C@_05GCIAPODO@?4text?$AA@ 004790fc     WebApi:WebApi.obj
 0002:00006104       ??_C@_04BPGEPMEM@CODE?$AA@ 00479104     WebApi:WebApi.obj
 0002:0000610c       ??_C@_0M@DHOAJCIB@?5?5file?3?5?$CFs?6?$AA@ 0047910c     WebApi:WebApi.obj
 0002:00006118       ??_C@_0BB@HNNFPKHH@?5?5file?3?5unknown?6?$AA@ 00479118     WebApi:WebApi.obj
 0002:0000612c       ??_C@_0BB@DMHMCKOB@?5?5?5?5function?3?5?$CFs?$AA@ 0047912c     WebApi:WebApi.obj
 0002:00006140       ??_C@_0BI@LNLGFDNO@?5?5?5?5function?3?5?$DMunknown?$DO?$AA@ 00479140     WebApi:WebApi.obj
 0002:00006158       ??_C@_06NGAPLPGC@?4debug?$AA@ 00479158     WebApi:WebApi.obj
 0002:00006160       ??_C@_06HLMNBFAL@?4rdata?$AA@ 00479160     WebApi:WebApi.obj
 0002:00006168       ??_C@_0BL@CMOMFGDN@EXCEPTION_ACCESS_VIOLATION?$AA@ 00479168     WebApi:WebApi.obj
 0002:00006184       ??_C@_0CA@JNIHFDGO@EXCEPTION_ARRAY_BOUNDS_EXCEEDED?$AA@ 00479184     WebApi:WebApi.obj
 0002:000061a4       ??_C@_0BF@FLLDOCJP@EXCEPTION_BREAKPOINT?$AA@ 004791a4     WebApi:WebApi.obj
 0002:000061bc       ??_C@_0CA@LEJEDDLG@EXCEPTION_DATATYPE_MISALIGNMENT?$AA@ 004791bc     WebApi:WebApi.obj
 0002:000061dc       ??_C@_0BP@NMNHALMC@EXCEPTION_FLT_DENORMAL_OPERAND?$AA@ 004791dc     WebApi:WebApi.obj
 0002:000061fc       ??_C@_0BN@PHPNMCML@EXCEPTION_FLT_DIVIDE_BY_ZERO?$AA@ 004791fc     WebApi:WebApi.obj
 0002:0000621c       ??_C@_0BN@KLCBBCKL@EXCEPTION_FLT_INEXACT_RESULT?$AA@ 0047921c     WebApi:WebApi.obj
 0002:0000623c       ??_C@_0CA@JJDIIMDB@EXCEPTION_FLT_INVALID_OPERATION?$AA@ 0047923c     WebApi:WebApi.obj
 0002:0000625c       ??_C@_0BH@LGFBHAFE@EXCEPTION_FLT_OVERFLOW?$AA@ 0047925c     WebApi:WebApi.obj
 0002:00006274       ??_C@_0BK@COBCCPEI@EXCEPTION_FLT_STACK_CHECK?$AA@ 00479274     WebApi:WebApi.obj
 0002:00006290       ??_C@_0BI@CHKFJJC@EXCEPTION_FLT_UNDERFLOW?$AA@ 00479290     WebApi:WebApi.obj
 0002:000062a8       ??_C@_0BF@BLPCMAHP@EXCEPTION_GUARD_PAGE?$AA@ 004792a8     WebApi:WebApi.obj
 0002:000062c0       ??_C@_0BO@DLLOIENN@EXCEPTION_ILLEGAL_INSTRUCTION?$AA@ 004792c0     WebApi:WebApi.obj
 0002:000062e0       ??_C@_0BI@BNDIILLI@EXCEPTION_IN_PAGE_ERROR?$AA@ 004792e0     WebApi:WebApi.obj
 0002:000062f8       ??_C@_0BN@LBLGDPIG@EXCEPTION_INT_DIVIDE_BY_ZERO?$AA@ 004792f8     WebApi:WebApi.obj
 0002:00006318       ??_C@_0BH@HNBKDLPO@EXCEPTION_INT_OVERFLOW?$AA@ 00479318     WebApi:WebApi.obj
 0002:00006330       ??_C@_0BO@GJKCLCLP@EXCEPTION_INVALID_DISPOSITION?$AA@ 00479330     WebApi:WebApi.obj
 0002:00006350       ??_C@_0CD@JGPJMHJA@EXCEPTION_NONCONTINUABLE_EXCEPTI@ 00479350     WebApi:WebApi.obj
 0002:00006374       ??_C@_0BL@HJPDFKEO@EXCEPTION_PRIV_INSTRUCTION?$AA@ 00479374     WebApi:WebApi.obj
 0002:00006390       ??_C@_0BG@HPCFEJHG@EXCEPTION_SINGLE_STEP?$AA@ 00479390     WebApi:WebApi.obj
 0002:000063a8       ??_C@_0BJ@FNEOPPMM@EXCEPTION_STACK_OVERFLOW?$AA@ 004793a8     WebApi:WebApi.obj
 0002:000063c4       ??_C@_0BD@MHDLMAGO@?5?5Description?3?5?$CFs?6?$AA@ 004793c4     WebApi:WebApi.obj
 0002:000063d8       ??_C@_0BL@OKDJNOBO@?5?5Description?5unavailable?6?$AA@ 004793d8     WebApi:WebApi.obj
 0002:000063f8       ??_C@_0EE@CAMDODON@?9?9?9?9?9?9?9?9?9?9?9?9?9?9?9?9?9?9?9?9?9?9?9?9?9?9?9?9?9?9?9?9@ 004793f8     WebApi:WebApi.obj
 0002:0000643c       ??_C@_0BA@BFCNKIKF@Call?5stack?3?6?$CFs?6?$AA@ 0047943c     WebApi:WebApi.obj
 0002:0000644c       ??_C@_03OFAPEBGM@?$CFs?6?$AA@ 0047944c     WebApi:WebApi.obj
 0002:00006450       ??_C@_0BB@OHNCPFCI@WapiCrashHandler?$AA@ 00479450     WebApi:WebApi.obj
 0002:00006464       ??_C@_0DB@KLOBIILG@?6?6?$CK?$CK?$CK?$CK?$CK?$CK?$CK?$CK?$CK?$CK?$CK?$CK?$CK?$CK?$CK?$CK?$CK?$CK?$CK?5CRASH?5?$CK?$CK?$CK?$CK@ 00479464     WebApi:WebApi.obj
 0002:00006498       ??_C@_0CC@MAIGLHFF@Unhandled?5Exception?$AN?6?5?5Code?3?5?$CFx?$AN@ 00479498     WebApi:WebApi.obj
 0002:000064bc       ??_C@_0M@MJJAFOKF@?90123456789?$AA@ 004794bc     WebApi:WebApi.obj
 0002:000064c8       ??_C@_03HAPOJHBM@GET?$AA@  004794c8     WebApi:WebApi.obj
 0002:000064cc       ??_C@_03KBBGFLEK@PUT?$AA@  004794cc     WebApi:WebApi.obj
 0002:000064d0       ??_C@_04HCJEIHPL@POST?$AA@ 004794d0     WebApi:WebApi.obj
 0002:000064d8       ??_C@_0N@CPBDDKLD@Invalid?5Data?$AA@ 004794d8     WebApi:WebApi.obj
 0002:000064e8       ??_C@_08GDGGOJBC@?$CFs?5?3?5?$CFs?6?$AA@ 004794e8     WebApi:WebApi.obj
 0002:000064f4       ??_C@_04CHJCHPAD@?$CK?$CK?$CK?$CK?$AA@ 004794f4     WebApi:WebApi.obj
 0002:000064fc       ??_C@_02PGHGPEOM@?91?$AA@  004794fc     WebApi:WebApi.obj
 0002:00006500       ??_C@_0BG@LBMBGEJO@2015?408?413?5?$CI05?447?5PM?$CJ?$AA@ 00479500     WebApi:WebApi.obj
 0002:00006518       ??_C@_0BP@COKFJALE@SmartPAR?5Version?3?5?$CFd?4?$CFd?4?$CFd?5?$CFs?6?$AA@ 00479518     WebApi:WebApi.obj
 0002:00006538       ??_C@_08FBHDOKDP@authuser?$AA@ 00479538     WebApi:WebApi.obj
 0002:00006544       ??_C@_08MBFFNCC@fixtures?$AA@ 00479544     WebApi:WebApi.obj
 0002:00006550       ??_C@_05PEDPMJAL@users?$AA@ 00479550     WebApi:WebApi.obj
 0002:00006558       ??_C@_05GOBBDDKJ@zones?$AA@ 00479558     WebApi:WebApi.obj
 0002:00006560       ??_C@_08CLLKOMAI@programs?$AA@ 00479560     WebApi:WebApi.obj
 0002:0000656c       ??_C@_0N@IHJDLNAC@programsteps?$AA@ 0047956c     WebApi:WebApi.obj
 0002:0000657c       ??_C@_06PHGKNCGC@alerts?$AA@ 0047957c     WebApi:WebApi.obj
 0002:00006584       ??_C@_07OPEKGLFC@network?$AA@ 00479584     WebApi:WebApi.obj
 0002:0000658c       ??_C@_08MHCOCOPF@rfconfig?$AA@ 0047958c     WebApi:WebApi.obj
 0002:00006598       ??_C@_06HJHJCKIO@server?$AA@ 00479598     WebApi:WebApi.obj
 0002:000065a0       ??_C@_0L@DNGLJIEO@controller?$AA@ 004795a0     WebApi:WebApi.obj
 0002:000065ac       ??_C@_0M@KHGNBPJ@faultAlerts?$AA@ 004795ac     WebApi:WebApi.obj
 0002:000065b8       ??_C@_0BE@COKODGN@fixturesResetFaults?$AA@ 004795b8     WebApi:WebApi.obj
 0002:000065cc       ??_C@_0BB@CPKOPEOG@zonesFaultStatus?$AA@ 004795cc     WebApi:WebApi.obj
 0002:000065e0       ??_C@_04ILAGGJBN@maps?$AA@ 004795e0     WebApi:WebApi.obj
 0002:000065e8       ??_C@_06OGCACFOJ@sensor?$AA@ 004795e8     WebApi:WebApi.obj
 0002:000065f0       ??_C@_0BD@CLADLOF@sensorsResetFaults?$AA@ 004795f0     WebApi:WebApi.obj
 0002:00006604       ??_C@_09BNFIFHGO@Starting?4?$AA@ 00479604     WebApi:WebApi.obj
 0002:00006610       ??_C@_0P@EIENEOFE@LumiGrow?5WebUI?$AA@ 00479610     WebApi:WebApi.obj
 0002:00006620       ??_C@_0L@DAAJPCKA@X?9Hostname?$AA@ 00479620     WebApi:WebApi.obj
 0002:0000662c       ??_C@_0CA@KONJHNGP@application?1json?$DL?5charset?$DNutf?98?$AA@ 0047962c     WebApi:WebApi.obj
 0002:0000664c       ??_C@_0N@HBJEOFKE@Content?9type?$AA@ 0047964c     WebApi:WebApi.obj
 0002:0000665c       ??_C@_0DN@LJGLDNMO@ERROR?5?3?5requestorid?5mismatch?0?6re@ 0047965c     WebApi:WebApi.obj
 0002:0000669c       ??_C@_0BD@NADLDLFF@apiAuthtokenAction?$AA@ 0047969c     WebApi:WebApi.obj
 0002:000066b0       ??_C@_06OOFFNAHO@?$CFs?5?3?5?6?$AA@ 004796b0     WebApi:WebApi.obj
 0002:000066b8       ??_C@_0BC@KNDDNHNH@apiAuthuserAction?$AA@ 004796b8     WebApi:WebApi.obj
 0002:000066cc       ??_C@_08ODGEKKOL@username?$AA@ 004796cc     WebApi:WebApi.obj
 0002:000066d8       ??_C@_08NLHBPEGP@password?$AA@ 004796d8     WebApi:WebApi.obj
 0002:000066e4       ??_C@_02EGCJHIOB@id?$AA@   004796e4     WebApi:WebApi.obj
 0002:000066e8       ??_C@_05HKHCDHCL@email?$AA@ 004796e8     WebApi:WebApi.obj
 0002:000066f0       ??_C@_0DI@LPNAPDBP@?$CFs?5?3?5username?$DN?$CC?$CFs?$CC?0?5password?$DN?$CC?$CFs@ 004796f0     WebApi:WebApi.obj
 0002:00006728       ??_C@_02DPKJAMEF@?$CFd?$AA@ 00479728     WebApi:WebApi.obj
 0002:0000672c       ??_C@_0O@ECBKOIAK@apiUserAction?$AA@ 0047972c     WebApi:WebApi.obj
 0002:0000673c       ??_C@_05KJNJLLGA@level?$AA@ 0047973c     WebApi:WebApi.obj
 0002:00006744       ??_C@_06DJIHEMFI@status?$AA@ 00479744     WebApi:WebApi.obj
 0002:0000674c       ??_C@_0CH@OIDAEAEF@?$CFs?5?3?5id?$DN?$CC?$CFs?$CC?0?5level?$DN?$CC?$CFs?$CC?0?5status@ 0047974c     WebApi:WebApi.obj
 0002:00006774       ??_C@_0BG@NPNKIMHO@?$CFs?9POST?5?3?5input?$DN?$CC?$CFs?$CC?6?$AA@ 00479774     WebApi:WebApi.obj
 0002:0000678c       ??_C@_0O@BIFLNLEF@apiZoneAction?$AA@ 0047978c     WebApi:WebApi.obj
 0002:0000679c       ??_C@_06HOCBNDML@skedid?$AA@ 0047979c     WebApi:WebApi.obj
 0002:000067a4       ??_C@_05IOMEMJEC@count?$AA@ 004797a4     WebApi:WebApi.obj
 0002:000067ac       ??_C@_0CH@FIBBCKEE@?$CFs?5?3?5id?$DN?$CC?$CFs?$CC?0?5skedid?$DN?$CC?$CFs?$CC?0?5count@ 004797ac     WebApi:WebApi.obj
 0002:000067d4       ??_C@_0BB@LNHCPFML@apiFixtureAction?$AA@ 004797d4     WebApi:WebApi.obj
 0002:000067e8       ??_C@_06LPEEICHK@zoneid?$AA@ 004797e8     WebApi:WebApi.obj
 0002:000067f0       ??_C@_0CH@NJODKJHJ@?$CFs?5?3?5id?$DN?$CC?$CFs?$CC?0?5zoneid?$DN?$CC?$CFs?$CC?0?5count@ 004797f0     WebApi:WebApi.obj
 0002:00006818       ??_C@_0BB@JLCMEDKJ@apiProgramAction?$AA@ 00479818     WebApi:WebApi.obj
 0002:0000682c       ??_C@_0BL@JJLOIBCM@?$CFs?5?3?5id?$DN?$CC?$CFs?$CC?0?5zoneid?$DN?$CC?$CFs?$CC?6?$AA@ 0047982c     WebApi:WebApi.obj
 0002:00006848       ??_C@_0BF@CGGBLKHA@apiProgramStepAction?$AA@ 00479848     WebApi:WebApi.obj
 0002:00006860       ??_C@_09BONALKNL@programid?$AA@ 00479860     WebApi:WebApi.obj
 0002:0000686c       ??_C@_0BO@GNKKHEBI@?$CFs?5?3?5id?$DN?$CC?$CFs?$CC?0?5programid?$DN?$CC?$CFs?$CC?6?$AA@ 0047986c     WebApi:WebApi.obj
 0002:0000688c       ??_C@_0P@BOPMHCAG@apiAlertAction?$AA@ 0047988c     WebApi:WebApi.obj
 0002:0000689c       ??_C@_06OEKOLKIL@source?$AA@ 0047989c     WebApi:WebApi.obj
 0002:000068a4       ??_C@_04MEMAJGDJ@name?$AA@ 004798a4     WebApi:WebApi.obj
 0002:000068ac       ??_C@_05PAKNFIFE@acked?$AA@ 004798ac     WebApi:WebApi.obj
 0002:000068b4       ??_C@_04GPMDFGEJ@type?$AA@ 004798b4     WebApi:WebApi.obj
 0002:000068bc       ??_C@_07OKIJBLIB@?$CFcid?$DN?$CFs?$AA@ 004798bc     WebApi:WebApi.obj
 0002:000068c4       ??_C@_0L@INGPIEGI@?$CFccount?$DN?$CFs?$AA@ 004798c4     WebApi:WebApi.obj
 0002:000068d0       ??_C@_0M@CLAKEANC@?$CFcsource?$DN?$CFs?$AA@ 004798d0     WebApi:WebApi.obj
 0002:000068dc       ??_C@_0BB@DIIIJMDO@?$CFcsource_name?$DN?$CFs?$AA@ 004798dc     WebApi:WebApi.obj
 0002:000068f0       ??_C@_0L@MJPADJHD@?$CFcacked?$DN?$CFs?$AA@ 004798f0     WebApi:WebApi.obj
 0002:000068fc       ??_C@_09ODCAJDFA@?$CFctype?$DN?$CFs?$AA@ 004798fc     WebApi:WebApi.obj
 0002:00006908       ??_C@_0BF@JIMODGOJ@?$CFs?9GET?5?3?5input?$DN?$CC?$CFs?$CC?6?$AA@ 00479908     WebApi:WebApi.obj
 0002:00006920       ??_C@_0BB@KNHPHKJF@apiNetworkAction?$AA@ 00479920     WebApi:WebApi.obj
 0002:00006934       ??_C@_0P@IBIJEN@?$CFs?9GET?5?3?5?$CC?$CFs?$CC?6?$AA@ 00479934     WebApi:WebApi.obj
 0002:00006944       ??_C@_0BA@KLOLKNMF@?$CFs?9POST?5?3?5?$CC?$CFs?$CC?6?$AA@ 00479944     WebApi:WebApi.obj
 0002:00006954       ??_C@_0BC@HCFCPMNG@apiRfConfigAction?$AA@ 00479954     WebApi:WebApi.obj
 0002:00006968       ??_C@_0BB@ECHMPNIA@apiWebsterAction?$AA@ 00479968     WebApi:WebApi.obj
 0002:0000697c       ??_C@_0BK@FELJBCCB@?$CFs?5?3?5id?$DN?$CC?$CFs?$CC?0?5count?$DN?$CC?$CFs?$CC?6?$AA@ 0047997c     WebApi:WebApi.obj
 0002:00006998       ??_C@_0BE@EPNJNEJN@apiControllerAction?$AA@ 00479998     WebApi:WebApi.obj
 0002:000069ac       ??_C@_0BE@PHLGAPJP@apiFaultAlertAction?$AA@ 004799ac     WebApi:WebApi.obj
 0002:000069c0       ??_C@_09MFEMNMLM@fixtureid?$AA@ 004799c0     WebApi:WebApi.obj
 0002:000069cc       ??_C@_0CC@NGJAEAJG@?$CFs?5?3?5zoneid?$DN?$CC?$CFs?$CC?0?5fixtureid?$DN?$CC?$CFs?$CC@ 004799cc     WebApi:WebApi.obj
 0002:000069f0       ??_C@_0BM@BKPNDFDP@apiFixtureResetFaultsAction?$AA@ 004799f0     WebApi:WebApi.obj
 0002:00006a0c       ??_C@_0BE@EONIOMGC@apiZoneFaultsAction?$AA@ 00479a0c     WebApi:WebApi.obj
 0002:00006a20       ??_C@_0BC@BOLIBEDC@?$CFs?5?3?5zoneid?$DN?$CC?$CFs?$CC?6?$AA@ 00479a20     WebApi:WebApi.obj
 0002:00006a34       ??_C@_0N@DOKECMAD@apiMapAction?$AA@ 00479a34     WebApi:WebApi.obj
 0002:00006a44       ??_C@_0BA@EIONCOGI@apiSensorAction?$AA@ 00479a44     WebApi:WebApi.obj
 0002:00006a54       ??_C@_0BL@HHDEAKAJ@apiSensorResetFaultsAction?$AA@ 00479a54     WebApi:WebApi.obj
 0002:00006a70       ??_C@_0O@GLCIGHGE@?$CFs?5?3?5id?$DN?$CC?$CFs?$CC?6?$AA@ 00479a70     WebApi:WebApi.obj
 0002:00006b40       ?m_pszCloseBrace@JsonObject@@1QBDB 00479b40     WebApi:JsonObject.obj
 0002:00006b44       ?m_pszOpenBrace@JsonObject@@1QBDB 00479b44     WebApi:JsonObject.obj
 0002:00006b48       ?m_pszCloseBracket@JsonObject@@1QBDB 00479b48     WebApi:JsonObject.obj
 0002:00006b4c       ?m_pszOpenBracket@JsonObject@@1QBDB 00479b4c     WebApi:JsonObject.obj
 0002:00006b50       ?szSmartPar@@3QBDB         00479b50     WebApi:Alert.obj
 0002:00006b54       ?m_sof@Controller@@1DB     00479b54     WebApi:Controller.obj
 0002:00006b55       ?m_eof@Controller@@1DB     00479b55     WebApi:Controller.obj
 0002:00006b56       ?escape@@3DB               00479b56     WebApi:LumiGrowJson.obj
 0002:00006b57       ?hexLead@@3DB              00479b57     WebApi:LumiGrowJson.obj
 0002:00006b58       ?unknown@@3PBDB            00479b58     WebApi:JsonValue.obj
 0002:00006b5c       ?m_pszNull@JsonValue@@1QBDB 00479b5c     WebApi:JsonValue.obj
 0002:00006b60       ?m_tokenChars@AuthToken@@0QBDB 00479b60     WebApi:AuthToken.obj
 0002:00006ba0       ?wildcard@@3PBDB           00479ba0     WebApi:JsonValue.obj
 0002:00006ba4       ?m_cToDelete@JsonValue@@1HB 00479ba4     WebApi:JsonValue.obj
 0002:00006ba8       ?m_pszQuotedNull@JsonValue@@1QBDB 00479ba8     WebApi:JsonValue.obj
 0002:00006c10       ?jfCode@@3U_NAMED_ENUM@@A  00479c10     WebApi:LumiGrowJson.obj
 0002:00006c18       ?jfCause@@3U_NAMED_ENUM@@A 00479c18     WebApi:LumiGrowJson.obj
 0002:00006c20       ?jfField@@3U_NAMED_ENUM@@A 00479c20     WebApi:LumiGrowJson.obj
 0002:00006c28       ?jfValue@@3U_NAMED_ENUM@@A 00479c28     WebApi:LumiGrowJson.obj
 0002:00006c30       ?jfAlerts@@3U_NAMED_ENUM@@A 00479c30     WebApi:LumiGrowJson.obj
 0002:00006c38       ?jfCount@@3U_NAMED_ENUM@@A 00479c38     WebApi:LumiGrowJson.obj
 0002:00006c40       ?jfAcked@@3U_NAMED_ENUM@@A 00479c40     WebApi:LumiGrowJson.obj
 0002:00006c48       ?jfTimeStamp@@3U_NAMED_ENUM@@A 00479c48     WebApi:LumiGrowJson.obj
 0002:00006c50       ?jfMessage@@3U_NAMED_ENUM@@A 00479c50     WebApi:LumiGrowJson.obj
 0002:00006c58       ?jfSourceName@@3U_NAMED_ENUM@@A 00479c58     WebApi:LumiGrowJson.obj
 0002:00006c60       ?jfSource@@3U_NAMED_ENUM@@A 00479c60     WebApi:LumiGrowJson.obj
 0002:00006c68       ?jfAlertType@@3U_NAMED_ENUM@@A 00479c68     WebApi:LumiGrowJson.obj
 0002:00006c70       ?jfId@@3U_NAMED_ENUM@@A    00479c70     WebApi:LumiGrowJson.obj
 0002:00006c78       ?jfReset@@3U_NAMED_ENUM@@A 00479c78     WebApi:LumiGrowJson.obj
 0002:00006c80       ?jfChannel@@3U_NAMED_ENUM@@A 00479c80     WebApi:LumiGrowJson.obj
 0002:00006c88       ?jfDateTime@@3U_NAMED_ENUM@@A 00479c88     WebApi:LumiGrowJson.obj
 0002:00006c90       ?jfToken@@3U_NAMED_ENUM@@A 00479c90     WebApi:LumiGrowJson.obj
 0002:00006c98       ?jfUsers@@3U_NAMED_ENUM@@A 00479c98     WebApi:LumiGrowJson.obj
 0002:00006ca0       ?jfStatus@@3U_NAMED_ENUM@@A 00479ca0     WebApi:LumiGrowJson.obj
 0002:00006ca8       ?jfLevel@@3U_NAMED_ENUM@@A 00479ca8     WebApi:LumiGrowJson.obj
 0002:00006cb0       ?jfEmail@@3U_NAMED_ENUM@@A 00479cb0     WebApi:LumiGrowJson.obj
 0002:00006cb8       ?jfLastname@@3U_NAMED_ENUM@@A 00479cb8     WebApi:LumiGrowJson.obj
 0002:00006cc0       ?jfFirstname@@3U_NAMED_ENUM@@A 00479cc0     WebApi:LumiGrowJson.obj
 0002:00006cc8       ?jfUsername@@3U_NAMED_ENUM@@A 00479cc8     WebApi:LumiGrowJson.obj
 0002:00006cd0       ?jfRequestorId@@3U_NAMED_ENUM@@A 00479cd0     WebApi:LumiGrowJson.obj
 0002:00006cd8       ?jfUser@@3U_NAMED_ENUM@@A  00479cd8     WebApi:LumiGrowJson.obj
 0002:00006ce0       ?jfZones@@3U_NAMED_ENUM@@A 00479ce0     WebApi:LumiGrowJson.obj
 0002:00006ce8       ?jfMapColor@@3U_NAMED_ENUM@@A 00479ce8     WebApi:LumiGrowJson.obj
 0002:00006cf0       ?jfMapSize@@3U_NAMED_ENUM@@A 00479cf0     WebApi:LumiGrowJson.obj
 0002:00006cf8       ?jfMapPosition@@3U_NAMED_ENUM@@A 00479cf8     WebApi:LumiGrowJson.obj
 0002:00006d00       ?jfScheduledId@@3U_NAMED_ENUM@@A 00479d00     WebApi:LumiGrowJson.obj
 0002:00006d08       ?jfPpfd@@3U_NAMED_ENUM@@A  00479d08     WebApi:LumiGrowJson.obj
 0002:00006d10       ?jfSleepMode@@3U_NAMED_ENUM@@A 00479d10     WebApi:LumiGrowJson.obj
 0002:00006d18       ?jfViewMode@@3U_NAMED_ENUM@@A 00479d18     WebApi:LumiGrowJson.obj
 0002:00006d20       ?jfBlue@@3U_NAMED_ENUM@@A  00479d20     WebApi:LumiGrowJson.obj
 0002:00006d28       ?jfGreen@@3U_NAMED_ENUM@@A 00479d28     WebApi:LumiGrowJson.obj
 0002:00006d30       ?jfWhite@@3U_NAMED_ENUM@@A 00479d30     WebApi:LumiGrowJson.obj
 0002:00006d38       ?jfRed@@3U_NAMED_ENUM@@A   00479d38     WebApi:LumiGrowJson.obj
 0002:00006d40       ?jfOutput@@3U_NAMED_ENUM@@A 00479d40     WebApi:LumiGrowJson.obj
 0002:00006d48       ?jfDescription@@3U_NAMED_ENUM@@A 00479d48     WebApi:LumiGrowJson.obj
 0002:00006d50       ?jfName@@3U_NAMED_ENUM@@A  00479d50     WebApi:LumiGrowJson.obj
 0002:00006d58       ?jfFixtures@@3U_NAMED_ENUM@@A 00479d58     WebApi:LumiGrowJson.obj
 0002:00006d60       ?jfRunFault@@3U_NAMED_ENUM@@A 00479d60     WebApi:LumiGrowJson.obj
 0002:00006d68       ?jfRunState@@3U_NAMED_ENUM@@A 00479d68     WebApi:LumiGrowJson.obj
 0002:00006d70       ?jfStickyFault@@3U_NAMED_ENUM@@A 00479d70     WebApi:LumiGrowJson.obj
 0002:00006d78       ?jfSignal@@3U_NAMED_ENUM@@A 00479d78     WebApi:LumiGrowJson.obj
 0002:00006d80       ?jfStrobe@@3U_NAMED_ENUM@@A 00479d80     WebApi:LumiGrowJson.obj
 0002:00006d88       ?jfRuntime@@3U_NAMED_ENUM@@A 00479d88     WebApi:LumiGrowJson.obj
 0002:00006d90       ?jfSerialNumber@@3U_NAMED_ENUM@@A 00479d90     WebApi:LumiGrowJson.obj
 0002:00006d98       ?jfZoneId@@3U_NAMED_ENUM@@A 00479d98     WebApi:LumiGrowJson.obj
 0002:00006da0       ?jfPrograms@@3U_NAMED_ENUM@@A 00479da0     WebApi:LumiGrowJson.obj
 0002:00006da8       ?jfProgramSteps@@3U_NAMED_ENUM@@A 00479da8     WebApi:LumiGrowJson.obj
 0002:00006db0       ?jfRand@@3U_NAMED_ENUM@@A  00479db0     WebApi:LumiGrowJson.obj
 0002:00006db8       ?jfMode@@3U_NAMED_ENUM@@A  00479db8     WebApi:LumiGrowJson.obj
 0002:00006dc0       ?jfStartTime@@3U_NAMED_ENUM@@A 00479dc0     WebApi:LumiGrowJson.obj
 0002:00006dc8       ?jfSequence@@3U_NAMED_ENUM@@A 00479dc8     WebApi:LumiGrowJson.obj
 0002:00006dd0       ?jfProgramId@@3U_NAMED_ENUM@@A 00479dd0     WebApi:LumiGrowJson.obj
 0002:00006dd8       ?jfNetwork@@3U_NAMED_ENUM@@A 00479dd8     WebApi:LumiGrowJson.obj
 0002:00006de0       ?jfDnsName@@3U_NAMED_ENUM@@A 00479de0     WebApi:LumiGrowJson.obj
 0002:00006de8       ?jfIpMask@@3U_NAMED_ENUM@@A 00479de8     WebApi:LumiGrowJson.obj
 0002:00006df0       ?jfGateway@@3U_NAMED_ENUM@@A 00479df0     WebApi:LumiGrowJson.obj
 0002:00006df8       ?jfIpAddr@@3U_NAMED_ENUM@@A 00479df8     WebApi:LumiGrowJson.obj
 0002:00006e00       ?jfDns3@@3U_NAMED_ENUM@@A  00479e00     WebApi:LumiGrowJson.obj
 0002:00006e08       ?jfDns2@@3U_NAMED_ENUM@@A  00479e08     WebApi:LumiGrowJson.obj
 0002:00006e10       ?jfDns1@@3U_NAMED_ENUM@@A  00479e10     WebApi:LumiGrowJson.obj
 0002:00006e18       ?jfWebsters@@3U_NAMED_ENUM@@A 00479e18     WebApi:LumiGrowJson.obj
 0002:00006e20       ?jfControllers@@3U_NAMED_ENUM@@A 00479e20     WebApi:LumiGrowJson.obj
 0002:00006e28       ?jfCurrent@@3U_NAMED_ENUM@@A 00479e28     WebApi:LumiGrowJson.obj
 0002:00006e30       ?jfHardwareVer@@3U_NAMED_ENUM@@A 00479e30     WebApi:LumiGrowJson.obj
 0002:00006e38       ?jfFirmwareVer@@3U_NAMED_ENUM@@A 00479e38     WebApi:LumiGrowJson.obj
 0002:00006e40       ?jfZonesFaultStatus@@3U_NAMED_ENUM@@A 00479e40     WebApi:LumiGrowJson.obj
 0002:00006e48       ?jfFaultStatus@@3U_NAMED_ENUM@@A 00479e48     WebApi:LumiGrowJson.obj
 0002:00006e50       ?jfMaps@@3U_NAMED_ENUM@@A  00479e50     WebApi:LumiGrowJson.obj
 0002:00006e58       ?jfSetting@@3U_NAMED_ENUM@@A 00479e58     WebApi:LumiGrowJson.obj
 0002:00006e60       ?jfDecoration@@3U_NAMED_ENUM@@A 00479e60     WebApi:LumiGrowJson.obj
 0002:00006e68       ?jfMapScale@@3U_NAMED_ENUM@@A 00479e68     WebApi:LumiGrowJson.obj
 0002:00006e70       ?jfSensors@@3U_NAMED_ENUM@@A 00479e70     WebApi:LumiGrowJson.obj
 0002:00006e78       ?afterEscape@@3QBDB        00479e78     WebApi:LumiGrowJson.obj
 0002:00006e81       ?doubleQuote@@3DB          00479e81     WebApi:LumiGrowJson.obj
 0002:00006e84       ?hexDigits@@3QBDB          00479e84     WebApi:LumiGrowJson.obj
 0002:00006e88       ?illegalJsonChar@@3QBDB    00479e88     WebApi:LumiGrowJson.obj
 0002:00006e94       ?jfProgram@@3U_NAMED_ENUM@@A 00479e94     WebApi:LumiGrowJson.obj
 0002:00006e9c       ?jfX@@3U_NAMED_ENUM@@A     00479e9c     WebApi:LumiGrowJson.obj
 0002:00006ea4       ?jfScheduled@@3U_NAMED_ENUM@@A 00479ea4     WebApi:LumiGrowJson.obj
 0002:00006eac       ?jfOverrideId@@3U_NAMED_ENUM@@A 00479eac     WebApi:LumiGrowJson.obj
 0002:00006eb4       ?jfY@@3U_NAMED_ENUM@@A     00479eb4     WebApi:LumiGrowJson.obj
 0002:00006ebc       ?jfIsDST@@3U_NAMED_ENUM@@A 00479ebc     WebApi:LumiGrowJson.obj
 0002:00006ec4       ?jfZoneHash@@3U_NAMED_ENUM@@A 00479ec4     WebApi:LumiGrowJson.obj
 0002:00006ecc       ?jfOverrideKh@@3U_NAMED_ENUM@@A 00479ecc     WebApi:LumiGrowJson.obj
 0002:00006ed4       ?jfHumid@@3U_NAMED_ENUM@@A 00479ed4     WebApi:LumiGrowJson.obj
 0002:00006edc       ?jfZoneKh@@3U_NAMED_ENUM@@A 00479edc     WebApi:LumiGrowJson.obj
 0002:00006ee4       ?jfDli@@3U_NAMED_ENUM@@A   00479ee4     WebApi:LumiGrowJson.obj
 0002:00006eec       ?jfScheduledKh@@3U_NAMED_ENUM@@A 00479eec     WebApi:LumiGrowJson.obj
 0002:00006ef4       ?jfRange@@3U_NAMED_ENUM@@A 00479ef4     WebApi:LumiGrowJson.obj
 0002:00006efc       ?jfType@@3U_NAMED_ENUM@@A  00479efc     WebApi:LumiGrowJson.obj
 0002:00006f04       ?jfColor@@3U_NAMED_ENUM@@A 00479f04     WebApi:LumiGrowJson.obj
 0002:00006f0c       ?jfPrimary@@3U_NAMED_ENUM@@A 00479f0c     WebApi:LumiGrowJson.obj
 0002:00006f14       ?jfSize@@3U_NAMED_ENUM@@A  00479f14     WebApi:LumiGrowJson.obj
 0002:00006f1c       ?jfStepId@@3U_NAMED_ENUM@@A 00479f1c     WebApi:LumiGrowJson.obj
 0002:00006f24       ?jfFarRed@@3U_NAMED_ENUM@@A 00479f24     WebApi:LumiGrowJson.obj
 0002:00006f2c       ?jfUseDST@@3U_NAMED_ENUM@@A 00479f2c     WebApi:LumiGrowJson.obj
 0002:00006f34       ?jfChannelNo@@3U_NAMED_ENUM@@A 00479f34     WebApi:LumiGrowJson.obj
 0002:00006f3c       ?jfIntensity@@3U_NAMED_ENUM@@A 00479f3c     WebApi:LumiGrowJson.obj
 0002:00006f44       ?jfUnknown@@3U_NAMED_ENUM@@A 00479f44     WebApi:LumiGrowJson.obj
 0002:00006f4c       ?jfAddr16@@3U_NAMED_ENUM@@A 00479f4c     WebApi:LumiGrowJson.obj
 0002:00006f54       ?jfOffset@@3U_NAMED_ENUM@@A 00479f54     WebApi:LumiGrowJson.obj
 0002:00006f5c       ?jfAction@@3U_NAMED_ENUM@@A 00479f5c     WebApi:LumiGrowJson.obj
 0002:00006f64       ?jfContent@@3U_NAMED_ENUM@@A 00479f64     WebApi:LumiGrowJson.obj
 0002:00006f6c       ?jfOverride@@3U_NAMED_ENUM@@A 00479f6c     WebApi:LumiGrowJson.obj
 0002:00006f74       ?jfItem@@3U_NAMED_ENUM@@A  00479f74     WebApi:LumiGrowJson.obj
 0002:00006f7c       ?jfDSTOffset@@3U_NAMED_ENUM@@A 00479f7c     WebApi:LumiGrowJson.obj
 0002:00006f84       ?jfColors@@3U_NAMED_ENUM@@A 00479f84     WebApi:LumiGrowJson.obj
 0002:00006f8c       ?jfFaultNum@@3U_NAMED_ENUM@@A 00479f8c     WebApi:LumiGrowJson.obj
 0002:00006f94       ?jfPath@@3U_NAMED_ENUM@@A  00479f94     WebApi:LumiGrowJson.obj
 0002:00006f9c       ?jfEncrypted@@3U_NAMED_ENUM@@A 00479f9c     WebApi:LumiGrowJson.obj
 0002:00006fa4       ?jfDeviceType@@3U_NAMED_ENUM@@A 00479fa4     WebApi:LumiGrowJson.obj
 0002:00006fac       ?jfParams@@3U_NAMED_ENUM@@A 00479fac     WebApi:LumiGrowJson.obj
 0002:00006fb4       ?jfAuthTokens@@3U_NAMED_ENUM@@A 00479fb4     WebApi:LumiGrowJson.obj
 0002:00006fbc       ?jfFaults@@3U_NAMED_ENUM@@A 00479fbc     WebApi:LumiGrowJson.obj
 0002:00006fc4       ?jfDnsSrv1@@3U_NAMED_ENUM@@A 00479fc4     WebApi:LumiGrowJson.obj
 0002:00006fcc       ?jfRfChannels@@3U_NAMED_ENUM@@A 00479fcc     WebApi:LumiGrowJson.obj
 0002:00006fd4       ?jfPanid@@3U_NAMED_ENUM@@A 00479fd4     WebApi:LumiGrowJson.obj
 0002:00006fdc       ?jfModuleNumber@@3U_NAMED_ENUM@@A 00479fdc     WebApi:LumiGrowJson.obj
 0002:00006fe4       ?jfDnsSrv3@@3U_NAMED_ENUM@@A 00479fe4     WebApi:LumiGrowJson.obj
 0002:00006fec       ?jfDirData@@3U_NAMED_ENUM@@A 00479fec     WebApi:LumiGrowJson.obj
 0002:00006ff4       ?jfKh@@3U_NAMED_ENUM@@A    00479ff4     WebApi:LumiGrowJson.obj
 0002:00006ffc       ?jfFixtureId@@3U_NAMED_ENUM@@A 00479ffc     WebApi:LumiGrowJson.obj
 0002:00007004       ?jfFields@@3U_NAMED_ENUM@@A 0047a004     WebApi:LumiGrowJson.obj
 0002:0000700c       ?jfEnabled@@3U_NAMED_ENUM@@A 0047a00c     WebApi:LumiGrowJson.obj
 0002:00007014       ?jfTemp@@3U_NAMED_ENUM@@A  0047a014     WebApi:LumiGrowJson.obj
 0002:0000701c       ?jfKemoid@@3U_NAMED_ENUM@@A 0047a01c     WebApi:LumiGrowJson.obj
 0002:00007024       ?jfKey@@3U_NAMED_ENUM@@A   0047a024     WebApi:LumiGrowJson.obj
 0002:0000702c       ?jfErrors@@3U_NAMED_ENUM@@A 0047a02c     WebApi:LumiGrowJson.obj
 0002:00007034       ?jfFileData@@3U_NAMED_ENUM@@A 0047a034     WebApi:LumiGrowJson.obj
 0002:0000703c       ?jfDnsSrv2@@3U_NAMED_ENUM@@A 0047a03c     WebApi:LumiGrowJson.obj
 0002:00007044       ?jfMacAddress@@3U_NAMED_ENUM@@A 0047a044     WebApi:LumiGrowJson.obj
 0002:0000704c       ?jfBias@@3U_NAMED_ENUM@@A  0047a04c     WebApi:LumiGrowJson.obj
 0002:00007054       ?jfPassword@@3U_NAMED_ENUM@@A 0047a054     WebApi:LumiGrowJson.obj
 0002:0000706c       ?m_curTableVer@AlertRecord@@1IA 0047a06c     WebApi:AlertRecord.obj
 0002:00007070       ?m_fileName@AlertRecord@@1PBDB 0047a070     WebApi:AlertRecord.obj
 0002:00007074       ?m_nColumns@AlertRecord@@1HA 0047a074     WebApi:AlertRecord.obj
 0002:00007078       ?m_tableSeed@AlertRecord@@1QBU_RECORD_V2@1@B 0047a078     WebApi:AlertRecord.obj
 0002:00007140       ?m_columns@AlertRecord@@1QBU_COLUMN_DETAIL@Record@@B 0047a140     WebApi:AlertRecord.obj
 0002:000071cc       ?m_curTableVer@ProgramRecord@@1IA 0047a1cc     WebApi:ProgramRecord.obj
 0002:000071d0       ?m_fileName@ProgramRecord@@1PBDB 0047a1d0     WebApi:ProgramRecord.obj
 0002:000071d4       ?m_nColumns@ProgramRecord@@1HA 0047a1d4     WebApi:ProgramRecord.obj
 0002:000071d8       ?m_szZoneItem@ZoneRecord@@1QBDB 0047a1d8     WebApi:ZoneRecord.obj
 0002:000071e0       ?m_columns@ProgramRecord@@1QBU_COLUMN_DETAIL@Record@@B 0047a1e0     WebApi:ProgramRecord.obj
 0002:00007228       ?m_curTableVer@ZoneRecord@@1IA 0047a228     WebApi:ZoneRecord.obj
 0002:0000722c       ?m_fileName@ZoneRecord@@1PBDB 0047a22c     WebApi:ZoneRecord.obj
 0002:00007230       ?m_nColumns@ZoneRecord@@1HA 0047a230     WebApi:ZoneRecord.obj
 0002:00007234       ?m_szFixtureItem@FixtureRecord@@1QBDB 0047a234     WebApi:FixtureRecord.obj
 0002:00007238       ?m_curTableVer@FixtureRecord@@1IA 0047a238     WebApi:FixtureRecord.obj
 0002:00007240       ?m_columns@ZoneRecord@@1QBU_COLUMN_DETAIL@Record@@B 0047a240     WebApi:ZoneRecord.obj
 0002:0000736c       ?m_fileName@FixtureRecord@@1PBDB 0047a36c     WebApi:FixtureRecord.obj
 0002:00007370       ?m_nColumns@FixtureRecord@@1HA 0047a370     WebApi:FixtureRecord.obj
 0002:00007374       ?cRunStatusAlertList@@3HA  0047a374     WebApi:FixtureRecord.obj
 0002:00007378       ?cRunStateAlertList@@3HA   0047a378     WebApi:FixtureRecord.obj
 0002:00007380       ?m_columns@FixtureRecord@@1QBU_COLUMN_DETAIL@Record@@B 0047a380     WebApi:FixtureRecord.obj
 0002:00007554       ?cFaultAlertList@@3HA      0047a554     WebApi:FixtureRecord.obj
 0002:00007558       ?m_szSensorItem@SensorRecord@@1QBDB 0047a558     WebApi:SensorRecord.obj
 0002:0000755c       ?m_curTableVer@SensorRecord@@1IA 0047a55c     WebApi:SensorRecord.obj
 0002:00007560       ?m_fileName@SensorRecord@@1PBDB 0047a560     WebApi:SensorRecord.obj
 0002:00007564       ?m_nColumns@SensorRecord@@1HA 0047a564     WebApi:SensorRecord.obj
 0002:00007568       ?m_curTableVer@UserRecord@@1IA 0047a568     WebApi:UserRecord.obj
 0002:00007570       ?m_columns@SensorRecord@@1QBU_COLUMN_DETAIL@Record@@B 0047a570     WebApi:SensorRecord.obj
 0002:000076d8       ?m_fileName@UserRecord@@1PBDB 0047a6d8     WebApi:UserRecord.obj
 0002:000076dc       ?m_nColumns@UserRecord@@1HA 0047a6dc     WebApi:UserRecord.obj
 0002:000076e0       ?m_columns@UserRecord@@1QBU_COLUMN_DETAIL@Record@@B 0047a6e0     WebApi:UserRecord.obj
 0002:0000774c       ?m_curTableVer@ProgramStepRecord@@0IA 0047a74c     WebApi:ProgramStepRecord.obj
 0002:00007750       ?m_tableSeed@UserRecord@@1QBU_RECORD_V2@1@B 0047a750     WebApi:UserRecord.obj
 0002:00007844       ?m_fileName@ProgramStepRecord@@0PBDB 0047a844     WebApi:ProgramStepRecord.obj
 0002:00007848       ?m_curTableVer@MapRecord@@1IA 0047a848     WebApi:MapRecord.obj
 0002:00007850       ?m_columns@ProgramStepRecord@@0QBU_COLUMN_DETAIL@Record@@B 0047a850     WebApi:ProgramStepRecord.obj
 0002:000078f8       ?m_fileName@MapRecord@@1PBDB 0047a8f8     WebApi:MapRecord.obj
 0002:000078fc       ?m_nColumns@MapRecord@@1HA 0047a8fc     WebApi:MapRecord.obj
 0002:00007900       ?m_columns@MapRecord@@1QBU_COLUMN_DETAIL@Record@@B 0047a900     WebApi:MapRecord.obj
 0002:00007978       ?m_firstId@Record@@1HA     0047a978     WebApi:Record.obj
 0002:0000797c       ?m_opChars@Record@@1PBDB   0047a97c     WebApi:Record.obj
 0002:00007980       ?m_operations@Record@@1QBU_OPERATION@1@B 0047a980     WebApi:Record.obj
 0002:000079ec       __GUID_43826d1e_e718_42ee_bc55_a1e261c37bfe 0047a9ec     WebApi:WebApi.obj
 0002:000079fc       __GUID_11a66efa_382e_451a_9234_1e0e12ef3085 0047a9fc     WebApi:WebApi.obj
 0002:00007a0c       ??_C@_0BN@IHONFMMM@JsonValueEnum?3?3JsonValueEnum?$AA@ 0047aa0c     WebApi:JsonEnum.obj
 0002:00007a2c       ??_C@_0BA@BJJMCDOE@Enum?5importJson?$AA@ 0047aa2c     WebApi:JsonEnum.obj
 0002:00007a3c       ??_C@_04OEDFLLKD@?$CC?$CFs?$CC?$AA@ 0047aa3c     WebApi:JsonEnum.obj
 0002:00007a48       ??_7JsonValueEnum@@6B@     0047aa48     WebApi:JsonEnum.obj
 0002:00007a80       ??_C@_05MBDEGLCK@ERROR?$AA@ 0047aa80     WebApi:Log.obj
 0002:00007a88       ??_C@_07KCOHIFOP@WARNING?$AA@ 0047aa88     WebApi:Log.obj
 0002:00007a90       ??_C@_0M@PHDJNCCI@INFORMATION?$AA@ 0047aa90     WebApi:Log.obj
 0002:00007a9c       ??_C@_07FMFBEBBO@VERBOSE?$AA@ 0047aa9c     WebApi:Log.obj
 0002:00007aa4       ??_C@_07NFANNNEC@UNKNOWN?$AA@ 0047aaa4     WebApi:Log.obj
 0002:00007aac       ??_C@_08DJPLMKB@loglevel?$AA@ 0047aaac     WebApi:Log.obj
 0002:00007ab8       ??_C@_0BK@OCGDOPFK@Logging?5Level?5set?5to?3?5?$CFs?6?$AA@ 0047aab8     WebApi:Log.obj
 0002:00007ad8       ??_C@_01CELHOKLL@?$HN?$AA@ 0047aad8     WebApi:JsonObject.obj
 0002:00007adc       ??_C@_01LBDDMOBJ@?$FN?$AA@ 0047aadc     WebApi:JsonObject.obj
 0002:00007ae0       ??_C@_01HCONENDN@?$HL?$AA@ 0047aae0     WebApi:JsonObject.obj
 0002:00007ae4       ??_C@_01OHGJGJJP@?$FL?$AA@ 0047aae4     WebApi:JsonObject.obj
 0002:00007ae8       ??_C@_0BB@ODNDJBPN@JsonObject?5error?$AA@ 0047aae8     WebApi:JsonObject.obj
 0002:00007afc       ??_C@_0BB@JPKCHJIJ@JsonObject?5cause?$AA@ 0047aafc     WebApi:JsonObject.obj
 0002:00007b10       ??_C@_0BG@EOEDFOPA@JsonObject?5errorField?$AA@ 0047ab10     WebApi:JsonObject.obj
 0002:00007b28       ??_C@_0BG@KABPBJO@JsonObject?5errorValue?$AA@ 0047ab28     WebApi:JsonObject.obj
 0002:00007b40       ??_C@_02DOPMLKHA@?0?$FN?$AA@ 0047ab40     WebApi:JsonObject.obj
 0002:00007b44       ??_C@_0BH@ONFFECKD@JsonObject?3?3importJson?$AA@ 0047ab44     WebApi:JsonObject.obj
 0002:00007b5c       ??_C@_0CB@OICJNAAJ@?$CFs?$CI?$CJ?5?3?5Missing?5open?5brace?5in?3?$CFs?6@ 0047ab5c     WebApi:JsonObject.obj
 0002:00007b80       ??_C@_0DA@BHAHMHCJ@?$CFs?$CI?$CJ?5?3?5Import?5failed?5for?5field?3?$CF@ 0047ab80     WebApi:JsonObject.obj
 0002:00007bb0       ??_C@_0CH@LCGIBBL@?$CFs?$CI?$CJ?5?3?5JSON?5field?5not?5found?0?5fie@ 0047abb0     WebApi:JsonObject.obj
 0002:00007bd8       ??_C@_0CC@OIMIKBPM@?$CFs?$CI?$CJ?5?3?5Missing?5close?5brace?5in?3?$CFs@ 0047abd8     WebApi:JsonObject.obj
 0002:00007bfc       ??_C@_0BF@DKLLIIDK@?7part?3?$CFs?5?$DN?5value?3?$CFs?6?$AA@ 0047abfc     WebApi:JsonObject.obj
 0002:00007c14       ??_C@_01IHBHIGKO@?0?$AA@   0047ac14     WebApi:JsonObject.obj
 0002:00007c16       ??_C@_00CNPNBAHC@?$AA@     0047ac16     WebApi:JsonObject.obj
 0002:00007c18       ??_C@_07NCGEMBNO@?$CFs?$CC?$CFs?$CC?3?$AA@ 0047ac18     WebApi:JsonObject.obj
 0002:00007c20       ??_C@_0BH@CGMIJKMI@JsonObject?3?3exportJson?$AA@ 0047ac20     WebApi:JsonObject.obj
 0002:00007c38       ??_C@_01BJJEKLCA@?$CC?$AA@ 0047ac38     WebApi:JsonObject.obj
 0002:00007c3c       ??_C@_03OKOLIABJ@?3?0?$HN?$AA@ 0047ac3c     WebApi:JsonObject.obj
 0002:00007c40       ??_C@_0BA@MBAHFPLN@JsonObject?3?3get?$AA@ 0047ac40     WebApi:JsonObject.obj
 0002:00007c5c       ??_7JsonObject@@6B@        0047ac5c     WebApi:JsonObject.obj
 0002:00007cd8       ??_C@_08EMGGFJJP@SmartPAR?$AA@ 0047acd8     WebApi:Alert.obj
 0002:00007ce4       ??_C@_0N@FDLONMAN@Alert?3?3Alert?$AA@ 0047ace4     WebApi:Alert.obj
 0002:00007cf4       ??_C@_08CCMIDBFE@Alert?5id?$AA@ 0047acf4     WebApi:Alert.obj
 0002:00007d00       ??_C@_0L@PJHBJBGB@Alert?5type?$AA@ 0047ad00     WebApi:Alert.obj
 0002:00007d0c       ??_C@_0N@LMPDNFIA@Alert?5source?$AA@ 0047ad0c     WebApi:Alert.obj
 0002:00007d1c       ??_C@_0BB@KHIBLNOG@Alert?5sourceName?$AA@ 0047ad1c     WebApi:Alert.obj
 0002:00007d30       ??_C@_0O@HKHLEFAI@Alert?5message?$AA@ 0047ad30     WebApi:Alert.obj
 0002:00007d40       ??_C@_0BA@BHNDGOKH@Alert?5timestamp?$AA@ 0047ad40     WebApi:Alert.obj
 0002:00007d50       ??_C@_0M@MFIOECGJ@Alert?5acked?$AA@ 0047ad50     WebApi:Alert.obj
 0002:00007d5c       ??_C@_0M@LLOHNDHP@Alert?5count?$AA@ 0047ad5c     WebApi:Alert.obj
 0002:00007d68       ??_C@_07ONPBMBOP@message?$AA@ 0047ad68     WebApi:Alert.obj
 0002:00007d70       ??_C@_0M@FNMIENAG@source_name?$AA@ 0047ad70     WebApi:Alert.obj
 0002:00007d7c       ??_C@_09OMDJNLDP@timestamp?$AA@ 0047ad7c     WebApi:Alert.obj
 0002:00007d88       ??_C@_0BG@HFBGIICH@queryFromHtml?5wrapper?$AA@ 0047ad88     WebApi:Alert.obj
 0002:00007da0       ??_C@_0O@GNOMNBJH@queryFromHtml?$AA@ 0047ada0     WebApi:Alert.obj
 0002:00007db0       ??_C@_0BH@BAJAPFMK@updateFromHtml?5wrapper?$AA@ 0047adb0     WebApi:Alert.obj
 0002:00007dc8       ??_C@_0P@HMOAMBOD@updateFromHtml?$AA@ 0047adc8     WebApi:Alert.obj
 0002:00007dd8       ??_C@_0P@IHBJBFGC@fromHtml?5idVal?$AA@ 0047add8     WebApi:Alert.obj
 0002:00007de8       ??_C@_0P@BEPLEJLH@fromHtml?5acked?$AA@ 0047ade8     WebApi:Alert.obj
 0002:00007df8       ??_C@_0BC@OBGBFPIA@fromHtml?5countVal?$AA@ 0047adf8     WebApi:Alert.obj
 0002:00007e0c       ??_C@_0BA@NNEJFPFI@fromHtml?5source?$AA@ 0047ae0c     WebApi:Alert.obj
 0002:00007e1c       ??_C@_0O@JMBOHOLF@fromHtml?5name?$AA@ 0047ae1c     WebApi:Alert.obj
 0002:00007e2c       ??_C@_0BB@PCBCKFGE@fromHtml?5message?$AA@ 0047ae2c     WebApi:Alert.obj
 0002:00007e40       ??_C@_0BD@HOJBCABN@fromHtml?5timestamp?$AA@ 0047ae40     WebApi:Alert.obj
 0002:00007e54       ??_C@_0BD@OODPCAPA@fromHtml?5alertType?$AA@ 0047ae54     WebApi:Alert.obj
 0002:00007e68       ??_C@_0BF@JBLKCEKK@fromHtml?5doDeleteVal?$AA@ 0047ae68     WebApi:Alert.obj
 0002:00007e80       ??_C@_06FOBLBEIN@delete?$AA@ 0047ae80     WebApi:Alert.obj
 0002:00007e88       ??_C@_0M@EHAPGNAC@?$CFY?9?$CFm?9?$CFd?5?$CFX?$AA@ 0047ae88     WebApi:Alert.obj
 0002:00007e94       ??_C@_04FKGDMHGB@id?$DN?$CK?$AA@ 0047ae94     WebApi:Alert.obj
 0002:00007e9c       ??_C@_0L@MFDFFMJM@nextRecord?$AA@ 0047ae9c     WebApi:Alert.obj
 0002:00007ea8       ??_C@_0BE@NAHJAHFL@queryFaults?5wrapper?$AA@ 0047aea8     WebApi:Alert.obj
 0002:00007ebc       ??_C@_0M@BNGPPFGH@queryFaults?$AA@ 0047aebc     WebApi:Alert.obj
 0002:00007ec8       ??_C@_0FN@PBGLLLDD@message?$DN?$CCOffline?$CC?5OR?5message?$DN?$CCFa@ 0047aec8     WebApi:Alert.obj
 0002:00007f28       ??_C@_09GFKCCIAD@?$CFs?5AND?5?$CFs?$AA@ 0047af28     WebApi:Alert.obj
 0002:00007f34       ??_C@_02DKCKIIND@?$CFs?$AA@ 0047af34     WebApi:Alert.obj
 0002:00007f38       ??_C@_0BB@NKONNENK@RESOURCE?5PROBLEM?$AA@ 0047af38     WebApi:Alert.obj
 0002:00007f4c       ??_C@_0M@EGLDAOOK@insertAlert?$AA@ 0047af4c     WebApi:Alert.obj
 0002:00007f58       ??_C@_0CM@JJFIHBDO@type?$DN?$CFd?$CGsource?$DN?$CFd?$CGsource_name?$DN?$CFs@ 0047af58     WebApi:Alert.obj
 0002:00007f94       ??_7Alert@@6B@             0047af94     WebApi:Alert.obj
 0002:00007ff4       ??_C@_0BE@DPAOIBOD@Controller?3?3connect?$AA@ 0047aff4     WebApi:Controller.obj
 0002:00008008       ??_C@_0BP@HOMKNMCI@?$CK?$CK?$CK?5NO?5RESOURCES?5FOR?5m_target?6?$AA@ 0047b008     WebApi:Controller.obj
 0002:00008028       ??_C@_03GJALCMIF@COM?$AA@  0047b028     WebApi:Controller.obj
 0002:0000802c       ??_C@_0BH@KOEPGEON@Controller?3?3tryConnect?$AA@ 0047b02c     WebApi:Controller.obj
 0002:00008044       ??_C@_0BK@HCKNGNJP@?$CFs?5?3?5Unknown?5target?$DN?$CC?$CFs?$CC?6?$AA@ 0047b044     WebApi:Controller.obj
 0002:00008060       ??_C@_0P@IMAIBCND@Communicating?4?$AA@ 0047b060     WebApi:Controller.obj
 0002:00008070       ??_C@_0BB@MBODCNO@Transmit?5failed?4?$AA@ 0047b070     WebApi:Controller.obj
 0002:00008084       ??_C@_0BA@NIGKKFJG@Receive?5failed?4?$AA@ 0047b084     WebApi:Controller.obj
 0002:00008094       ??_C@_0L@BOMEDCAH@sendAttach?$AA@ 0047b094     WebApi:Controller.obj
 0002:000080a0       ??_C@_0BG@FPPDFNII@Controller?3?3doRequest?$AA@ 0047b0a0     WebApi:Controller.obj
 0002:000080b8       ??_C@_0BI@IFEPNEIB@?$CK?$CK?$CK?$CK?$CK?5?$CFs?5?3?5send?5failed?6?$AA@ 0047b0b8     WebApi:Controller.obj
 0002:000080d0       ??_C@_0BL@CJIIGMEE@?$CK?$CK?$CK?$CK?$CK?5?$CFs?5?3?5receive?5failed?6?$AA@ 0047b0d0     WebApi:Controller.obj
 0002:000080ec       ??_C@_0BJ@BEDHOAK@Controller?3?3buildRequest?$AA@ 0047b0ec     WebApi:Controller.obj
 0002:00008108       ??_C@_0BC@BIMGDJNI@Controller?3?3query?$AA@ 0047b108     WebApi:Controller.obj
 0002:0000811c       ??_C@_05BKABJGDH@query?$AA@ 0047b11c     WebApi:Controller.obj
 0002:00008124       ??_C@_0BH@OOBJPHCI@Controller?3?3sendDelete?$AA@ 0047b124     WebApi:Controller.obj
 0002:0000813c       ??_C@_0L@PHEDEMDC@sendDelete?$AA@ 0047b13c     WebApi:Controller.obj
 0002:00008148       ??_C@_0BD@EDAMPEAP@Controller?3?3update?$AA@ 0047b148     WebApi:Controller.obj
 0002:0000815c       ??_C@_06HDLLMMEJ@update?$AA@ 0047b15c     WebApi:Controller.obj
 0002:00008164       ??_C@_0P@PJBEAGHD@setTime?5params?$AA@ 0047b164     WebApi:Controller.obj
 0002:00008174       ??_C@_0P@DODCIFCK@setTime?5fields?$AA@ 0047b174     WebApi:Controller.obj
 0002:00008184       ??_C@_0CF@ENIEHDNF@Setting?5Time?5of?5Day?3?5?$CFd?3?$CF2?42d?3?$CF2@ 0047b184     WebApi:Controller.obj
 0002:000081ac       ??_C@_01HIHLOKLC@1?$AA@    0047b1ac     WebApi:Controller.obj
 0002:000081b0       ??_C@_0BE@LNIINPPO@Controller?3?3setTime?$AA@ 0047b1b0     WebApi:Controller.obj
 0002:000081c4       ??_C@_0DC@KOLPHFBD@?$CFs?5?3?5?$CK?$CK?$CK?5ERROR?3?5controller?5faile@ 0047b1c4     WebApi:Controller.obj
 0002:000081f8       ??_C@_07MFOHDNMP@channel?$AA@ 0047b1f8     WebApi:Controller.obj
 0002:00008200       ??_C@_0BC@EPGEGHDA@initialize?5params?$AA@ 0047b200     WebApi:Controller.obj
 0002:00008214       ??_C@_0BC@IIECOEGJ@initialize?5fields?$AA@ 0047b214     WebApi:Controller.obj
 0002:00008228       ??_C@_0BM@GLJCNCL@Kemosabe?5channel?5set?5to?3?$CFs?6?$AA@ 0047b228     WebApi:Controller.obj
 0002:00008244       ??_C@_0BH@DHMJEEIK@Controller?3?3initialize?$AA@ 0047b244     WebApi:Controller.obj
 0002:0000825c       ??_C@_0DI@PAIIHLBA@?$CFs?5?3?5?$CK?$CK?$CK?5ERROR?3?5controller?5faile@ 0047b25c     WebApi:Controller.obj
 0002:00008294       ??_C@_02HAOIJKIC@?$CFc?$AA@ 0047b294     WebApi:Controller.obj
 0002:00008298       ??_C@_07LAEILJOC@?5x?$CF2?42x?$AA@ 0047b298     WebApi:Controller.obj
 0002:000082a0       ??_C@_07OFNIHAKE@no?5data?$AA@ 0047b2a0     WebApi:Controller.obj
 0002:000082a8       ??_C@_01EEMJAFIK@?6?$AA@   0047b2a8     WebApi:Controller.obj
 0002:000082ac       ??_C@_0BI@BIIPINKE@?$FL?$CF4lld?3?$CF2?42lld?4?$CF3?43lld?$FN?$AA@ 0047b2ac     WebApi:Controller.obj
 0002:000082c4       ??_C@_02FODMEDOG@?$DM?$DM?$AA@ 0047b2c4     WebApi:Controller.obj
 0002:000082c8       ??_C@_02GPIOPFAK@?$DO?$DO?$AA@ 0047b2c8     WebApi:Controller.obj
 0002:000082cc       ??_C@_0BB@JILPMADD@?$CFs?5?$CFs?5?5kemosabe?3?$AA@ 0047b2cc     WebApi:Controller.obj
 0002:000082e0       ??_C@_0BM@LEKECMEJ@Controller?3?3reconnectThread?$AA@ 0047b2e0     WebApi:Controller.obj
 0002:000082fc       ??_C@_0BC@DELOMPDD@$$$?5?$CFs?5?3?5started?6?$AA@ 0047b2fc     WebApi:Controller.obj
 0002:00008310       ??_C@_0BL@DJDHPGDB@$$$?5?$CFs?5?3?5reconnecting?$FL?$CFd?$FN?6?$AA@ 0047b310     WebApi:Controller.obj
 0002:0000832c       ??_C@_0BK@GLFDGDMI@?$CB?5Kemosabe?5reset?5from?5?$CFs?6?$AA@ 0047b32c     WebApi:Controller.obj
 0002:00008348       ??_C@_0BK@DJDACLMF@Controller?3?3internalReset?$AA@ 0047b348     WebApi:Controller.obj
 0002:00008364       ??_C@_0CC@GKKBHCBD@?6?6?6?$CL?$CL?$CL?5?$CFs?5?3?5resetting?5controller@ 0047b364     WebApi:Controller.obj
 0002:00008388       ??_C@_0N@PFLADNLI@reset?5params?$AA@ 0047b388     WebApi:Controller.obj
 0002:00008398       ??_C@_0N@DCJGLOOB@reset?5fields?$AA@ 0047b398     WebApi:Controller.obj
 0002:000083a8       ??_C@_04EFOBLGJF@hard?$AA@ 0047b3a8     WebApi:Controller.obj
 0002:000083b0       ??_C@_0BA@MELBOAFD@Kemosabe?5reset?6?$AA@ 0047b3b0     WebApi:Controller.obj
 0002:000083c0       ??_C@_0CK@IDBKMKCD@?$CFs?5?3?5?$CK?$CK?$CK?5ERROR?3?5Kemosabe?5failed?5@ 0047b3c0     WebApi:Controller.obj
 0002:000083ec       ??_C@_0CH@LGBGAPDO@?$CL?$CL?$CL?5?$CFs?5?3?5done?5resetting?5controll@ 0047b3ec     WebApi:Controller.obj
 0002:00008414       ??_C@_0BF@FENPGDLL@resetDatabase?5params?$AA@ 0047b414     WebApi:Controller.obj
 0002:0000842c       ??_C@_0BF@JDPJOAOC@resetDatabase?5fields?$AA@ 0047b42c     WebApi:Controller.obj
 0002:00008444       ??_C@_08PBOCEOLL@database?$AA@ 0047b444     WebApi:Controller.obj
 0002:00008450       ??_C@_0BJ@ELFJJKO@Kemosabe?5database?5reset?6?$AA@ 0047b450     WebApi:Controller.obj
 0002:0000846c       ??_C@_0BK@EMLHBKGO@Controller?3?3resetDatabase?$AA@ 0047b46c     WebApi:Controller.obj
 0002:00008488       ??_C@_0DD@NFHLGAHF@?$CFs?5?3?5?$CK?$CK?$CK?5ERROR?3?5Kemosabe?5failed?5@ 0047b488     WebApi:Controller.obj
 0002:000084bc       ??_C@_0BM@KCNHIDCO@Controller?3?3clockSkewThread?$AA@ 0047b4bc     WebApi:Controller.obj
 0002:000084d8       ??_C@_0HI@NHOGALKA@?$CK?$CK?$CK?$CK?5Kemosabe?5clock?5skew?5detecte@ 0047b4d8     WebApi:Controller.obj
 0002:00008550       ??_C@_0BC@BIDGENLP@controllerSetAddr?$AA@ 0047b550     WebApi:Controller.obj
 0002:00008564       ??_C@_0CC@CBEEAKBK@?$CFs?5?3?5setting?5Kemosabe?5Address?$DN?$CFs@ 0047b564     WebApi:Controller.obj
 0002:00008588       ??_C@_0BK@NOMIKBGA@?6?$CK?$CK?5No?5Controller?5at?3?5?$CFs?6?$AA@ 0047b588     WebApi:Controller.obj
 0002:000085bc       ??_7Controller@@6B@        0047b5bc     WebApi:Controller.obj
 0002:000085d4       ??_C@_0CA@MNNFAKLO@DatabaseManager?3?3reinitDatabase?$AA@ 0047b5d4     WebApi:DatabaseManager.obj
 0002:000085f4       ??_C@_0N@DEAKLPNJ@?$CFs?5starting?6?$AA@ 0047b5f4     WebApi:DatabaseManager.obj
 0002:00008604       ??_C@_0BP@EBHIFDLK@Kemosabe?5handles?5initialilzed?6?$AA@ 0047b604     WebApi:DatabaseManager.obj
 0002:00008624       ??_C@_0O@DBJOHBKI@?$CFs?5completed?6?$AA@ 0047b624     WebApi:DatabaseManager.obj
 0002:00008634       ??_C@_0BI@LCLOAOKH@DatabaseManager?3?3doSync?$AA@ 0047b634     WebApi:DatabaseManager.obj
 0002:0000864c       ??_C@_0BI@DCIGBPFF@?$CK?$CK?$CK?5?$CFs?5?3?5NO?5CONTROLLER?6?$AA@ 0047b64c     WebApi:DatabaseManager.obj
 0002:00008664       ??_C@_0CG@JPBLGLJL@DatabaseManager?3?3doSync?5sync?5Pro@ 0047b664     WebApi:DatabaseManager.obj
 0002:0000868c       ??_C@_0CD@IFKPLIME@DatabaseManager?3?3doSync?5sync?5Zon@ 0047b68c     WebApi:DatabaseManager.obj
 0002:000086b0       ??_C@_0CG@LILENKLB@DatabaseManager?3?3doSync?5sync?5Fix@ 0047b6b0     WebApi:DatabaseManager.obj
 0002:000086d8       ??_C@_0CF@HHBLPEDA@DatabaseManager?3?3doSync?5sync?5Sen@ 0047b6d8     WebApi:DatabaseManager.obj
 0002:00008700       ??_C@_0BJ@KFLLIAMA@?$CB?5?$CFs?5?$CK?$CK?$CK?5TERMINATED?5?$CK?$CK?$CK?6?$AA@ 0047b700     WebApi:DatabaseManager.obj
 0002:0000871c       ??_C@_0BF@EENHPHE@AuthToken?3?3AuthToken?$AA@ 0047b71c     WebApi:AuthToken.obj
 0002:00008734       ??_C@_0BA@BKFAKBNE@AuthToken?5token?$AA@ 0047b734     WebApi:AuthToken.obj
 0002:00008744       ??_C@_08HEOAMIEG@getToken?$AA@ 0047b744     WebApi:AuthToken.obj
 0002:00008750       ??_C@_0BA@IIKPEBDE@?$CK?$CK?$CK?5INVALID?5?$CK?$CK?$CK?$AA@ 0047b750     WebApi:AuthToken.obj
 0002:00008764       ??_7AuthToken@@6B@         0047b764     WebApi:AuthToken.obj
 0002:000087c4       ??_C@_0N@JLICLJJF@Error?3?3Error?$AA@ 0047b7c4     WebApi:Error.obj
 0002:000087d4       ??_C@_06HBNONAG@create?$AA@ 0047b7d4     WebApi:Error.obj
 0002:000087e0       ??_7Error@@6B@             0047b7e0     WebApi:Error.obj
 0002:00008840       ??_C@_01NBENCBCI@?$CK?$AA@ 0047b840     WebApi:JsonValue.obj
 0002:00008844       ??_C@_04MLLLIHIP@null?$AA@ 0047b844     WebApi:JsonValue.obj
 0002:0000884c       ??_C@_06KOPCDFHO@?$CCnull?$CC?$AA@ 0047b84c     WebApi:JsonValue.obj
 0002:00008858       ??_7JsonValue@@6B@         0047b858     WebApi:JsonValue.obj
 0002:00008890       ??_C@_0BJ@GKKLDLIB@UserWrapper?3?3UserWrapper?$AA@ 0047b890     WebApi:User.obj
 0002:000088ac       ??_C@_0BB@NAHKKMEC@UserWrapper?5user?$AA@ 0047b8ac     WebApi:User.obj
 0002:000088c0       ??_C@_0L@LPANAEJ@User?3?3User?$AA@ 0047b8c0     WebApi:User.obj
 0002:000088cc       ??_C@_07GHBFMLPG@User?5id?$AA@ 0047b8cc     WebApi:User.obj
 0002:000088d4       ??_C@_0BB@LEHHGOMN@User?5requestorid?$AA@ 0047b8d4     WebApi:User.obj
 0002:000088e8       ??_C@_0O@OIGDKOMG@User?5userName?$AA@ 0047b8e8     WebApi:User.obj
 0002:000088f8       ??_C@_0P@ONKOCIFF@User?5firstName?$AA@ 0047b8f8     WebApi:User.obj
 0002:00008908       ??_C@_0O@EMJCGFD@User?5lastName?$AA@ 0047b908     WebApi:User.obj
 0002:00008918       ??_C@_0L@IDJMADAD@User?5email?$AA@ 0047b918     WebApi:User.obj
 0002:00008924       ??_C@_0L@FADHIPEI@User?5level?$AA@ 0047b924     WebApi:User.obj
 0002:00008930       ??_C@_0M@MMLAKJG@User?5status?$AA@ 0047b930     WebApi:User.obj
 0002:0000893c       ??_C@_0BJ@EGIDNEJK@fromDbByUsername?5wrapper?$AA@ 0047b93c     WebApi:User.obj
 0002:00008958       ??_C@_0N@KDAMDCOA@fromDbByName?$AA@ 0047b958     WebApi:User.obj
 0002:00008968       ??_C@_0BN@DMHPBMAL@username?$DN?$CFs?5AND?5password?$DN?$DN?$CFs?$AA@ 0047b968     WebApi:User.obj
 0002:00008988       ??_C@_0BH@IHFGHGHL@fromDbByUserid?5wrapper?$AA@ 0047b988     WebApi:User.obj
 0002:000089a0       ??_C@_0P@GEHBACP@fromDbByUserid?$AA@ 0047b9a0     WebApi:User.obj
 0002:000089b0       ??_C@_0BD@ELIGHBOF@id?$DN?$CFs?5AND?5email?$DN?$CFs?$AA@ 0047b9b0     WebApi:User.obj
 0002:000089c4       ??_C@_0P@DCNHJDHH@fromDb?5wrapper?$AA@ 0047b9c4     WebApi:User.obj
 0002:000089d4       ??_C@_06DOGJBGOP@fromDb?$AA@ 0047b9d4     WebApi:User.obj
 0002:000089dc       ??_C@_05DFKBFPAB@id?$DN?$CFs?$AA@ 0047b9dc     WebApi:User.obj
 0002:000089e4       ??_C@_0BD@MMEPHKHI@level?$DN?$CFs?$CGstatus?$DN?$CFs?$AA@ 0047b9e4     WebApi:User.obj
 0002:000089f8       ??_C@_08IIDMFIMI@level?$DN?$CFs?$AA@ 0047b9f8     WebApi:User.obj
 0002:00008a04       ??_C@_09HFGKOHPJ@status?$DN?$CFs?$AA@ 0047ba04     WebApi:User.obj
 0002:00008a10       ??_C@_09GOBHFJBG@firstname?$AA@ 0047ba10     WebApi:User.obj
 0002:00008a1c       ??_C@_08PMOCCHO@lastname?$AA@ 0047ba1c     WebApi:User.obj
 0002:00008a28       ??_C@_01CLKCMJKC@?5?$AA@   0047ba28     WebApi:User.obj
 0002:00008a2c       ??_C@_0BD@PMLPKCDE@fromHtml?5firstname?$AA@ 0047ba2c     WebApi:User.obj
 0002:00008a40       ??_C@_0BC@HFLLJLLC@fromHtml?5lastname?$AA@ 0047ba40     WebApi:User.obj
 0002:00008a54       ??_C@_0P@JOCECGMI@fromHtml?5email?$AA@ 0047ba54     WebApi:User.obj
 0002:00008a64       ??_C@_0BC@KBAEENKD@fromHtml?5password?$AA@ 0047ba64     WebApi:User.obj
 0002:00008a78       ??_C@_0BD@LBCMEHFL@fromHtml?5statusVal?$AA@ 0047ba78     WebApi:User.obj
 0002:00008a8c       ??_C@_0BC@KEKHLKIE@fromHtml?5levelVal?$AA@ 0047ba8c     WebApi:User.obj
 0002:00008aa0       ??_C@_05DACCNLJH@id?$DN?$CFd?$AA@ 0047baa0     WebApi:User.obj
 0002:00008aa8       ??_C@_0O@CCFDGLEO@username?$DN?$CC?$CFs?$CC?$AA@ 0047baa8     WebApi:User.obj
 0002:00008abc       ??_7User@@6B@              0047babc     WebApi:User.obj
 0002:00008b20       ??_7UserWrapper@@6B@       0047bb20     WebApi:User.obj
 0002:00008b80       ??_C@_0L@MAPIPHIH@Zone?3?3Zone?$AA@ 0047bb80     WebApi:Zone.obj
 0002:00008b8c       ??_C@_07FPDKPGOH@zone?5id?$AA@ 0047bb8c     WebApi:Zone.obj
 0002:00008b94       ??_C@_09JIJKIGIL@zone?5name?$AA@ 0047bb94     WebApi:Zone.obj
 0002:00008ba0       ??_C@_09BNKKCAIB@zone?5desc?$AA@ 0047bba0     WebApi:Zone.obj
 0002:00008bac       ??_C@_0M@PCMDMMFM@zone?5status?$AA@ 0047bbac     WebApi:Zone.obj
 0002:00008bb8       ??_C@_0M@PBMCPACB@zone?5output?$AA@ 0047bbb8     WebApi:Zone.obj
 0002:00008bc4       ??_C@_08LJHKFJCH@zone?5red?$AA@ 0047bbc4     WebApi:Zone.obj
 0002:00008bd0       ??_C@_0L@NJDHDAPO@zone?5white?$AA@ 0047bbd0     WebApi:Zone.obj
 0002:00008bdc       ??_C@_0L@EEHHBCHC@zone?5green?$AA@ 0047bbdc     WebApi:Zone.obj
 0002:00008be8       ??_C@_09LNDFEBJP@zone?5blue?$AA@ 0047bbe8     WebApi:Zone.obj
 0002:00008bf4       ??_C@_0O@IHOELOHG@zone?5viewMode?$AA@ 0047bbf4     WebApi:Zone.obj
 0002:00008c04       ??_C@_0L@NHKBEEMD@zone?5sleep?$AA@ 0047bc04     WebApi:Zone.obj
 0002:00008c10       ??_C@_09LKKBEBDC@zone?5ppfd?$AA@ 0047bc10     WebApi:Zone.obj
 0002:00008c1c       ??_C@_0M@LFGFFDMP@zone?5skedid?$AA@ 0047bc1c     WebApi:Zone.obj
 0002:00008c28       ??_C@_0BB@GJOLPAID@zone?5mapPosition?$AA@ 0047bc28     WebApi:Zone.obj
 0002:00008c3c       ??_C@_0N@IIAHCAAD@zone?5mapSize?$AA@ 0047bc3c     WebApi:Zone.obj
 0002:00008c4c       ??_C@_0O@HAPLDHEA@zone?5mapColor?$AA@ 0047bc4c     WebApi:Zone.obj
 0002:00008c5c       ??_C@_0BD@BODNLCEM@skedid?$DN?$CFs?$CGcount?$DN?$CFs?$AA@ 0047bc5c     WebApi:Zone.obj
 0002:00008c70       ??_C@_09EDFDHBBP@skedid?$DN?$CFs?$AA@ 0047bc70     WebApi:Zone.obj
 0002:00008c7c       ??_C@_0P@LIFJJOOH@id?$DN?$CFs?$CGcount?$DN?$CFs?$AA@ 0047bc7c     WebApi:Zone.obj
 0002:00008c8c       ??_C@_08MNPKLNMM@count?$DN?$CFs?$AA@ 0047bc8c     WebApi:Zone.obj
 0002:00008c98       ??_C@_09DJPECFML@handle?$DN?$CFs?$AA@ 0047bc98     WebApi:Zone.obj
 0002:00008ca4       ??_C@_0N@IFAPPIEN@current?4blue?$AA@ 0047bca4     WebApi:Zone.obj
 0002:00008cb4       ??_C@_05KCJIIKFC@descr?$AA@ 0047bcb4     WebApi:Zone.obj
 0002:00008cbc       ??_C@_0O@CMJCJLDD@current?4green?$AA@ 0047bcbc     WebApi:Zone.obj
 0002:00008ccc       ??_C@_0P@PAHBGEKO@current?4output?$AA@ 0047bccc     WebApi:Zone.obj
 0002:00008cdc       ??_C@_04OGPLFBIA@ppfd?$AA@ 0047bcdc     WebApi:Zone.obj
 0002:00008ce4       ??_C@_0M@FLABEPIF@current?4red?$AA@ 0047bce4     WebApi:Zone.obj
 0002:00008cf0       ??_C@_0L@PCJPDGJF@sleep_mode?$AA@ 0047bcf0     WebApi:Zone.obj
 0002:00008cfc       ??_C@_06BEGFDMHH@overid?$AA@ 0047bcfc     WebApi:Zone.obj
 0002:00008d04       ??_C@_0O@LBNCLJLP@current?4white?$AA@ 0047bd04     WebApi:Zone.obj
 0002:00008d14       ??_C@_0P@IJODAHMN@map_position?4x?$AA@ 0047bd14     WebApi:Zone.obj
 0002:00008d24       ??_C@_0P@JAPIDGIM@map_position?4y?$AA@ 0047bd24     WebApi:Zone.obj
 0002:00008d34       ??_C@_0L@NFGMCLLC@map_size?4x?$AA@ 0047bd34     WebApi:Zone.obj
 0002:00008d40       ??_C@_0L@MMHHBKPD@map_size?4y?$AA@ 0047bd40     WebApi:Zone.obj
 0002:00008d4c       ??_C@_09LAMJMHNK@map_color?$AA@ 0047bd4c     WebApi:Zone.obj
 0002:00008d58       ??_C@_0P@EGMOJLLB@fromHtml?5descr?$AA@ 0047bd58     WebApi:Zone.obj
 0002:00008d68       ??_C@_0BD@OJPBPFDC@fromHtml?5outputVal?$AA@ 0047bd68     WebApi:Zone.obj
 0002:00008d7c       ??_C@_0BA@HKDDJOPG@fromHtml?5redVal?$AA@ 0047bd7c     WebApi:Zone.obj
 0002:00008d8c       ??_C@_0BC@HMHKMJFI@fromHtml?5greenVal?$AA@ 0047bd8c     WebApi:Zone.obj
 0002:00008da0       ??_C@_0BB@DPOAHEMH@fromHtml?5blueVal?$AA@ 0047bda0     WebApi:Zone.obj
 0002:00008db4       ??_C@_0BC@EFDLCMJB@fromHtml?5whiteVal?$AA@ 0047bdb4     WebApi:Zone.obj
 0002:00008dc8       ??_C@_0BC@DLLHNANP@fromHtml?5sleepVal?$AA@ 0047bdc8     WebApi:Zone.obj
 0002:00008ddc       ??_C@_0BB@IMNPKCMI@fromHtml?5viewVal?$AA@ 0047bddc     WebApi:Zone.obj
 0002:00008df0       ??_C@_0BD@IHBFNBLN@fromHtml?5skedidVal?$AA@ 0047bdf0     WebApi:Zone.obj
 0002:00008e04       ??_C@_0BD@PNLCIFGJ@fromHtml?5handleVal?$AA@ 0047be04     WebApi:Zone.obj
 0002:00008e18       ??_C@_0BA@KFMMLEF@fromHtml?5action?$AA@ 0047be18     WebApi:Zone.obj
 0002:00008e28       ??_C@_0BH@FFJDFACD@fromHtml?5mapPosition?4x?$AA@ 0047be28     WebApi:Zone.obj
 0002:00008e40       ??_C@_0BH@EMIIGBGC@fromHtml?5mapPosition?4y?$AA@ 0047be40     WebApi:Zone.obj
 0002:00008e58       ??_C@_0BF@KDHCDEPN@fromHtml?5mapPosition?$AA@ 0047be58     WebApi:Zone.obj
 0002:00008e70       ??_C@_0BD@BKOFCNOP@fromHtml?5mapSize?4x?$AA@ 0047be70     WebApi:Zone.obj
 0002:00008e84       ??_C@_0BD@DPOBMKO@fromHtml?5mapSize?4y?$AA@ 0047be84     WebApi:Zone.obj
 0002:00008e98       ??_C@_0BB@JAECMEBB@fromHtml?5mapSize?$AA@ 0047be98     WebApi:Zone.obj
 0002:00008eac       ??_C@_0BC@IDFKADOM@fromHtml?5mapColor?$AA@ 0047beac     WebApi:Zone.obj
 0002:00008ec0       ??_C@_06DKIGHACF@output?$AA@ 0047bec0     WebApi:Zone.obj
 0002:00008ec8       ??_C@_03FAAAOPJM@red?$AA@  0047bec8     WebApi:Zone.obj
 0002:00008ecc       ??_C@_05GBEEJKMC@green?$AA@ 0047becc     WebApi:Zone.obj
 0002:00008ed4       ??_C@_04OBGPFBCN@blue?$AA@ 0047bed4     WebApi:Zone.obj
 0002:00008edc       ??_C@_05PMAELIEO@white?$AA@ 0047bedc     WebApi:Zone.obj
 0002:00008ee4       ??_C@_09OENAHEG@view_mode?$AA@ 0047bee4     WebApi:Zone.obj
 0002:00008ef0       ??_C@_06NCGDPKCC@handle?$AA@ 0047bef0     WebApi:Zone.obj
 0002:00008ef8       ??_C@_0N@EFAEHNFI@map_position?$AA@ 0047bef8     WebApi:Zone.obj
 0002:00008f08       ??_C@_08JLBHHM@map_size?$AA@ 0047bf08     WebApi:Zone.obj
 0002:00008f14       ??_C@_0BL@CMNPBOLF@Zone?5has?5fixtures?5assigned?$AA@ 0047bf14     WebApi:Zone.obj
 0002:00008f30       ??_C@_09GPCPEHLH@name?$DN?$CC?$CFs?$CC?$AA@ 0047bf30     WebApi:Zone.obj
 0002:00008f40       ??_7Zone@@6B@              0047bf40     WebApi:Zone.obj
 0002:00008fa0       ??_C@_0BB@JBEILPCE@Fixture?3?3Fixture?$AA@ 0047bfa0     WebApi:Fixture.obj
 0002:00008fb4       ??_C@_0L@KLNLBGOL@Fixture?5id?$AA@ 0047bfb4     WebApi:Fixture.obj
 0002:00008fc0       ??_C@_0P@FCMMNPCO@Fixture?5zoneId?$AA@ 0047bfc0     WebApi:Fixture.obj
 0002:00008fd0       ??_C@_0BC@BADIPHC@Fixture?5serialNum?$AA@ 0047bfd0     WebApi:Fixture.obj
 0002:00008fe4       ??_C@_0N@JECFNPBO@Fixture?5name?$AA@ 0047bfe4     WebApi:Fixture.obj
 0002:00008ff4       ??_C@_0P@OPEDGLJB@Fixture?5output?$AA@ 0047bff4     WebApi:Fixture.obj
 0002:00009004       ??_C@_0M@LADIPEOM@Fixture?5red?$AA@ 0047c004     WebApi:Fixture.obj
 0002:00009010       ??_C@_0O@FJFOOIGM@Fixture?5white?$AA@ 0047c010     WebApi:Fixture.obj
 0002:00009020       ??_C@_0N@LBIKBIAK@Fixture?5blue?$AA@ 0047c020     WebApi:Fixture.obj
 0002:00009030       ??_C@_0BC@CECHBIPF@Fixture?5sleepmode?$AA@ 0047c030     WebApi:Fixture.obj
 0002:00009044       ??_C@_0P@EJOLGKAC@Fixture?5strobe?$AA@ 0047c044     WebApi:Fixture.obj
 0002:00009054       ??_C@_0BB@MFDNGLIH@Fixture?5viewmode?$AA@ 0047c054     WebApi:Fixture.obj
 0002:00009068       ??_C@_0BA@CGCGKMEE@Fixture?5runtime?$AA@ 0047c068     WebApi:Fixture.obj
 0002:00009078       ??_C@_0P@DFJLABMA@Fixture?5signal?$AA@ 0047c078     WebApi:Fixture.obj
 0002:00009088       ??_C@_0P@ILLAFDKI@Fixture?5faults?$AA@ 0047c088     WebApi:Fixture.obj
 0002:00009098       ??_C@_0BB@LMPGCMIF@Fixture?5runState?$AA@ 0047c098     WebApi:Fixture.obj
 0002:000090ac       ??_C@_0BC@IFFKAIMG@Fixture?5runStatus?$AA@ 0047c0ac     WebApi:Fixture.obj
 0002:000090c0       ??_C@_0BD@FEAOCNKM@Fixture?5mapPostion?$AA@ 0047c0c0     WebApi:Fixture.obj
 0002:000090d4       ??_C@_0BC@MEBDMAMI@fixtureListFromDb?$AA@ 0047c0d4     WebApi:Fixture.obj
 0002:000090e8       ??_C@_0BD@NADEHNBM@zoneid?$DN?$CFs?$CGcount?$DN?$CFs?$AA@ 0047c0e8     WebApi:Fixture.obj
 0002:000090fc       ??_C@_09BJLHBMDL@zoneid?$DN?$CFs?$AA@ 0047c0fc     WebApi:Fixture.obj
 0002:00009108       ??_C@_0BE@HCMEDGGJ@resetFaults?5wrapper?$AA@ 0047c108     WebApi:Fixture.obj
 0002:0000911c       ??_C@_0BC@MCOCICMK@resetFaults?5no?5id?$AA@ 0047c11c     WebApi:Fixture.obj
 0002:00009130       ??_C@_0BF@IBOKIIBF@resetFaults?5both?5ids?$AA@ 0047c130     WebApi:Fixture.obj
 0002:00009148       ??_C@_0M@LNBDCIJK@resetFaults?$AA@ 0047c148     WebApi:Fixture.obj
 0002:00009154       ??_C@_0P@JHGHJIK@id?$DN?$CFd?$CGsfault?$DN0?$AA@ 0047c154     WebApi:Fixture.obj
 0002:00009164       ??_C@_0L@GEKDAKBN@serial_num?$AA@ 0047c164     WebApi:Fixture.obj
 0002:00009170       ??_C@_06JMCOHBLG@strobe?$AA@ 0047c170     WebApi:Fixture.obj
 0002:00009178       ??_C@_06OAFOBKHE@signal?$AA@ 0047c178     WebApi:Fixture.obj
 0002:00009180       ??_C@_06FOHFEIBM@faults?$AA@ 0047c180     WebApi:Fixture.obj
 0002:00009188       ??_C@_08LGDKFLBA@runState?$AA@ 0047c188     WebApi:Fixture.obj
 0002:00009194       ??_C@_09FDFKDHK@runStatus?$AA@ 0047c194     WebApi:Fixture.obj
 0002:000091a0       ??_C@_0M@IEJJHINO@fromHtml?5id?$AA@ 0047c1a0     WebApi:Fixture.obj
 0002:000091ac       ??_C@_0BD@BDMENPOM@fromHtml?5serialNum?$AA@ 0047c1ac     WebApi:Fixture.obj
 0002:000091c0       ??_C@_0BD@NNPBLMJJ@fromHtml?5zoneidVal?$AA@ 0047c1c0     WebApi:Fixture.obj
 0002:000091d4       ??_C@_0BD@NHLCOJKG@fromHtml?5strobeVal?$AA@ 0047c1d4     WebApi:Fixture.obj
 0002:000091e8       ??_C@_0BA@GHJCKNMP@fromHtml?5faults?$AA@ 0047c1e8     WebApi:Fixture.obj
 0002:000091f8       ??_C@_06JDJDIGJF@sfault?$AA@ 0047c1f8     WebApi:Fixture.obj
 0002:00009200       ??_C@_0BE@BAMHLFID@fromHtml?5nextRecord?$AA@ 0047c200     WebApi:Fixture.obj
 0002:00009214       ??_C@_0BA@EIGOFJPP@serial_num?$DN?$CC?$CFs?$CC?$AA@ 0047c214     WebApi:Fixture.obj
 0002:00009228       ??_7Fixture@@6B@           0047c228     WebApi:Fixture.obj
 0002:00009288       ??_C@_0BB@EJKHFFPA@Program?3?3Program?$AA@ 0047c288     WebApi:Program.obj
 0002:0000929c       ??_C@_0L@HINGHOHG@Program?5id?$AA@ 0047c29c     WebApi:Program.obj
 0002:000092a8       ??_C@_0N@BDKDBBCO@Program?5name?$AA@ 0047c2a8     WebApi:Program.obj
 0002:000092b8       ??_C@_0O@CBJMGMBC@Program?5descr?$AA@ 0047c2b8     WebApi:Program.obj
 0002:000092c8       ??_C@_09LBPKNLBO@from?5Zone?$AA@ 0047c2c8     WebApi:Program.obj
 0002:000092d4       ??_C@_0P@FHOPDALF@from?5Zone?5next?$AA@ 0047c2d4     WebApi:Program.obj
 0002:000092e4       ??_C@_0BD@HENLCOLP@updateHtml?5wrapper?$AA@ 0047c2e4     WebApi:Program.obj
 0002:000092f8       ??_C@_0L@LFANHHPN@updateHtml?$AA@ 0047c2f8     WebApi:Program.obj
 0002:00009304       ??_C@_08BEPHPNIB@fromHtml?$AA@ 0047c304     WebApi:Program.obj
 0002:00009310       ??_C@_09MAOLIMJP@?5AND?5id?$DO0?$AA@ 0047c310     WebApi:Program.obj
 0002:0000931c       ??_C@_05JKHIFKBC@?$CFs?$DN?$CFd?$AA@ 0047c31c     WebApi:Program.obj
 0002:00009324       ??_C@_0L@PCAOILOF@id?$DN?$CFd?5?$CFs?$DN0?$AA@ 0047c324     WebApi:Program.obj
 0002:00009330       ??_C@_0BG@KOHPOAJL@programid?$DN?$CFd?$CGdelete?$DN1?$AA@ 0047c330     WebApi:Program.obj
 0002:00009348       ??_C@_07KPBALPLF@name?$DN?$CFs?$AA@ 0047c348     WebApi:Program.obj
 0002:0000935c       ??_7Program@@6B@           0047c35c     WebApi:Program.obj
 0002:000093bc       ??_C@_0N@MEPAHJDO@?50123456789?3?$AA@ 0047c3bc     WebApi:ProgramStep.obj
 0002:000093cc       ??_C@_08BCHAAPIF@?$CFd?3?$CFd?3?$CFd?$AA@ 0047c3cc     WebApi:ProgramStep.obj
 0002:000093d8       ??_C@_0BJ@GAOFLLFI@ProgramStep?3?3ProgramStep?$AA@ 0047c3d8     WebApi:ProgramStep.obj
 0002:000093f4       ??_C@_0BB@BBIANDOF@ProgramStep?5m_id?$AA@ 0047c3f4     WebApi:ProgramStep.obj
 0002:00009408       ??_C@_0BI@LCKJLFBJ@ProgramStep?5m_programid?$AA@ 0047c408     WebApi:ProgramStep.obj
 0002:00009420       ??_C@_0BH@EEOFONMO@ProgramStep?5m_sequence?$AA@ 0047c420     WebApi:ProgramStep.obj
 0002:00009438       ??_C@_0BI@CEAAAMOK@ProgramStep?5m_startTime?$AA@ 0047c438     WebApi:ProgramStep.obj
 0002:00009450       ??_C@_0BF@OKADJGAE@ProgramStep?5m_output?$AA@ 0047c450     WebApi:ProgramStep.obj
 0002:00009468       ??_C@_0BC@FHDKICCO@ProgramStep?5m_red?$AA@ 0047c468     WebApi:ProgramStep.obj
 0002:0000947c       ??_C@_0BE@BJPEGOKL@ProgramStep?5m_white?$AA@ 0047c47c     WebApi:ProgramStep.obj
 0002:00009490       ??_C@_0BD@MEAHLJOA@ProgramStep?5m_blue?$AA@ 0047c490     WebApi:ProgramStep.obj
 0002:000094a4       ??_C@_0BD@EJAGEIJI@ProgramStep?5m_mode?$AA@ 0047c4a4     WebApi:ProgramStep.obj
 0002:000094b8       ??_C@_0BD@FPOFILGP@ProgramStep?5m_rand?$AA@ 0047c4b8     WebApi:ProgramStep.obj
 0002:000094cc       ??_C@_08HLILCENJ@getSteps?$AA@ 0047c4cc     WebApi:ProgramStep.obj
 0002:000094d8       ??_C@_08IBBDGPOF@sequence?$AA@ 0047c4d8     WebApi:ProgramStep.obj
 0002:000094e4       ??_C@_05FAGFPHJG@start?$AA@ 0047c4e4     WebApi:ProgramStep.obj
 0002:000094ec       ??_C@_04GMGOKAFF@mode?$AA@ 0047c4ec     WebApi:ProgramStep.obj
 0002:000094f4       ??_C@_04HKINGDKC@rand?$AA@ 0047c4f4     WebApi:ProgramStep.obj
 0002:000094fc       ??_C@_0BG@GDJCBKFL@fromHtml?5programidVal?$AA@ 0047c4fc     WebApi:ProgramStep.obj
 0002:00009514       ??_C@_0BF@CKBEAOKC@fromHtml?5sequenceVal?$AA@ 0047c514     WebApi:ProgramStep.obj
 0002:0000952c       ??_C@_0P@LEDDOGHF@fromHtml?5start?$AA@ 0047c52c     WebApi:ProgramStep.obj
 0002:0000953c       ??_C@_0BB@BPKCKNMI@fromHtml?5modeVal?$AA@ 0047c53c     WebApi:ProgramStep.obj
 0002:00009550       ??_C@_0BB@HGPNPPME@fromHtml?5randVal?$AA@ 0047c550     WebApi:ProgramStep.obj
 0002:00009564       ??_C@_0N@CBPAMAGL@programid?$DN?$CFs?$AA@ 0047c564     WebApi:ProgramStep.obj
 0002:00009578       ??_7ProgramStep@@6B@       0047c578     WebApi:ProgramStep.obj
 0002:000095dc       ??_C@_0BB@LAMABFKI@Network?3?3Network?$AA@ 0047c5dc     WebApi:Network.obj
 0002:000095f0       ??_C@_0N@OLHOONOI@Network?5mode?$AA@ 0047c5f0     WebApi:Network.obj
 0002:00009600       ??_C@_0P@GMFIAIJP@Network?5ipaddr?$AA@ 0047c600     WebApi:Network.obj
 0002:00009610       ??_C@_0N@IMELACKA@Network?5mask?$AA@ 0047c610     WebApi:Network.obj
 0002:00009620       ??_C@_0BA@HILFMOOK@Network?5gateway?$AA@ 0047c620     WebApi:Network.obj
 0002:00009630       ??_C@_0N@EDNANLIE@Network?5name?$AA@ 0047c630     WebApi:Network.obj
 0002:00009640       ??_C@_0N@JJGMMFFJ@Network?5dns1?$AA@ 0047c640     WebApi:Network.obj
 0002:00009650       ??_C@_0N@LCEBJGJK@Network?5dns2?$AA@ 0047c650     WebApi:Network.obj
 0002:00009660       ??_C@_0N@KLFKKHNL@Network?5dns3?$AA@ 0047c660     WebApi:Network.obj
 0002:00009670       ??_C@_0O@DELAEINJ@fromHtml?5mode?$AA@ 0047c670     WebApi:Network.obj
 0002:00009680       ??_C@_0BA@MLJIHIE@fromHtml?5ipaddr?$AA@ 0047c680     WebApi:Network.obj
 0002:00009690       ??_C@_0BA@HMPOIGFK@fromHtml?5ipmask?$AA@ 0047c690     WebApi:Network.obj
 0002:000096a0       ??_C@_0BB@PCLAOGIJ@fromHtml?5gateway?$AA@ 0047c6a0     WebApi:Network.obj
 0002:000096b4       ??_C@_0BB@HKLNDMFA@fromHtml?5dnsname?$AA@ 0047c6b4     WebApi:Network.obj
 0002:000096c8       ??_C@_0O@EGKCGAGI@fromHtml?5dns1?$AA@ 0047c6c8     WebApi:Network.obj
 0002:000096d8       ??_C@_0O@GNIPDDKL@fromHtml?5dns2?$AA@ 0047c6d8     WebApi:Network.obj
 0002:000096e8       ??_C@_0O@HEJEACOK@fromHtml?5dns3?$AA@ 0047c6e8     WebApi:Network.obj
 0002:000096f8       ??_C@_07GAILHCO@ip_addr?$AA@ 0047c6f8     WebApi:Network.obj
 0002:00009700       ??_C@_07HGEPLGPA@ip_mask?$AA@ 0047c700     WebApi:Network.obj
 0002:00009708       ??_C@_07ONFDICAC@gateway?$AA@ 0047c708     WebApi:Network.obj
 0002:00009710       ??_C@_08FNGHDP@dns_name?$AA@ 0047c710     WebApi:Network.obj
 0002:0000971c       ??_C@_09EGNHDLCH@dns_srv_1?$AA@ 0047c71c     WebApi:Network.obj
 0002:00009728       ??_C@_09GNPKGIOE@dns_srv_2?$AA@ 0047c728     WebApi:Network.obj
 0002:00009734       ??_C@_09HEOBFJKF@dns_srv_3?$AA@ 0047c734     WebApi:Network.obj
 0002:00009740       ??_C@_0BE@OGAAOMDN@WRITE?5NOT?5SUPPORTED?$AA@ 0047c740     WebApi:Network.obj
 0002:00009758       ??_7Network@@6B@           0047c758     WebApi:Network.obj
 0002:000097b8       ??_C@_0BD@HHLHPEJB@RfConfig?3?3RfConfig?$AA@ 0047c7b8     WebApi:RfConfig.obj
 0002:000097cc       ??_C@_0M@NFBHJMAF@RfConfig?5id?$AA@ 0047c7cc     WebApi:RfConfig.obj
 0002:000097dc       ??_7RfConfig@@6B@          0047c7dc     WebApi:RfConfig.obj
 0002:0000983c       ??_C@_0M@BHBBCMMF@?$CFd?4?$CFd?4?$CFd?5?$CFs?$AA@ 0047c83c     WebApi:Webster.obj
 0002:00009848       ??_C@_0N@NEMDPHMO@Rebooting?4?4?4?$AA@ 0047c848     WebApi:Webster.obj
 0002:00009858       ??_C@_0BC@CMKKHBNG@fromHtml?5datetime?$AA@ 0047c858     WebApi:Webster.obj
 0002:0000986c       ??_C@_0BA@DANCBIBN@fromHtml?5useDst?$AA@ 0047c86c     WebApi:Webster.obj
 0002:0000987c       ??_C@_0P@DCHACOKD@fromHtml?5isDst?$AA@ 0047c87c     WebApi:Webster.obj
 0002:0000988c       ??_C@_0BD@LBLMHJKK@fromHtml?5dstOffset?$AA@ 0047c88c     WebApi:Webster.obj
 0002:000098a0       ??_C@_0P@MBJGKBAD@fromHtml?5reset?$AA@ 0047c8a0     WebApi:Webster.obj
 0002:000098b0       ??_C@_04JNIHBGGH@date?$AA@ 0047c8b0     WebApi:Webster.obj
 0002:000098b8       ??_C@_07OIDHLJII@use_dst?$AA@ 0047c8b8     WebApi:Webster.obj
 0002:000098c0       ??_C@_06OCOIAEGN@is_dst?$AA@ 0047c8c0     WebApi:Webster.obj
 0002:000098c8       ??_C@_0L@IBKGAOGM@dst_offset?$AA@ 0047c8c8     WebApi:Webster.obj
 0002:000098d4       ??_C@_05CFMALAOA@reset?$AA@ 0047c8d4     WebApi:Webster.obj
 0002:000098dc       ??_C@_09NENPGDLE@READ?5ONLY?$AA@ 0047c8dc     WebApi:Webster.obj
 0002:000098e8       ??_C@_0M@HAPFEDGH@update?5Time?$AA@ 0047c8e8     WebApi:Webster.obj
 0002:000098f4       ??_C@_0BI@HACCENAB@Reset?5requested?5by?5user?$AA@ 0047c8f4     WebApi:Webster.obj
 0002:0000990c       ??_C@_0DM@LPHDHODG@Reset?5error?0?5OpenProcessToken?5fa@ 0047c90c     WebApi:Webster.obj
 0002:00009948       ??_C@_1CI@NKKEIBLI@?$AAS?$AAe?$AAS?$AAh?$AAu?$AAt?$AAd?$AAo?$AAw?$AAn?$AAP?$AAr?$AAi?$AAv?$AAi?$AAl?$AAe?$AAg?$AAe?$AA?$AA@ 0047c948     WebApi:Webster.obj
 0002:00009970       ??_C@_0CN@PKLHDDNK@Reset?5error?0?5Don?8t?5have?5permissi@ 0047c970     WebApi:Webster.obj
 0002:000099a0       ??_C@_0CC@FOEPNDMB@Insufficient?5permission?5to?5reboo@ 0047c9a0     WebApi:Webster.obj
 0002:000099c4       ??_C@_0O@KPDBIOOE@CANNOT?5DELETE?$AA@ 0047c9c4     WebApi:Webster.obj
 0002:000099dc       ??_7Webster@@6B@           0047c9dc     WebApi:Webster.obj
 0002:00009a3c       ??_C@_0BP@DEACMIAB@Controller4Web?3?3Controller4Web?$AA@ 0047ca3c     WebApi:Controller4Web.obj
 0002:00009a5c       ??_C@_0BC@OOHPIFFC@Controller4Web?5id?$AA@ 0047ca5c     WebApi:Controller4Web.obj
 0002:00009a70       ??_C@_0BJ@GHBHALF@Controller4Web?5serialNum?$AA@ 0047ca70     WebApi:Controller4Web.obj
 0002:00009a8c       ??_C@_0BH@JHHHOCJD@Controller4Web?5current?$AA@ 0047ca8c     WebApi:Controller4Web.obj
 0002:00009aa4       ??_C@_0BL@BGIJFDGI@Controller4Web?5verFirmware?$AA@ 0047caa4     WebApi:Controller4Web.obj
 0002:00009ac0       ??_C@_0BL@CKKBMCIH@Controller4Web?5verHardware?$AA@ 0047cac0     WebApi:Controller4Web.obj
 0002:00009adc       ??_C@_0BH@OIGDOFJC@Controller4Web?5channel?$AA@ 0047cadc     WebApi:Controller4Web.obj
 0002:00009af4       ??_C@_0BE@GAIKHLNJ@Controller4Web?5mode?$AA@ 0047caf4     WebApi:Controller4Web.obj
 0002:00009b08       ??_C@_0BC@CLGJFNCG@fromHtml?5serialNo?$AA@ 0047cb08     WebApi:Controller4Web.obj
 0002:00009b1c       ??_C@_0BB@NKAEFJEE@fromHtml?5channel?$AA@ 0047cb1c     WebApi:Controller4Web.obj
 0002:00009b30       ??_C@_0BF@DLJJBOLJ@fromHtml?5verFirmware?$AA@ 0047cb30     WebApi:Controller4Web.obj
 0002:00009b48       ??_C@_0BF@HLBIPFG@fromHtml?5verHardware?$AA@ 0047cb48     WebApi:Controller4Web.obj
 0002:00009b60       ??_C@_0N@GFHOGKKC@firmware_ver?$AA@ 0047cb60     WebApi:Controller4Web.obj
 0002:00009b70       ??_C@_0N@GFIBDLCG@hardware_ver?$AA@ 0047cb70     WebApi:Controller4Web.obj
 0002:00009b80       ??_C@_0BG@PFIMBMLG@Controller4Web?5update?$AA@ 0047cb80     WebApi:Controller4Web.obj
 0002:00009b98       ??_C@_0BJ@KFOBFLJM@Controller4Web?3?3fromHtml?$AA@ 0047cb98     WebApi:Controller4Web.obj
 0002:00009bb4       ??_C@_0BP@NHFHIBKA@?$CFs?5?3?5failed?5to?5write?5cfg?5file?6?$AA@ 0047cbb4     WebApi:Controller4Web.obj
 0002:00009bd4       ??_C@_0CA@LPKBADPO@?$CFs?5?3?5unable?5to?5update?5cfg?5file?6?$AA@ 0047cbd4     WebApi:Controller4Web.obj
 0002:00009bf4       ??_C@_0BB@DBDAPONI@CONTROLLER?5ERROR?$AA@ 0047cbf4     WebApi:Controller4Web.obj
 0002:00009c0c       ??_7Controller4Web@@6B@    0047cc0c     WebApi:Controller4Web.obj
 0002:00009c6c       ??_C@_0BF@MFICEHMO@ZoneFault?3?3ZoneFault?$AA@ 0047cc6c     WebApi:ZoneFault.obj
 0002:00009c84       ??_C@_0BC@KKJJLJFN@zoneFault?5zone?5id?$AA@ 0047cc84     WebApi:ZoneFault.obj
 0002:00009c98       ??_C@_0BG@IFGPMCHJ@zoneFault?5faultStatus?$AA@ 0047cc98     WebApi:ZoneFault.obj
 0002:00009cb0       ??_C@_0BC@EDCBGGCI@ZoneFault?3?3fromDb?$AA@ 0047ccb0     WebApi:ZoneFault.obj
 0002:00009cc4       ??_C@_09BMDEJIKN@zoneid?$DN?$CFd?$AA@ 0047ccc4     WebApi:ZoneFault.obj
 0002:00009cd0       ??_C@_0M@OFNCPNKO@fromDb?5next?$AA@ 0047ccd0     WebApi:ZoneFault.obj
 0002:00009ce0       ??_7ZoneFault@@6B@         0047cce0     WebApi:ZoneFault.obj
 0002:00009d40       ??_C@_08IHCGKDOC@Map?3?3Map?$AA@ 0047cd40     WebApi:Map.obj
 0002:00009d4c       ??_C@_06JLJAPJDK@Map?5id?$AA@ 0047cd4c     WebApi:Map.obj
 0002:00009d54       ??_C@_08DMLDOEOC@Map?5name?$AA@ 0047cd54     WebApi:Map.obj
 0002:00009d60       ??_C@_08LJIDECOI@Map?5desc?$AA@ 0047cd60     WebApi:Map.obj
 0002:00009d6c       ??_C@_0M@NKHIEBEB@Map?5mapSize?$AA@ 0047cd6c     WebApi:Map.obj
 0002:00009d78       ??_C@_0N@NLPCGFBF@Map?5mapScale?$AA@ 0047cd78     WebApi:Map.obj
 0002:00009d88       ??_C@_0P@FMPODAPN@Map?5decoration?$AA@ 0047cd88     WebApi:Map.obj
 0002:00009d98       ??_C@_0M@IGGPJOGH@Map?5setting?$AA@ 0047cd98     WebApi:Map.obj
 0002:00009da4       ??_C@_0L@GFEIECKE@decoration?$AA@ 0047cda4     WebApi:Map.obj
 0002:00009db0       ??_C@_07NDLGHPLM@setting?$AA@ 0047cdb0     WebApi:Map.obj
 0002:00009db8       ??_C@_0M@CGAJAPCM@map_scale?4x?$AA@ 0047cdb8     WebApi:Map.obj
 0002:00009dc4       ??_C@_0M@DPBCDOGN@map_scale?4y?$AA@ 0047cdc4     WebApi:Map.obj
 0002:00009dd0       ??_C@_0BE@DDBMKLGD@fromHtml?5mapScale?4x?$AA@ 0047cdd0     WebApi:Map.obj
 0002:00009de4       ??_C@_0BE@CKAHJKCC@fromHtml?5mapScale?4y?$AA@ 0047cde4     WebApi:Map.obj
 0002:00009df8       ??_C@_0BC@LANDAOGE@fromHtml?5mapScale?$AA@ 0047cdf8     WebApi:Map.obj
 0002:00009e0c       ??_C@_0BE@LALKKLLL@fromHtml?5decoration?$AA@ 0047ce0c     WebApi:Map.obj
 0002:00009e20       ??_C@_0BB@MMFFBLDH@fromHtml?5setting?$AA@ 0047ce20     WebApi:Map.obj
 0002:00009e34       ??_C@_09IDEAMKFC@map_scale?$AA@ 0047ce34     WebApi:Map.obj
 0002:00009e44       ??_7Map@@6B@               0047ce44     WebApi:Map.obj
 0002:00009ea4       ??_C@_0BB@DHOHOJMM@SensorListFromDb?$AA@ 0047cea4     WebApi:Sensor.obj
 0002:00009eb8       ??_C@_0P@CODBECME@current?4farRed?$AA@ 0047ceb8     WebApi:Sensor.obj
 0002:00009ec8       ??_C@_0L@PLIHFIGI@dli?4output?$AA@ 0047cec8     WebApi:Sensor.obj
 0002:00009ed4       ??_C@_07FNNLKIMO@dli?4red?$AA@ 0047ced4     WebApi:Sensor.obj
 0002:00009edc       ??_C@_09JMDBFOHA@dli?4white?$AA@ 0047cedc     WebApi:Sensor.obj
 0002:00009ee8       ??_C@_08GEAHLKLC@dli?4blue?$AA@ 0047cee8     WebApi:Sensor.obj
 0002:00009ef4       ??_C@_09BHBHMPM@dli?4green?$AA@ 0047cef4     WebApi:Sensor.obj
 0002:00009f00       ??_C@_0L@CFMHHOAC@dli?4farRed?$AA@ 0047cf00     WebApi:Sensor.obj
 0002:00009f0c       ??_C@_0M@GJEHHDCL@temperature?$AA@ 0047cf0c     WebApi:Sensor.obj
 0002:00009f18       ??_C@_08FIPOEPJJ@humidity?$AA@ 0047cf18     WebApi:Sensor.obj
 0002:00009f24       ??_C@_0O@JJBLKENN@serial_num?$DN?$CFs?$AA@ 0047cf24     WebApi:Sensor.obj
 0002:00009f38       ??_7Sensor@@6B@            0047cf38     WebApi:Sensor.obj
 0002:00009f98       ??_C@_0CB@CPMIDKFJ@JsonValueString?3?3JsonValueString@ 0047cf98     WebApi:JsonString.obj
 0002:00009fc0       ??_7JsonValueString@@6B@   0047cfc0     WebApi:JsonString.obj
 0002:00009ff8       ??_C@_0BL@IEECIJGA@JsonValueInt?3?3JsonValueInt?$AA@ 0047cff8     WebApi:JsonInt.obj
 0002:0000a014       ??_C@_0L@FPFMPDDA@0123456789?$AA@ 0047d014     WebApi:JsonInt.obj
 0002:0000a024       ??_7JsonValueInt@@6B@      0047d024     WebApi:JsonInt.obj
 0002:0000a064       ??_C@_0N@HJBOLDCE@smartpar?4cfg?$AA@ 0047d064     WebApi:ConfigFile.obj
 0002:0000a074       ??_C@_01NEMOKFLO@?$DN?$AA@ 0047d074     WebApi:ConfigFile.obj
 0002:0000a078       ??_C@_09MJNNNHCA@?$CFs?5?$DN?5?$CFs?$AN?6?$AA@ 0047d078     WebApi:ConfigFile.obj
 0002:0000a084       ??_C@_04LLEBNMDN@?$CFs?$AN?6?$AA@ 0047d084     WebApi:ConfigFile.obj
 0002:0000a0ac       ??_C@_07CIFAGBMG@unknown?$AA@ 0047d0ac     WebApi:LumiGrowJson.obj
 0002:0000a0b4       ??_C@_0L@DNBHFKIO@module_num?$AA@ 0047d0b4     WebApi:LumiGrowJson.obj
 0002:0000a0c0       ??_C@_08KNNMIHPM@mac_addr?$AA@ 0047d0c0     WebApi:LumiGrowJson.obj
 0002:0000a0cc       ??_C@_09CCEPABBP@scheduled?$AA@ 0047d0cc     WebApi:LumiGrowJson.obj
 0002:0000a0d8       ??_C@_08PNBPAFID@override?$AA@ 0047d0d8     WebApi:LumiGrowJson.obj
 0002:0000a0e4       ??_C@_04NBAGBPGE@bias?$AA@ 0047d0e4     WebApi:LumiGrowJson.obj
 0002:0000a0ec       ??_C@_07LKPDDKMO@current?$AA@ 0047d0ec     WebApi:LumiGrowJson.obj
 0002:0000a0f4       ??_C@_07OKPPBOMK@runtime?$AA@ 0047d0f4     WebApi:LumiGrowJson.obj
 0002:0000a0fc       ??_C@_09DDBFFAKC@intensity?$AA@ 0047d0fc     WebApi:LumiGrowJson.obj
 0002:0000a108       ??_C@_07NDIKPFFE@far_red?$AA@ 0047d108     WebApi:LumiGrowJson.obj
 0002:0000a110       ??_C@_07MHHIKOPA@enabled?$AA@ 0047d110     WebApi:LumiGrowJson.obj
 0002:0000a118       ??_C@_0M@KJEGLGCO@device_type?$AA@ 0047d118     WebApi:LumiGrowJson.obj
 0002:0000a124       ??_C@_05CCGOGOBM@range?$AA@ 0047d124     WebApi:LumiGrowJson.obj
 0002:0000a12c       ??_C@_06ENIPCAGE@colors?$AA@ 0047d12c     WebApi:LumiGrowJson.obj
 0002:0000a134       ??_C@_0M@DGDIFECD@fixturehash?$AA@ 0047d134     WebApi:LumiGrowJson.obj
 0002:0000a140       ??_C@_02GMAKNDAG@op?$AA@   0047d140     WebApi:LumiGrowJson.obj
 0002:0000a144       ??_C@_03ICHNJLJF@key?$AA@  0047d144     WebApi:LumiGrowJson.obj
 0002:0000a148       ??_C@_04NHONDGDE@item?$AA@ 0047d148     WebApi:LumiGrowJson.obj
 0002:0000a150       ??_C@_06MOOAPOID@fields?$AA@ 0047d150     WebApi:LumiGrowJson.obj
 0002:0000a158       ??_C@_06JMGHNNK@params?$AA@ 0047d158     WebApi:LumiGrowJson.obj
 0002:0000a160       ??_C@_06PHGLKMNC@kemoid?$AA@ 0047d160     WebApi:LumiGrowJson.obj
 0002:0000a168       ??_C@_05HMCDNDFM@panid?$AA@ 0047d168     WebApi:LumiGrowJson.obj
 0002:0000a170       ??_C@_06NNAGINNE@addr16?$AA@ 0047d170     WebApi:LumiGrowJson.obj
 0002:0000a178       ??_C@_07CJDBHDIN@primary?$AA@ 0047d178     WebApi:LumiGrowJson.obj
 0002:0000a180       ??_C@_09OEKGEILE@encrypted?$AA@ 0047d180     WebApi:LumiGrowJson.obj
 0002:0000a18c       ??_C@_06DDLLCOJG@action?$AA@ 0047d18c     WebApi:LumiGrowJson.obj
 0002:0000a194       ??_C@_05PEENBMOG@color?$AA@ 0047d194     WebApi:LumiGrowJson.obj
 0002:0000a19c       ??_C@_0M@JFELCNDK@controllers?$AA@ 0047d19c     WebApi:LumiGrowJson.obj
 0002:0000a1a8       ??_C@_05JDMCCCGI@steps?$AA@ 0047d1a8     WebApi:LumiGrowJson.obj
 0002:0000a1b0       ??_C@_0M@GJHDMELH@auth_tokens?$AA@ 0047d1b0     WebApi:LumiGrowJson.obj
 0002:0000a1bc       ??_C@_06EOMHCNPI@errors?$AA@ 0047d1bc     WebApi:LumiGrowJson.obj
 0002:0000a1c4       ??_C@_02OJBIODID@kh?$AA@   0047d1c4     WebApi:LumiGrowJson.obj
 0002:0000a1c8       ??_C@_06NBBAEIKJ@skedkh?$AA@ 0047d1c8     WebApi:LumiGrowJson.obj
 0002:0000a1d0       ??_C@_06LLFEKHBF@overkh?$AA@ 0047d1d0     WebApi:LumiGrowJson.obj
 0002:0000a1d8       ??_C@_06BAHFBJBI@zonekh?$AA@ 0047d1d8     WebApi:LumiGrowJson.obj
 0002:0000a1e0       ??_C@_06FDNKKDEN@stepid?$AA@ 0047d1e0     WebApi:LumiGrowJson.obj
 0002:0000a1e8       ??_C@_04CCHAHKJA@user?$AA@ 0047d1e8     WebApi:LumiGrowJson.obj
 0002:0000a1f0       ??_C@_04BOHMIIOE@dns1?$AA@ 0047d1f0     WebApi:LumiGrowJson.obj
 0002:0000a1f8       ??_C@_04DFFBNLCH@dns2?$AA@ 0047d1f8     WebApi:LumiGrowJson.obj
 0002:0000a200       ??_C@_04CMEKOKGG@dns3?$AA@ 0047d200     WebApi:LumiGrowJson.obj
 0002:0000a208       ??_C@_0L@PIDFCIGO@rfchannels?$AA@ 0047d208     WebApi:LumiGrowJson.obj
 0002:0000a214       ??_C@_02OHALLCDL@ch?$AA@   0047d214     WebApi:LumiGrowJson.obj
 0002:0000a218       ??_C@_07OGLPNDI@servers?$AA@ 0047d218     WebApi:LumiGrowJson.obj
 0002:0000a220       ??_C@_04LNEJFJGI@path?$AA@ 0047d220     WebApi:LumiGrowJson.obj
 0002:0000a228       ??_C@_04IAGNFIBA@size?$AA@ 0047d228     WebApi:LumiGrowJson.obj
 0002:0000a230       ??_C@_08JBMECAMI@dir_data?$AA@ 0047d230     WebApi:LumiGrowJson.obj
 0002:0000a23c       ??_C@_09FDGIGDFE@file_data?$AA@ 0047d23c     WebApi:LumiGrowJson.obj
 0002:0000a248       ??_C@_06KLHHMIGM@offset?$AA@ 0047d248     WebApi:LumiGrowJson.obj
 0002:0000a250       ??_C@_06FAGIBHOL@rstate?$AA@ 0047d250     WebApi:LumiGrowJson.obj
 0002:0000a258       ??_C@_06DFOEINCB@rfault?$AA@ 0047d258     WebApi:LumiGrowJson.obj
 0002:0000a260       ??_C@_0N@NDJJJJLM@fault_status?$AA@ 0047d260     WebApi:LumiGrowJson.obj
 0002:0000a270       ??_C@_0BD@FONPAJM@zones_fault_status?$AA@ 0047d270     WebApi:LumiGrowJson.obj
 0002:0000a284       ??_C@_01FJMABOPO@x?$AA@    0047d284     WebApi:LumiGrowJson.obj
 0002:0000a288       ??_C@_01EANLCPLP@y?$AA@    0047d288     WebApi:LumiGrowJson.obj
 0002:0000a28c       ??_C@_07NNCCFAMM@sensors?$AA@ 0047d28c     WebApi:LumiGrowJson.obj
 0002:0000a294       ??_C@_03JPANKCBN@dli?$AA@  0047d294     WebApi:LumiGrowJson.obj
 0002:0000a298       ??_C@_04FGEHGIFJ@temp?$AA@ 0047d298     WebApi:LumiGrowJson.obj
 0002:0000a2a0       ??_C@_05BEHDMNAG@humid?$AA@ 0047d2a0     WebApi:LumiGrowJson.obj
 0002:0000a2a8       ??_C@_04NDFOBODE@code?$AA@ 0047d2a8     WebApi:LumiGrowJson.obj
 0002:0000a2b0       ??_C@_05EIBGDMPB@field?$AA@ 0047d2b0     WebApi:LumiGrowJson.obj
 0002:0000a2b8       ??_C@_05HGNDGEBA@cause?$AA@ 0047d2b8     WebApi:LumiGrowJson.obj
 0002:0000a2c0       ??_C@_05MFEJDJP@value?$AA@ 0047d2c0     WebApi:LumiGrowJson.obj
 0002:0000a2d0       ??_C@_0BH@NODCIIOI@0123456789aAbBcCdDeEfF?$AA@ 0047d2d0     WebApi:LumiGrowJson.obj
 0002:0000a2ec       ??_C@_0BP@COJPMCBO@JsonValueArray?3?3JsonValueArray?$AA@ 0047d2ec     WebApi:JsonValueArray.obj
 0002:0000a30c       ??_C@_0L@KGHGHGJL@JVA?5insert?$AA@ 0047d30c     WebApi:JsonValueArray.obj
 0002:0000a318       ??_C@_01GBGANLPD@0?$AA@    0047d318     WebApi:JsonValueArray.obj
 0002:0000a31c       ??_C@_04LOAJBDKD@true?$AA@ 0047d31c     WebApi:JsonValueArray.obj
 0002:0000a324       ??_C@_05LAPONLG@false?$AA@ 0047d324     WebApi:JsonValueArray.obj
 0002:0000a32c       ??_C@_0O@EHFNLBLA@insert?5params?$AA@ 0047d32c     WebApi:JsonValueArray.obj
 0002:0000a33c       ??_C@_08PKHPJFPB@JVA?5link?$AA@ 0047d33c     WebApi:JsonValueArray.obj
 0002:0000a350       ??_7JsonValueArray@@6B@    0047d350     WebApi:JsonValueArray.obj
 0002:0000a3b8       ??_C@_07PFKAHOIJ@SUCCESS?$AA@ 0047d3b8     WebApi:JsonObjectError.obj
 0002:0000a3c0       ??_C@_09IILMPLJM@NOT_FOUND?$AA@ 0047d3c0     WebApi:JsonObjectError.obj
 0002:0000a3cc       ??_C@_0BC@DHKINFMK@VALIDATION_FAILED?$AA@ 0047d3cc     WebApi:JsonObjectError.obj
 0002:0000a3e4       ??_7JsonValueObjectError@@6B@ 0047d3e4     WebApi:JsonObjectError.obj
 0002:0000a41c       ??_C@_0O@EFECAHOH@INVALID_VALUE?$AA@ 0047d41c     WebApi:JsonObjectCause.obj
 0002:0000a42c       ??_C@_07CPFPGGPN@MISSING?$AA@ 0047d42c     WebApi:JsonObjectCause.obj
 0002:0000a434       ??_C@_09JHHLKDOI@DUPLICATE?$AA@ 0047d434     WebApi:JsonObjectCause.obj
 0002:0000a440       ??_C@_0BE@LPDLHKGO@USER_NOT_AUTHORIZED?$AA@ 0047d440     WebApi:JsonObjectCause.obj
 0002:0000a458       ??_7JsonValueObjectCause@@6B@ 0047d458     WebApi:JsonObjectCause.obj
 0002:0000a490       ??_C@_0BN@IPNIEEB@JsonValueBool?3?3JsonValueBool?$AA@ 0047d490     WebApi:JsonBool.obj
 0002:0000a4b4       ??_7JsonValueBool@@6B@     0047d4b4     WebApi:JsonBool.obj
 0002:0000a4ec       ??_C@_0CD@NAOEPODN@JsonResponseItem?3?3JsonResponseIt@ 0047d4ec     WebApi:JsonResponseItem.obj
 0002:0000a510       ??_C@_0L@BEEFHEPJ@JRI?5insert?$AA@ 0047d510     WebApi:JsonResponseItem.obj
 0002:0000a51c       ??_C@_0BN@OOHOPPGO@JsonResponseItem?3?3importJson?$AA@ 0047d51c     WebApi:JsonResponseItem.obj
 0002:0000a53c       ??_C@_0BC@MFBBBBCL@importJson?5params?$AA@ 0047d53c     WebApi:JsonResponseItem.obj
 0002:0000a550       ??_C@_0P@KPAEOIDM@JRI?5importJson?$AA@ 0047d550     WebApi:JsonResponseItem.obj
 0002:0000a560       ??_C@_0CF@HHEEPNBA@?$CFs?$CI?$CJ?5JSON?5field?5not?5found?0?5field@ 0047d560     WebApi:JsonResponseItem.obj
 0002:0000a588       ??_C@_0CM@MLHFPHNJ@?$CFs?$CI?$CJ?5Import?5failed?5for?5field?3?$CFs?5@ 0047d588     WebApi:JsonResponseItem.obj
 0002:0000a5b4       ??_C@_0CA@IFMFPOFP@?$CFs?$CI?$CJ?5Missing?5close?5brace?5in?3?$CFs?6?$AA@ 0047d5b4     WebApi:JsonResponseItem.obj
 0002:0000a5d8       ??_7JsonResponseItem@@6B@  0047d5d8     WebApi:JsonResponseItem.obj
 0002:0000a638       ??_C@_0CA@JPICPGGE@Controller?5communication?5failed?$AA@ 0047d638     WebApi:ParseError.obj
 0002:0000a658       ??_C@_0BJ@DBFNLPA@Controller?5not?5connected?$AA@ 0047d658     WebApi:ParseError.obj
 0002:0000a674       ??_C@_0CD@IJGCNGKA@Controller?5command?5failed?5?9?5upda@ 0047d674     WebApi:ParseError.obj
 0002:0000a698       ??_C@_0BI@HPMGGLBC@Database?5command?5failed?$AA@ 0047d698     WebApi:ParseError.obj
 0002:0000a6b0       ??_C@_0O@NIPGCINC@Unknown?5error?$AA@ 0047d6b0     WebApi:ParseError.obj
 0002:0000a6c0       ??_C@_0BB@BHKAEJGP@Resource?5problem?$AA@ 0047d6c0     WebApi:ParseError.obj
 0002:0000a6d4       ??_C@_07JDMHCBCA@?$CFs?$DN?$CC?$CFs?$CC?$AA@ 0047d6d4     WebApi:Html.obj
 0002:0000a6dc       ??_C@_0M@OMDFBFKO@Maintenance?$AA@ 0047d6dc     WebApi:AlertRecord.obj
 0002:0000a6e8       ??_C@_06PGDKHFME@Status?$AA@ 0047d6e8     WebApi:AlertRecord.obj
 0002:0000a6f0       ??_C@_07DAJMMGC@Cleared?$AA@ 0047d6f0     WebApi:AlertRecord.obj
 0002:0000a6f8       ??_C@_07DIMJBLAB@Failure?$AA@ 0047d6f8     WebApi:AlertRecord.obj
 0002:0000a700       ??_C@_0M@ENKCBFEP@No?5Response?$AA@ 0047d700     WebApi:AlertRecord.obj
 0002:0000a70c       ??_C@_07JCMGEKCK@deleted?$AA@ 0047d70c     WebApi:AlertRecord.obj
 0002:0000a714       ??_C@_0L@GLBKNGJA@alerts?4dat?$AA@ 0047d714     WebApi:AlertRecord.obj
 0002:0000a720       ??_C@_0M@LDODODNP@AlertRecord?$AA@ 0047d720     WebApi:AlertRecord.obj
 0002:0000a72c       ??_C@_0BJ@BJIDCMLO@AlertRecord?3?3AlertRecord?$AA@ 0047d72c     WebApi:AlertRecord.obj
 0002:0000a748       ??_C@_0CA@FIOKKIIH@AlertRecord?3?3AlertRecord?5nRecNo?$AA@ 0047d748     WebApi:AlertRecord.obj
 0002:0000a768       ??_C@_0BH@EHIDIIOF@AlertRecord?3?3openTable?$AA@ 0047d768     WebApi:AlertRecord.obj
 0002:0000a780       ??_C@_0BL@EONKAHNA@?$CFs?5?3?5Internal?5open?5failed?6?$AA@ 0047d780     WebApi:AlertRecord.obj
 0002:0000a79c       ??_C@_04GEDFOCDF@?4old?$AA@ 0047d79c     WebApi:AlertRecord.obj
 0002:0000a7a4       ??_C@_0BN@HNHIGIHL@ERROR?3?5Unable?5to?5upgrade?5?$CFs?6?$AA@ 0047d7a4     WebApi:AlertRecord.obj
 0002:0000a7c4       ??_C@_0BC@FDCCOCME@AlertRecord?3?3save?$AA@ 0047d7c4     WebApi:AlertRecord.obj
 0002:0000a7d8       ??_C@_0CJ@OMKILMEH@?$CK?$CK?$CK?5?$CFs?5?3?5ERROR?5INVALID?5RECORD?5ID@ 0047d7d8     WebApi:AlertRecord.obj
 0002:0000a808       ??_7AlertRecord@@6B@       0047d808     WebApi:AlertRecord.obj
 0002:0000a84c       ??_C@_06DIBEOEIP@?2?2?4?2?$CFs?$AA@ 0047d84c     WebApi:SerialController.obj
 0002:0000a858       ??_C@_1EG@OCIGINAN@?$AAS?$AAe?$AAr?$AAi?$AAa?$AAl?$AAC?$AAo?$AAn?$AAt?$AAr?$AAo?$AAl?$AAl?$AAe?$AAr?$AA?3?$AA?3?$AAS?$AAe?$AAr?$AAi?$AAa?$AAl?$AAC?$AAo?$AAn?$AAt?$AAr?$AAo?$AAl?$AAl@ 0047d858     WebApi:SerialController.obj
 0002:0000a8a0       ??_C@_1DE@IDBMNGGJ@?$AA?5?$AA?3?$AA?5?$AAC?$AAr?$AAe?$AAa?$AAt?$AAe?$AAF?$AAi?$AAl?$AAe?$AA?5?$AAf?$AAa?$AAi?$AAl?$AAe?$AAd?$AA?5?$AAf?$AAo?$AAr?$AA?3?$AA?$AA@ 0047d8a0     WebApi:SerialController.obj
 0002:0000a8d4       ??_C@_1BM@KMPFHHCC@?$AA?0?$AA?5?$AAl?$AAa?$AAs?$AAt?$AA?5?$AAe?$AAr?$AAr?$AAo?$AAr?$AA?3?$AA?$AA@ 0047d8d4     WebApi:SerialController.obj
 0002:0000a8f0       ??_C@_13LBAGMAIH@?$AA?6?$AA?$AA@ 0047d8f0     WebApi:SerialController.obj
 0002:0000a8f4       ??_C@_04ODFIAEGP@NOT?5?$AA@ 0047d8f4     WebApi:SerialController.obj
 0002:0000a8fc       ??_C@_0BH@LDFIAKKF@SerialController?3?3recv?$AA@ 0047d8fc     WebApi:SerialController.obj
 0002:0000a914       ??_C@_0CF@EELIALML@?$CK?$CK?$CK?$CK?$CK?5?$CFs?5?3?5READ?5TIMEOUT?0?5SOF?5?$CFsS@ 0047d914     WebApi:SerialController.obj
 0002:0000a93c       ??_C@_0CD@CJOBDCEP@?9?9?9?5SerialController?3?3recv?5?3?5jun@ 0047d93c     WebApi:SerialController.obj
 0002:0000a960       ??_C@_0CI@HBEIFEON@?$CK?$CK?$CK?$CK?$CK?5?$CFs?5?3?5NO?5RESPONSE?5FROM?5CONT@ 0047d960     WebApi:SerialController.obj
 0002:0000a988       ??_C@_0CE@KPIJBEIM@?9?9?9?5SerialController?3?3flush?5?3?5ju@ 0047d988     WebApi:SerialController.obj
 0002:0000a9ac       ??_C@_0BL@OHBJICAK@SerialController?3?3cancelIo?$AA@ 0047d9ac     WebApi:SerialController.obj
 0002:0000a9c8       ??_C@_0BH@GIHMBDIG@?$CG?$CG?$CG?5?$CFs?5?3?5IO?5cancelled?6?$AA@ 0047d9c8     WebApi:SerialController.obj
 0002:0000a9e4       ??_7SerialController@@6B@  0047d9e4     WebApi:SerialController.obj
 0002:0000a9fc       ??_C@_0BH@EABPAHBK@IpController?3?3cancelIo?$AA@ 0047d9fc     WebApi:IpController.obj
 0002:0000aa14       ??_C@_0BH@CHKNPCDP@?$EA?$EA?$EA?5?$CFs?5?3?5IO?5cancelled?6?$AA@ 0047da14     WebApi:IpController.obj
 0002:0000aa30       ??_7IpController@@6B@      0047da30     WebApi:IpController.obj
 0002:0000aa48       ??_C@_0BL@FAJGHEBJ@JsonResponse?3?3JsonResponse?$AA@ 0047da48     WebApi:JsonResponse.obj
 0002:0000aa64       ??_C@_0BC@HJMFGLGM@JsonResponse?5type?$AA@ 0047da64     WebApi:JsonResponse.obj
 0002:0000aa78       ??_C@_0BA@BMGBMAIC@JsonRespsone?5op?$AA@ 0047da78     WebApi:JsonResponse.obj
 0002:0000aa88       ??_C@_0BB@OIIPPLEK@JsonResponse?5key?$AA@ 0047da88     WebApi:JsonResponse.obj
 0002:0000aa9c       ??_C@_0BC@MBOLALBB@JsonResponse?5item?$AA@ 0047da9c     WebApi:JsonResponse.obj
 0002:0000aab4       ??_7JsonResponse@@6B@      0047dab4     WebApi:JsonResponse.obj
 0002:0000ab14       ??_C@_0BJ@FFLEJHHO@JsonRequest?3?3JsonRequest?$AA@ 0047db14     WebApi:JsonRequest.obj
 0002:0000ab30       ??_C@_0BB@HFHBEICD@JsonRequest?5type?$AA@ 0047db30     WebApi:JsonRequest.obj
 0002:0000ab44       ??_C@_0P@HLKODPNE@JsonRequest?5op?$AA@ 0047db44     WebApi:JsonRequest.obj
 0002:0000ab54       ??_C@_0BA@OKLHIMIB@JsonRequest?5key?$AA@ 0047db54     WebApi:JsonRequest.obj
 0002:0000ab64       ??_C@_0BB@MNFPCIFO@JsonRequest?5item?$AA@ 0047db64     WebApi:JsonRequest.obj
 0002:0000ab78       ??_C@_0P@FBINJEDD@JsonRequest?5id?$AA@ 0047db78     WebApi:JsonRequest.obj
 0002:0000ab88       ??_C@_0BC@CDLJPDBK@JsonRequest?5count?$AA@ 0047db88     WebApi:JsonRequest.obj
 0002:0000ab9c       ??_C@_0BD@KLPNFKHP@JsonRequest?5fields?$AA@ 0047db9c     WebApi:JsonRequest.obj
 0002:0000abb0       ??_C@_0BD@GMNLNJCG@JsonRequest?5params?$AA@ 0047dbb0     WebApi:JsonRequest.obj
 0002:0000abc4       ??_C@_0N@LLJDAKBB@createAttach?$AA@ 0047dbc4     WebApi:JsonRequest.obj
 0002:0000abd8       ??_7JsonRequest@@6B@       0047dbd8     WebApi:JsonRequest.obj
 0002:0000ac38       ??_C@_0BL@EOKMPPMD@JsonImporter?3?3JsonImporter?$AA@ 0047dc38     WebApi:JsonImporter.obj
 0002:0000ac54       ??_C@_0BJ@MLNNIAEP@JsonImporter?5controllers?$AA@ 0047dc54     WebApi:JsonImporter.obj
 0002:0000ac70       ??_C@_0BG@CCHKPLGN@JsonImporter?5fixtures?$AA@ 0047dc70     WebApi:JsonImporter.obj
 0002:0000ac88       ??_C@_0BD@LDMAEDDD@JsonImporter?5zones?$AA@ 0047dc88     WebApi:JsonImporter.obj
 0002:0000ac9c       ??_C@_0BG@FNFEKEH@JsonImporter?5programs?$AA@ 0047dc9c     WebApi:JsonImporter.obj
 0002:0000acb4       ??_C@_0BF@GIJJOLB@JsonImporter?5sensors?$AA@ 0047dcb4     WebApi:JsonImporter.obj
 0002:0000accc       ??_C@_0M@EFLAHFNC@importItems?$AA@ 0047dccc     WebApi:JsonImporter.obj
 0002:0000acd8       ??_C@_0BH@JEOHHPM@doImportItems?5NotFound?$AA@ 0047dcd8     WebApi:JsonImporter.obj
 0002:0000acf0       ??_C@_0BE@PCLHMDMI@doImportItems?5error?$AA@ 0047dcf0     WebApi:JsonImporter.obj
 0002:0000ad08       ??_7JsonImporter@@6B@      0047dd08     WebApi:JsonImporter.obj
 0002:0000ad68       ??_C@_0CF@KPCPLOPE@JsonRequestParams?3?3JsonRequestPa@ 0047dd68     WebApi:JsonRequestParams.obj
 0002:0000ad90       ??_C@_0L@BECGIAND@JRP?5insert?$AA@ 0047dd90     WebApi:JsonRequestParams.obj
 0002:0000ad9c       ??_C@_0BO@MGKFALH@JsonRequestParams?3?3importJson?$AA@ 0047dd9c     WebApi:JsonRequestParams.obj
 0002:0000adbc       ??_C@_0P@JMJGEEAO@JRP?5importJson?$AA@ 0047ddbc     WebApi:JsonRequestParams.obj
 0002:0000adcc       ??_C@_0BA@COKJHNP@importJson?5enxt?$AA@ 0047ddcc     WebApi:JsonRequestParams.obj
 0002:0000addc       ??_C@_0BC@KJKADLNK@importJson?5valObj?$AA@ 0047dddc     WebApi:JsonRequestParams.obj
 0002:0000adf4       ??_7JsonRequestParams@@6B@ 0047ddf4     WebApi:JsonRequestParams.obj
 0002:0000ae54       ??_C@_0CF@KKAACKDI@JsonRequestFields?3?3JsonRequestFi@ 0047de54     WebApi:JsonRequestFields.obj
 0002:0000ae80       ??_7JsonRequestFields@@6B@ 0047de80     WebApi:JsonRequestFields.obj
 0002:0000aee4       ??_C@_09HKKFJEIG@View?5Mode?$AA@ 0047dee4     WebApi:ProgramRecord.obj
 0002:0000aef0       ??_C@_0BK@OLOCIPFP@Hidden?5view?5mode?5program?4?$AA@ 0047def0     WebApi:ProgramRecord.obj
 0002:0000af0c       ??_C@_06FDJDEICK@Strobe?$AA@ 0047df0c     WebApi:ProgramRecord.obj
 0002:0000af14       ??_C@_0BH@DOAONFMA@Hidden?5strobe?5program?4?$AA@ 0047df14     WebApi:ProgramRecord.obj
 0002:0000af2c       ??_C@_0P@EAGMAOCC@Cultivate?5Demo?$AA@ 0047df2c     WebApi:ProgramRecord.obj
 0002:0000af40       ??_C@_0EC@FAOOBCPP@Demonstration?5of?5program?5timing?0@ 0047df40     WebApi:ProgramRecord.obj
 0002:0000af84       ??_C@_0BG@FFELJODH@Gerbera?5?9?5Propogation?$AA@ 0047df84     WebApi:ProgramRecord.obj
 0002:0000afa0       ??_C@_0FL@MIIOICLA@Gerbera?5in?5Greenhouse?4?5Demo?5rati@ 0047dfa0     WebApi:ProgramRecord.obj
 0002:0000affc       ??_C@_0BH@GJKCOJFL@Gerbera?5?9?5Flower?5Onset?$AA@ 0047dffc     WebApi:ProgramRecord.obj
 0002:0000b018       ??_C@_0FM@NOKKGPKF@Gerbera?5in?5Greenhouse?4?5Demo?5rati@ 0047e018     WebApi:ProgramRecord.obj
 0002:0000b074       ??_C@_0BC@BEONONOA@Basil?5?9?5Leaf?5Mass?$AA@ 0047e074     WebApi:ProgramRecord.obj
 0002:0000b088       ??_C@_0FD@FGOKGGIN@Basil?5in?5Growth?5Room?4?5Full?5power@ 0047e088     WebApi:ProgramRecord.obj
 0002:0000b0dc       ??_C@_0BI@ODKLBMIE@Basil?5?9?5Flavor?5Steering?$AA@ 0047e0dc     WebApi:ProgramRecord.obj
 0002:0000b0f8       ??_C@_0FF@BJBEMOCA@Basil?5in?5Growth?5Room?4?5Red?3Blue?51@ 0047e0f8     WebApi:ProgramRecord.obj
 0002:0000b150       ??_C@_0BJ@NCAIJLOF@Tomatoes?5?9?5Establishment?$AA@ 0047e150     WebApi:ProgramRecord.obj
 0002:0000b170       ??_C@_0FF@CFKJNCKO@Seeding?5state?4?5Red?3Blue?55?31?4?5Sup@ 0047e170     WebApi:ProgramRecord.obj
 0002:0000b1c8       ??_C@_0BG@LOJJDHJA@Tomatoes?5?9?5Vegetative?$AA@ 0047e1c8     WebApi:ProgramRecord.obj
 0002:0000b1e0       ??_C@_0FK@MIECHEKD@Vegetative?5state?4?5Red?3Blue?519?31?4@ 0047e1e0     WebApi:ProgramRecord.obj
 0002:0000b23c       ??_C@_0BN@BOOLABH@Tomatoes?5?9?5Fruit?5Development?$AA@ 0047e23c     WebApi:ProgramRecord.obj
 0002:0000b260       ??_C@_0FB@KLCALPOE@Fruiting?4?5Red?3Blue?55?31?4?5Suppleme@ 0047e260     WebApi:ProgramRecord.obj
 0002:0000b2b4       ??_C@_0BG@DOKAIDOC@Photoperiod?5Extension?$AA@ 0047e2b4     WebApi:ProgramRecord.obj
 0002:0000b2cc       ??_C@_0CI@GCJFEOGK@Demonstration?5of?5photoperiod?5ext@ 0047e2cc     WebApi:ProgramRecord.obj
 0002:0000b2f4       ??_C@_08PCMCJENN@modified?$AA@ 0047e2f4     WebApi:ProgramRecord.obj
 0002:0000b300       ??_C@_0N@BPCJFCIN@programs?4dat?$AA@ 0047e300     WebApi:ProgramRecord.obj
 0002:0000b310       ??_C@_0O@FMEBPKC@ProgramRecord?$AA@ 0047e310     WebApi:ProgramRecord.obj
 0002:0000b320       ??_C@_0BN@JOJMOEIG@ProgramRecord?3?3ProgramRecord?$AA@ 0047e320     WebApi:ProgramRecord.obj
 0002:0000b340       ??_C@_0CE@KMODFBLK@ProgramRecord?3?3ProgramRecord?5nRe@ 0047e340     WebApi:ProgramRecord.obj
 0002:0000b364       ??_C@_07MHLKLKDM@program?$AA@ 0047e364     WebApi:ProgramRecord.obj
 0002:0000b36c       ??_C@_0BJ@IOEMMLEM@ProgramRecord?3?3openTable?$AA@ 0047e36c     WebApi:ProgramRecord.obj
 0002:0000b388       ??_C@_0CF@FGLACPAO@?$CFs?5?3?5Unable?5to?5create?5database?5f@ 0047e388     WebApi:ProgramRecord.obj
 0002:0000b3b0       ??_C@_0BE@JFGMFEKC@ProgramRecord?3?3save?$AA@ 0047e3b0     WebApi:ProgramRecord.obj
 0002:0000b3c4       ??_C@_0CO@BPOGIPG@ProgramRecord?3?3syncWithKemo?5down@ 0047e3c4     WebApi:ProgramRecord.obj
 0002:0000b3f4       ??_C@_08JCPMPHB@handle?$DN0?$AA@ 0047e3f4     WebApi:ProgramRecord.obj
 0002:0000b400       ??_C@_0DC@OAMDGPDL@ProgramRecord?3?3syncWithKemo?5down@ 0047e400     WebApi:ProgramRecord.obj
 0002:0000b434       ??_C@_0L@CJBKGPLM@modified?$DN1?$AA@ 0047e434     WebApi:ProgramRecord.obj
 0002:0000b440       ??_C@_0DH@HAMKPANN@ProgramRecord?3?3syncWithKemo?5down@ 0047e440     WebApi:ProgramRecord.obj
 0002:0000b478       ??_C@_0BE@FKPNIMCE@syncWithKemo?$CI?$CJ?5sync?$AA@ 0047e478     WebApi:ProgramRecord.obj
 0002:0000b48c       ??_C@_0BM@OOLLCLIN@ProgramRecord?3?3syncWithKemo?$AA@ 0047e48c     WebApi:ProgramRecord.obj
 0002:0000b4a8       ??_C@_0DK@PJIKAMBN@?$CB?5?$CFs?5?9?5ERROR?5INVALID?5RESPONSE?0?5G@ 0047e4a8     WebApi:ProgramRecord.obj
 0002:0000b4e4       ??_C@_0BG@IAIPCOHF@syncWithKemo?$CI?$CJ?5params?$AA@ 0047e4e4     WebApi:ProgramRecord.obj
 0002:0000b4fc       ??_C@_0BG@EHKJKNCM@syncWithKemo?$CI?$CJ?5fields?$AA@ 0047e4fc     WebApi:ProgramRecord.obj
 0002:0000b514       ??_C@_0CH@BIPAHDHC@?$CB?5?$CFs?5?3?5adding?5program?$FL?$CFd?$FN?5to?5Kem@ 0047e514     WebApi:ProgramRecord.obj
 0002:0000b53c       ??_C@_0DA@MDCNNHPN@?$CB?5?$CFs?5?3?5Invalid?5Program?5?9?5no?5step@ 0047e53c     WebApi:ProgramRecord.obj
 0002:0000b56c       ??_C@_0CJ@EPDABNEI@?$CB?5?$CFs?5?3?5Program?5error?5from?5Kemosa@ 0047e56c     WebApi:ProgramRecord.obj
 0002:0000b598       ??_C@_0CG@KPGHILHH@ProgramRecord?3?3deleteKemosabePro@ 0047e598     WebApi:ProgramRecord.obj
 0002:0000b5c0       ??_C@_0CK@GCMPPBJK@?$CFs?5?3?5deleting?5all?5Programs?5from?5@ 0047e5c0     WebApi:ProgramRecord.obj
 0002:0000b60c       ??_7ProgramRecord@@6B@     0047e60c     WebApi:ProgramRecord.obj
 0002:0000b64c       ??_C@_0BA@KJCKFIOI@current?4far_red?$AA@ 0047e64c     WebApi:ZoneRecord.obj
 0002:0000b65c       ??_C@_09CHGOIONN@zones?4dat?$AA@ 0047e65c     WebApi:ZoneRecord.obj
 0002:0000b668       ??_C@_04LDDJGOBB@zone?$AA@ 0047e668     WebApi:ZoneRecord.obj
 0002:0000b670       ??_C@_0L@CFGPPOIF@ZoneRecord?$AA@ 0047e670     WebApi:ZoneRecord.obj
 0002:0000b67c       ??_C@_0BH@LJHECJHB@ZoneRecord?3?3ZoneRecord?$AA@ 0047e67c     WebApi:ZoneRecord.obj
 0002:0000b694       ??_C@_0BO@IFANEDBO@ZoneRecord?3?3ZoneRecord?5nRecNo?$AA@ 0047e694     WebApi:ZoneRecord.obj
 0002:0000b6b4       ??_C@_0BG@GGEMEJDA@ZoneRecord?3?3openTable?$AA@ 0047e6b4     WebApi:ZoneRecord.obj
 0002:0000b6cc       ??_C@_0BB@DIFGFHKH@ZoneRecord?3?3save?$AA@ 0047e6cc     WebApi:ZoneRecord.obj
 0002:0000b6e0       ??_C@_0CD@FBMLKINA@ZoneRecord?3?3syncWithKemo?5int?0?5bo@ 0047e6e0     WebApi:ZoneRecord.obj
 0002:0000b704       ??_C@_0BN@MOFAEFIO@syncWithKemo?$CIint?0?5bool?$CJ?5sync?$AA@ 0047e704     WebApi:ZoneRecord.obj
 0002:0000b724       ??_C@_0BJ@LKOFEAJI@ZoneRecord?3?3syncWithKemo?$AA@ 0047e724     WebApi:ZoneRecord.obj
 0002:0000b740       ??_C@_0ED@NBPODKJ@?$CB?5?$CFs?5?9?5ERROR?5KEMOSABE?5RETURNED?5I@ 0047e740     WebApi:ZoneRecord.obj
 0002:0000b784       ??_C@_0DE@LCFJCJK@?$CB?5?$CFs?5?9?5ERROR?5KEMOSABE?5RETURNED?5U@ 0047e784     WebApi:ZoneRecord.obj
 0002:0000b7b8       ??_C@_0DE@FHOMGMEB@?$CB?5?$CFs?5?9?5ERROR?5KEMOSABE?5RETURNED?5I@ 0047e7b8     WebApi:ZoneRecord.obj
 0002:0000b7ec       ??_C@_0DF@KLDBBAOA@ZoneRecord?3?3syncWithKemo?5ZoneRec@ 0047e7ec     WebApi:ZoneRecord.obj
 0002:0000b824       ??_C@_0CO@IDDBELBG@ZoneRecord?3?3syncWithKemo?5ZoneRec@ 0047e824     WebApi:ZoneRecord.obj
 0002:0000b854       ??_C@_0BC@OLBLDNKB@ZoneRecord?5params?$AA@ 0047e854     WebApi:ZoneRecord.obj
 0002:0000b868       ??_C@_0CE@JKAEAGMD@?$CB?5?$CFs?5?3?5adding?5zone?$FL?$CFd?$FN?5to?5Kemosa@ 0047e868     WebApi:ZoneRecord.obj
 0002:0000b88c       ??_C@_0CM@JNFEKOJ@?$CB?5?$CFs?5?9?5ERROR?5ZONE?5ERROR?5FROM?5KEM@ 0047e88c     WebApi:ZoneRecord.obj
 0002:0000b8b8       ??_C@_0CL@NFNHCNGN@?$CB?5?$CFs?5?9?5ERROR?5KEMOSABE?5COMMUNICAT@ 0047e8b8     WebApi:ZoneRecord.obj
 0002:0000b8e4       ??_C@_0BG@DFGOFDMC@syncOverrideId?5fields?$AA@ 0047e8e4     WebApi:ZoneRecord.obj
 0002:0000b8fc       ??_C@_0BG@PCEINAJL@syncOverrideId?5params?$AA@ 0047e8fc     WebApi:ZoneRecord.obj
 0002:0000b914       ??_C@_0BL@NFKMFFO@ZoneRecord?3?3syncOverrideId?$AA@ 0047e914     WebApi:ZoneRecord.obj
 0002:0000b930       ??_C@_0CG@CJMBGJIJ@?$CB?5?$CFs?5?3?5Zone?5error?5from?5Kemosabe?5@ 0047e930     WebApi:ZoneRecord.obj
 0002:0000b958       ??_C@_0CF@FBACGLJN@?$CB?5?$CFs?5?3?5Kemosabe?5communication?5er@ 0047e958     WebApi:ZoneRecord.obj
 0002:0000b980       ??_C@_0BH@PKEDDNCI@syncScheduledId?5fields?$AA@ 0047e980     WebApi:ZoneRecord.obj
 0002:0000b998       ??_C@_0BH@DNGFLOHB@syncScheduledId?5params?$AA@ 0047e998     WebApi:ZoneRecord.obj
 0002:0000b9b0       ??_C@_0BM@PCJHAKEC@ZoneRecord?3?3syncScheduledId?$AA@ 0047e9b0     WebApi:ZoneRecord.obj
 0002:0000b9cc       ??_C@_0BF@JKCKHKLJ@syncSleepMode?5fields?$AA@ 0047e9cc     WebApi:ZoneRecord.obj
 0002:0000b9e4       ??_C@_0BF@FNAMPJOA@syncSleepMode?5params?$AA@ 0047e9e4     WebApi:ZoneRecord.obj
 0002:0000b9fc       ??_C@_0BK@ENAOGAFF@ZoneRecord?3?3syncSleepMode?$AA@ 0047e9fc     WebApi:ZoneRecord.obj
 0002:0000ba18       ??_C@_0BC@KEOIJDFK@syncStatus?5fields?$AA@ 0047ea18     WebApi:ZoneRecord.obj
 0002:0000ba2c       ??_C@_0BC@GDMOBAAD@syncStatus?5params?$AA@ 0047ea2c     WebApi:ZoneRecord.obj
 0002:0000ba40       ??_C@_0BH@DLJDKLGM@ZoneRecord?3?3syncStatus?$AA@ 0047ea40     WebApi:ZoneRecord.obj
 0002:0000ba60       ??_7ZoneRecord@@6B@        0047ea60     WebApi:ZoneRecord.obj
 0002:0000baa0       ??_C@_07BMIEDOEC@Offline?$AA@ 0047eaa0     WebApi:FixtureRecord.obj
 0002:0000baa8       ??_C@_03NCKPMADM@Fan?$AA@  0047eaa8     WebApi:FixtureRecord.obj
 0002:0000baac       ??_C@_07GBNCFIAM@Thermal?$AA@ 0047eaac     WebApi:FixtureRecord.obj
 0002:0000bab4       ??_C@_0L@GFPGJFBD@LED?5String?$AA@ 0047eab4     WebApi:FixtureRecord.obj
 0002:0000bac0       ??_C@_0L@EPLGCJFC@Sleep?5Mode?$AA@ 0047eac0     WebApi:FixtureRecord.obj
 0002:0000bacc       ??_C@_0N@BONOLAJE@Upgrade?5Mode?$AA@ 0047eacc     WebApi:FixtureRecord.obj
 0002:0000badc       ??_C@_0P@IGIDIGLP@Hardware?5Fault?$AA@ 0047eadc     WebApi:FixtureRecord.obj
 0002:0000baec       ??_C@_0BD@LEDCIAAP@Fixture?5Unassigned?$AA@ 0047eaec     WebApi:FixtureRecord.obj
 0002:0000bb00       ??_C@_0BC@FOMAALDA@Acquiring?5Fixture?$AA@ 0047eb00     WebApi:FixtureRecord.obj
 0002:0000bb14       ??_C@_0BE@EGIBDNED@View?5Mode?5Switch?5On?$AA@ 0047eb14     WebApi:FixtureRecord.obj
 0002:0000bb28       ??_C@_0M@CIDINDCE@bias?4output?$AA@ 0047eb28     WebApi:FixtureRecord.obj
 0002:0000bb34       ??_C@_08PEPKJPMH@bias?4red?$AA@ 0047eb34     WebApi:FixtureRecord.obj
 0002:0000bb40       ??_C@_0L@PFEOOJBH@bias?4white?$AA@ 0047eb40     WebApi:FixtureRecord.obj
 0002:0000bb4c       ??_C@_09BNHCCDCB@bias?4blue?$AA@ 0047eb4c     WebApi:FixtureRecord.obj
 0002:0000bb58       ??_C@_0L@GIAOMLJL@bias?4green?$AA@ 0047eb58     WebApi:FixtureRecord.obj
 0002:0000bb64       ??_C@_0N@KEJPHLGB@bias?4far_red?$AA@ 0047eb64     WebApi:FixtureRecord.obj
 0002:0000bb74       ??_C@_08LBJGFOCG@runstate?$AA@ 0047eb74     WebApi:FixtureRecord.obj
 0002:0000bb80       ??_C@_09MKIIJKOG@runstatus?$AA@ 0047eb80     WebApi:FixtureRecord.obj
 0002:0000bb8c       ??_C@_0N@PBHJCOGI@fixture_hash?$AA@ 0047eb8c     WebApi:FixtureRecord.obj
 0002:0000bb9c       ??_C@_0N@JIKPJMLN@fixtures?4dat?$AA@ 0047eb9c     WebApi:FixtureRecord.obj
 0002:0000bbac       ??_C@_07GKEKDKEN@fixture?$AA@ 0047ebac     WebApi:FixtureRecord.obj
 0002:0000bbb4       ??_C@_0O@CDJKKJMA@FixtureRecord?$AA@ 0047ebb4     WebApi:FixtureRecord.obj
 0002:0000bbc4       ??_C@_0BN@IGHNADKP@FixtureRecord?3?3FixtureRecord?$AA@ 0047ebc4     WebApi:FixtureRecord.obj
 0002:0000bbe4       ??_C@_0CE@HNJOJHNA@FixtureRecord?3?3FixtureRecord?5nRe@ 0047ebe4     WebApi:FixtureRecord.obj
 0002:0000bc08       ??_C@_0BO@BDHFIKFK@FixtureRecord?3?3?$HOFixtureRecord?$AA@ 0047ec08     WebApi:FixtureRecord.obj
 0002:0000bc28       ??_C@_0BJ@IAJFOOPO@FixtureRecord?3?3openTable?$AA@ 0047ec28     WebApi:FixtureRecord.obj
 0002:0000bc44       ??_C@_0BE@FIMFEFIE@FixtureRecord?3?3save?$AA@ 0047ec44     WebApi:FixtureRecord.obj
 0002:0000bc58       ??_C@_0BM@DPJNLLGK@FixtureRecord?3?3syncWithKemo?$AA@ 0047ec58     WebApi:FixtureRecord.obj
 0002:0000bc78       ??_C@_0FM@FCMMFFNH@?$CB?5?$CFs?$CIint?$CG?5nextHandle?0?5bool?$CG?5noMo@ 0047ec78     WebApi:FixtureRecord.obj
 0002:0000bcd8       ??_C@_0EP@MLFPJBOI@?$CB?5?$CFs?$CIint?$CG?5nextHandle?0?5bool?$CG?5noMo@ 0047ecd8     WebApi:FixtureRecord.obj
 0002:0000bd28       ??_C@_0BE@BLBIBIPE@syncWithKemo?5params?$AA@ 0047ed28     WebApi:FixtureRecord.obj
 0002:0000bd40       ??_C@_0EP@BCMEEAOJ@?$CB?5?$CFs?$CIint?$CG?5nextHandle?0?5bool?$CG?5noMo@ 0047ed40     WebApi:FixtureRecord.obj
 0002:0000bd90       ??_C@_0FL@OCOGBKJO@?$CB?5?$CFs?$CIint?$CG?5nextHandle?0?5bool?$CG?5noMo@ 0047ed90     WebApi:FixtureRecord.obj
 0002:0000bdec       ??_C@_0DF@GNNDANFA@serial_num?$DN?$CC?$CFs?$CC?5name?$DN?$CC?$CK?$CK?$CK?5NEW?5FI@ 0047edec     WebApi:FixtureRecord.obj
 0002:0000be24       ??_C@_0BP@DGNPJEKP@syncWithKemo?$CIint?0?5bool?$CJ?5params?$AA@ 0047ee24     WebApi:FixtureRecord.obj
 0002:0000be48       ??_C@_0HH@LEHDLCBM@?$CB?5?$CFs?$CIint?$CG?5nextHandle?0?5bool?$CG?5noMo@ 0047ee48     WebApi:FixtureRecord.obj
 0002:0000bec0       ??_C@_0FN@BKEHDGEN@?$CB?5?$CFs?$CIint?$CG?5nextHandle?0?5bool?$CG?5noMo@ 0047eec0     WebApi:FixtureRecord.obj
 0002:0000bf20       ??_C@_0DG@MJKFGGM@FixtureRecord?3?3syncWithKemo?5Down@ 0047ef20     WebApi:FixtureRecord.obj
 0002:0000bf58       ??_C@_0DC@FLLINNCB@FixtureRecord?3?3syncWithKemo?5down@ 0047ef58     WebApi:FixtureRecord.obj
 0002:0000bf8c       ??_C@_0DL@HBEGOEKG@?$CB?5?$CFs?5?9?5ERROR?5KEMOSABE?5RETURNED?5W@ 0047ef8c     WebApi:FixtureRecord.obj
 0002:0000bfc8       ??_C@_0CH@BGCJFGMA@?$CB?5?$CFs?5?3?5adding?5fixture?$FL?$CFd?$FN?5to?5Kem@ 0047efc8     WebApi:FixtureRecord.obj
 0002:0000bff0       ??_C@_0CP@JEAMELHF@?$CB?5?$CFs?5?9?5ERROR?5FIXTURE?5ERROR?5FROM?5@ 0047eff0     WebApi:FixtureRecord.obj
 0002:0000c020       ??_C@_0BO@BLPOIIN@FixtureRecord?3?3syncOverrideId?$AA@ 0047f020     WebApi:FixtureRecord.obj
 0002:0000c040       ??_C@_0BP@ONEBGMAB@FixtureRecord?3?3syncScheduledId?$AA@ 0047f040     WebApi:FixtureRecord.obj
 0002:0000c060       ??_C@_0BK@EHKJJNHM@FixtureRecord?3?3syncStatus?$AA@ 0047f060     WebApi:FixtureRecord.obj
 0002:0000c07c       ??_C@_0BC@POPCLMBH@syncZoneId?5fields?$AA@ 0047f07c     WebApi:FixtureRecord.obj
 0002:0000c090       ??_C@_0BC@DJNEDPEO@syncZoneId?5params?$AA@ 0047f090     WebApi:FixtureRecord.obj
 0002:0000c0a4       ??_C@_0O@BOPJPCMM@syncSn?5fields?$AA@ 0047f0a4     WebApi:FixtureRecord.obj
 0002:0000c0b4       ??_C@_0O@NJNPHBJF@syncSn?5params?$AA@ 0047f0b4     WebApi:FixtureRecord.obj
 0002:0000c0dc       ??_7FixtureRecord@@6B@     0047f0dc     WebApi:FixtureRecord.obj
 0002:0000c11c       ??_C@_0M@NLCGMJFB@dli?4far_red?$AA@ 0047f11c     WebApi:SensorRecord.obj
 0002:0000c128       ??_C@_0M@MHAEHLJD@sensors?4dat?$AA@ 0047f128     WebApi:SensorRecord.obj
 0002:0000c134       ??_C@_0N@IBAJDMMF@SensorRecord?$AA@ 0047f134     WebApi:SensorRecord.obj
 0002:0000c144       ??_C@_0BL@FDKHDFDE@SensorRecord?3?3SensorRecord?$AA@ 0047f144     WebApi:SensorRecord.obj
 0002:0000c160       ??_C@_0CC@JALNHPPF@SensorRecord?3?3SensorRecord?5nRecN@ 0047f160     WebApi:SensorRecord.obj
 0002:0000c184       ??_C@_0BM@LEFKIJMG@SensorRecord?3?3?$HOSensorRecord?$AA@ 0047f184     WebApi:SensorRecord.obj
 0002:0000c1a0       ??_C@_0BI@MNDAJPBL@SensorRecord?3?3openTable?$AA@ 0047f1a0     WebApi:SensorRecord.obj
 0002:0000c1b8       ??_C@_0BD@GEOHLLBD@SensorRecord?3?3save?$AA@ 0047f1b8     WebApi:SensorRecord.obj
 0002:0000c1cc       ??_C@_0BL@CMLGLM@SensorRecord?3?3syncWithKemo?$AA@ 0047f1cc     WebApi:SensorRecord.obj
 0002:0000c1e8       ??_C@_0EO@HKDGLGAD@?$CB?5?$CFs?$CIint?$CG?5nextHandle?0?5bool?$CG?5noMo@ 0047f1e8     WebApi:SensorRecord.obj
 0002:0000c238       ??_C@_0FK@DIIALIE@?$CB?5?$CFs?$CIint?$CG?5nextHandle?0?5bool?$CG?5noMo@ 0047f238     WebApi:SensorRecord.obj
 0002:0000c294       ??_C@_0DE@LBPKJPLM@serial_num?$DN?$CC?$CFs?$CC?5name?$DN?$CC?$CK?$CK?$CK?5NEW?5SE@ 0047f294     WebApi:SensorRecord.obj
 0002:0000c2c8       ??_C@_0HG@BCPGLMMK@?$CB?5?$CFs?$CIint?$CG?5nextHandle?0?5bool?$CG?5noMo@ 0047f2c8     WebApi:SensorRecord.obj
 0002:0000c340       ??_C@_0FM@BBGONJPP@?$CB?5?$CFs?$CIint?$CG?5nextHandle?0?5bool?$CG?5noMo@ 0047f340     WebApi:SensorRecord.obj
 0002:0000c39c       ??_C@_0DE@CDEOKKCK@SensorRecord?3?3syncWithKemo?5Downl@ 0047f39c     WebApi:SensorRecord.obj
 0002:0000c3d0       ??_C@_0DA@CIGCOCDL@SensorRecord?3?3syncWithKemo?5downl@ 0047f3d0     WebApi:SensorRecord.obj
 0002:0000c400       ??_C@_0DK@EKADJPKB@?$CB?5?$CFs?5?9?5ERROR?5KEMOSABE?5RETURNED?5W@ 0047f400     WebApi:SensorRecord.obj
 0002:0000c43c       ??_C@_0CG@FCDBNICL@?$CB?5?$CFs?5?3?5adding?5sensor?$FL?$CFd?$FN?5to?5Kemo@ 0047f43c     WebApi:SensorRecord.obj
 0002:0000c464       ??_C@_0CO@HAEEGCLA@?$CB?5?$CFs?5?9?5ERROR?5SENSOR?5ERROR?5FROM?5K@ 0047f464     WebApi:SensorRecord.obj
 0002:0000c494       ??_C@_0BJ@JHIECOPK@SensorRecord?3?3syncStatus?$AA@ 0047f494     WebApi:SensorRecord.obj
 0002:0000c4c8       ??_7SensorRecord@@6B@      0047f4c8     WebApi:SensorRecord.obj
 0002:0000c508       ??_C@_09GDICNKCD@users?4dat?$AA@ 0047f508     WebApi:UserRecord.obj
 0002:0000c514       ??_C@_0L@HPCOMNMK@UserRecord?$AA@ 0047f514     WebApi:UserRecord.obj
 0002:0000c520       ??_C@_0BH@IGEOLINE@UserRecord?3?3UserRecord?$AA@ 0047f520     WebApi:UserRecord.obj
 0002:0000c538       ??_C@_0BO@FHNDCOB@UserRecord?3?3UserRecord?5nRecNo?$AA@ 0047f538     WebApi:UserRecord.obj
 0002:0000c558       ??_C@_0BG@KNDHGFGI@UserRecord?3?3openTable?$AA@ 0047f558     WebApi:UserRecord.obj
 0002:0000c570       ??_C@_0BB@GCFKLJHG@UserRecord?3?3save?$AA@ 0047f570     WebApi:UserRecord.obj
 0002:0000c588       ??_7UserRecord@@6B@        0047f588     WebApi:UserRecord.obj
 0002:0000c5c8       ??_C@_0BL@FFKAAEJK@JsonPosition?3?3JsonPosition?$AA@ 0047f5c8     WebApi:JsonPosition.obj
 0002:0000c5e4       ??_C@_0P@INACGFNB@JsonPosition?5x?$AA@ 0047f5e4     WebApi:JsonPosition.obj
 0002:0000c5f4       ??_C@_0P@JEBJFEJA@JsonPosition?5y?$AA@ 0047f5f4     WebApi:JsonPosition.obj
 0002:0000c608       ??_7JsonPosition@@6B@      0047f608     WebApi:JsonPosition.obj
 0002:0000c670       ??_C@_08CCHGFDEJ@?90?300?300?$AA@ 0047f670     WebApi:ProgramStepRecord.obj
 0002:0000c67c       ??_C@_08BPBGHKPJ@?90?301?300?$AA@ 0047f67c     WebApi:ProgramStepRecord.obj
 0002:0000c688       ??_C@_08PBHGPBIM@03?300?300?$AA@ 0047f688     WebApi:ProgramStepRecord.obj
 0002:0000c694       ??_C@_08GALGONEE@09?300?300?$AA@ 0047f694     WebApi:ProgramStepRecord.obj
 0002:0000c6a0       ??_C@_08CKKHOFFB@12?300?300?$AA@ 0047f6a0     WebApi:ProgramStepRecord.obj
 0002:0000c6ac       ??_C@_08OMMIOMNG@14?300?300?$AA@ 0047f6ac     WebApi:ProgramStepRecord.obj
 0002:0000c6b8       ??_C@_08KOONOLKL@16?300?300?$AA@ 0047f6b8     WebApi:ProgramStepRecord.obj
 0002:0000c6c4       ??_C@_08HHMNPJAH@19?300?300?$AA@ 0047f6c4     WebApi:ProgramStepRecord.obj
 0002:0000c6d0       ??_C@_08NPIANJAK@23?300?300?$AA@ 0047f6d0     WebApi:ProgramStepRecord.obj
 0002:0000c6dc       ??_C@_08LJJGPPOI@06?300?300?$AA@ 0047f6dc     WebApi:ProgramStepRecord.obj
 0002:0000c6e8       ??_C@_08LLGHPJJJ@18?300?300?$AA@ 0047f6e8     WebApi:ProgramStepRecord.obj
 0002:0000c6f4       ??_C@_08FBAPNOOJ@20?300?300?$AA@ 0047f6f4     WebApi:ProgramStepRecord.obj
 0002:0000c700       ??_C@_08HPPJPGGP@00?300?300?$AA@ 0047f700     WebApi:ProgramStepRecord.obj
 0002:0000c70c       ??_C@_08DHBJPIAL@05?300?300?$AA@ 0047f70c     WebApi:ProgramStepRecord.obj
 0002:0000c718       ??_C@_0BB@IGMMIGEG@programsteps?4dat?$AA@ 0047f718     WebApi:ProgramStepRecord.obj
 0002:0000c72c       ??_C@_0M@ILOCAEOL@ProgramStep?$AA@ 0047f72c     WebApi:ProgramStepRecord.obj
 0002:0000c738       ??_C@_0CF@PBBFLHEO@ProgramStepRecord?3?3ProgramStepRe@ 0047f738     WebApi:ProgramStepRecord.obj
 0002:0000c760       ??_C@_0CM@GLIMPLJ@ProgramStepRecord?3?3ProgramStepRe@ 0047f760     WebApi:ProgramStepRecord.obj
 0002:0000c78c       ??_C@_0BN@EJFANOGP@ProgramStepRecord?3?3openTable?$AA@ 0047f78c     WebApi:ProgramStepRecord.obj
 0002:0000c7ac       ??_C@_0BI@DICMLLOA@ProgramStepRecord?3?3save?$AA@ 0047f7ac     WebApi:ProgramStepRecord.obj
 0002:0000c7c8       ??_7ProgramStepRecord@@6B@ 0047f7c8     WebApi:ProgramStepRecord.obj
 0002:0000c808       ??_C@_04MOFDAKAM@dhcp?$AA@ 0047f808     WebApi:JsonNetworkMode.obj
 0002:0000c810       ??_C@_06LBOEMNGF@manual?$AA@ 0047f810     WebApi:JsonNetworkMode.obj
 0002:0000c81c       ??_7JsonValueNetworkMode@@6B@ 0047f81c     WebApi:JsonNetworkMode.obj
 0002:0000c854       ??_C@_0M@PCENNPGA@?$CFd?4?$CFd?4?$CFd?4?$CFd?$AA@ 0047f854     WebApi:Ethernet.obj
 0002:0000c860       ??_C@_0CK@NKDBEGHL@?6?6?$CK?$CK?$CK?5SETTING?5ETHERNET?5CONFIGURA@ 0047f860     WebApi:Ethernet.obj
 0002:0000c88c       ??_C@_0N@NFDJFHBP@?6Ethernet?3?3?6?$AA@ 0047f88c     WebApi:Ethernet.obj
 0002:0000c89c       ??_C@_0BD@GEAJPEMI@?7m_serviceName?$DN?$CFs?6?$AA@ 0047f89c     WebApi:Ethernet.obj
 0002:0000c8b0       ??_C@_06KJMEDNIB@Static?$AA@ 0047f8b0     WebApi:Ethernet.obj
 0002:0000c8b8       ??_C@_04PJCCFAI@Dhcp?$AA@  0047f8b8     WebApi:Ethernet.obj
 0002:0000c8c0       ??_C@_07NBCGADJA@Unknown?$AA@ 0047f8c0     WebApi:Ethernet.obj
 0002:0000c8c8       ??_C@_0M@CLPODKLI@?7m_mode?$DN?$CFs?6?$AA@ 0047f8c8     WebApi:Ethernet.obj
 0002:0000c8d4       ??_C@_0O@JMKMELIB@?7m_ipAddr?$DN?$CFs?6?$AA@ 0047f8d4     WebApi:Ethernet.obj
 0002:0000c8e4       ??_C@_0O@LENIEHOC@?7m_ipMask?$DN?$CFs?6?$AA@ 0047f8e4     WebApi:Ethernet.obj
 0002:0000c8f4       ??_C@_0BB@NMEIAGOE@?7m_ipGateway?$DN?$CFs?6?$AA@ 0047f8f4     WebApi:Ethernet.obj
 0002:0000c908       ??_C@_0P@KFEHPEFH@?7m_dnsName?$DN?$CFs?6?$AA@ 0047f908     WebApi:Ethernet.obj
 0002:0000c918       ??_C@_0BC@HJAMJDNK@?7m_ipDnsSrv?$FL0?$FN?$DN?$CFs?$AA@ 0047f918     WebApi:Ethernet.obj
 0002:0000c92c       ??_C@_0BD@GMELIAPD@?0?5m_ipDnsSrv?$FL1?$FN?$DN?$CFs?$AA@ 0047f92c     WebApi:Ethernet.obj
 0002:0000c940       ??_C@_0BE@OPNPBKDB@?0?5m_ipDnsSrv?$FL2?$FN?$DN?$CFs?6?$AA@ 0047f940     WebApi:Ethernet.obj
 0002:0000c954       ??_C@_1CM@MNDAFNMC@?$AAL?$AAo?$AAc?$AAa?$AAl?$AA?5?$AAA?$AAr?$AAe?$AAa?$AA?5?$AAC?$AAo?$AAn?$AAn?$AAe?$AAc?$AAt?$AAi?$AAo?$AAn?$AA?$AA@ 0047f954     WebApi:Ethernet.obj
 0002:0000c980       ??_C@_1DA@MNIIIJGC@?$AAL?$AAo?$AAc?$AAa?$AAl?$AA?5?$AAA?$AAr?$AAe?$AAa?$AA?5?$AAC?$AAo?$AAn?$AAn?$AAe?$AAc?$AAt?$AAi?$AAo?$AAn?$AA?5?$AA1?$AA?$AA@ 0047f980     WebApi:Ethernet.obj
 0002:0000c9b0       ??_C@_1O@HIBFPOE@?$AAG?$AAa?$AAd?$AAg?$AAe?$AAt?$AA?$AA@ 0047f9b0     WebApi:Ethernet.obj
 0002:0000c9c0       ??_C@_02KPKOKMHB@?$CFS?$AA@ 0047f9c0     WebApi:Ethernet.obj
 0002:0000c9c4       ??_C@_0BJ@IFPCADIE@JsonWebster?3?3JsonWebster?$AA@ 0047f9c4     WebApi:JsonWebster.obj
 0002:0000c9e0       ??_C@_0P@OIJOMMBO@JsonWebster?5id?$AA@ 0047f9e0     WebApi:JsonWebster.obj
 0002:0000c9f0       ??_C@_0BF@EBPMLEL@JsonWebster?5datetime?$AA@ 0047f9f0     WebApi:JsonWebster.obj
 0002:0000ca08       ??_C@_0BC@LNBCEGJA@JsonWebster?5isDst?$AA@ 0047fa08     WebApi:JsonWebster.obj
 0002:0000ca1c       ??_C@_0BD@IPINBLGD@JsonWebster?5useDst?$AA@ 0047fa1c     WebApi:JsonWebster.obj
 0002:0000ca30       ??_C@_0BG@DPCKCDOJ@JsonWebster?5dstOffset?$AA@ 0047fa30     WebApi:JsonWebster.obj
 0002:0000ca48       ??_C@_0BC@EOPEMJDA@JsonWebster?5reset?$AA@ 0047fa48     WebApi:JsonWebster.obj
 0002:0000ca60       ??_7JsonWebster@@6B@       0047fa60     WebApi:JsonWebster.obj
 0002:0000cac4       ??_7JsonValueControllerReset@@6B@ 0047fac4     WebApi:JsonControllerReset.obj
 0002:0000cafc       ??_C@_0BF@JIBMBCCK@JsonColor?3?3JsonColor?$AA@ 0047fafc     WebApi:JsonColor.obj
 0002:0000cb14       ??_C@_0P@IDAFKBNP@JsonColor?5blue?$AA@ 0047fb14     WebApi:JsonColor.obj
 0002:0000cb24       ??_C@_0BB@HPPBEFAG@JsonColor?5farRed?$AA@ 0047fb24     WebApi:JsonColor.obj
 0002:0000cb38       ??_C@_0BA@DCJFGDAC@JsonColor?5green?$AA@ 0047fb38     WebApi:JsonColor.obj
 0002:0000cb48       ??_C@_0BE@JFAMACOL@JsonColor?5intensity?$AA@ 0047fb48     WebApi:JsonColor.obj
 0002:0000cb5c       ??_C@_0O@OHONMCMA@JsonColor?5red?$AA@ 0047fb5c     WebApi:JsonColor.obj
 0002:0000cb6c       ??_C@_0BA@KPNFEBIO@JsonColor?5white?$AA@ 0047fb6c     WebApi:JsonColor.obj
 0002:0000cb80       ??_7JsonColor@@6B@         0047fb80     WebApi:JsonColor.obj
 0002:0000cbe0       ??_C@_07MHDNFCJE@machine?$AA@ 0047fbe0     WebApi:JsonControllerMode.obj
 0002:0000cbec       ??_7JsonValueControllerMode@@6B@ 0047fbec     WebApi:JsonControllerMode.obj
 0002:0000cc24       ??_C@_06ENJNJKEL@yellow?$AA@ 0047fc24     WebApi:JsonFaultStatus.obj
 0002:0000cc30       ??_7JsonValueFaultStatus@@6B@ 0047fc30     WebApi:JsonFaultStatus.obj
 0002:0000cc68       ??_C@_08BLGGOBH@maps?4dat?$AA@ 0047fc68     WebApi:MapRecord.obj
 0002:0000cc74       ??_C@_09JHDJIBMM@MapRecord?$AA@ 0047fc74     WebApi:MapRecord.obj
 0002:0000cc80       ??_C@_0BF@LKDEMMFB@MapRecord?3?3MapRecord?$AA@ 0047fc80     WebApi:MapRecord.obj
 0002:0000cc98       ??_C@_0BM@EGHPAHBE@MapRecord?3?3MapRecord?5nRecNo?$AA@ 0047fc98     WebApi:MapRecord.obj
 0002:0000ccb4       ??_C@_0BF@FJJAFJGJ@MapRecord?3?3openTable?$AA@ 0047fcb4     WebApi:MapRecord.obj
 0002:0000ccd0       ??_7MapRecord@@6B@         0047fcd0     WebApi:MapRecord.obj
 0002:0000cd10       ??_C@_0BH@GOMFBDHB@JsonSensor?3?3JsonSensor?$AA@ 0047fd10     WebApi:JsonSensor.obj
 0002:0000cd28       ??_C@_0O@CCLDILNC@JsonSensor?5id?$AA@ 0047fd28     WebApi:JsonSensor.obj
 0002:0000cd38       ??_C@_0BC@EGAOKHDF@JsonSensor?5handle?$AA@ 0047fd38     WebApi:JsonSensor.obj
 0002:0000cd4c       ??_C@_0BF@KEBDKPFD@JsonSensor?5serialNum?$AA@ 0047fd4c     WebApi:JsonSensor.obj
 0002:0000cd64       ??_C@_0BA@BEBPDEDF@JsonSensor?5name?$AA@ 0047fd64     WebApi:JsonSensor.obj
 0002:0000cd74       ??_C@_0BG@FAFIAIIL@JsonSensor?5sensorType?$AA@ 0047fd74     WebApi:JsonSensor.obj
 0002:0000cd8c       ??_C@_0BJ@EPLEFMLA@JsonSensor?5sticky?5faults?$AA@ 0047fd8c     WebApi:JsonSensor.obj
 0002:0000cda8       ??_C@_0BF@CAEKCIOH@JsonSensor?5runStatus?$AA@ 0047fda8     WebApi:JsonSensor.obj
 0002:0000cdc0       ??_C@_0BE@KGGDGGKC@JsonSensor?5runState?$AA@ 0047fdc0     WebApi:JsonSensor.obj
 0002:0000cdd4       ??_C@_0BC@KNOKBBEP@JsonSensor?5status?$AA@ 0047fdd4     WebApi:JsonSensor.obj
 0002:0000cde8       ??_C@_0BC@NJOCHNHD@JsonSensor?5colors?$AA@ 0047fde8     WebApi:JsonSensor.obj
 0002:0000cdfc       ??_C@_0BD@DJLENCFE@JsonSensor?5current?$AA@ 0047fdfc     WebApi:JsonSensor.obj
 0002:0000ce10       ??_C@_0P@CALJFJPI@JsonSensor?5dli?$AA@ 0047fe10     WebApi:JsonSensor.obj
 0002:0000ce20       ??_C@_0BC@HEDDEHGD@JsonSensor?5signal?$AA@ 0047fe20     WebApi:JsonSensor.obj
 0002:0000ce34       ??_C@_0BA@IGJIMKFF@JsonSensor?5temp?$AA@ 0047fe34     WebApi:JsonSensor.obj
 0002:0000ce44       ??_C@_0BB@BNBFFOIP@JsonSensor?5humid?$AA@ 0047fe44     WebApi:JsonSensor.obj
 0002:0000ce58       ??_C@_0BH@IMBGKCF@JsonSensor?5verFirmware?$AA@ 0047fe58     WebApi:JsonSensor.obj
 0002:0000ce70       ??_C@_0BH@DEOJPLMK@JsonSensor?5verHardware?$AA@ 0047fe70     WebApi:JsonSensor.obj
 0002:0000ce88       ??_C@_0BF@MJEGFAKC@JsonSensor?5timestamp?$AA@ 0047fe88     WebApi:JsonSensor.obj
 0002:0000cea0       ??_C@_0BH@JACKEAGB@JsonSensor?5mapPosition?$AA@ 0047fea0     WebApi:JsonSensor.obj
 0002:0000cebc       ??_7JsonSensor@@6B@        0047febc     WebApi:JsonSensor.obj
 0002:0000cf1c       ??_C@_02FDNJECIE@?$CB?$DN?$AA@ 0047ff1c     WebApi:Record.obj
 0002:0000cf20       ??_C@_03BDACDFHA@AND?$AA@  0047ff20     WebApi:Record.obj
 0002:0000cf24       ??_C@_02PDPFNDMG@OR?$AA@   0047ff24     WebApi:Record.obj
 0002:0000cf28       ??_C@_01MNNFJEPP@?$DM?$AA@ 0047ff28     WebApi:Record.obj
 0002:0000cf2c       ??_C@_02EHCHHCKH@?$DM?$DN?$AA@ 0047ff2c     WebApi:Record.obj
 0002:0000cf30       ??_C@_01PPODPGHN@?$DO?$AA@ 0047ff30     WebApi:Record.obj
 0002:0000cf34       ??_C@_02EEKDKGMJ@?$DO?$DN?$AA@ 0047ff34     WebApi:Record.obj
 0002:0000cf38       ??_C@_02EGOFBIJA@?$DN?$DN?$AA@ 0047ff38     WebApi:Record.obj
 0002:0000cf3c       ??_C@_04BEFGLLAH@?$DN?$CB?$DM?$DO?$AA@ 0047ff3c     WebApi:Record.obj
 0002:0000cf44       ??_C@_0BA@LKMOHBJF@Record?3?3compare?$AA@ 0047ff44     WebApi:Record.obj
 0002:0000cf54       ??_C@_0O@NIAMMEIM@Record?3?3query?$AA@ 0047ff54     WebApi:Record.obj
 0002:0000cf64       ??_C@_0P@FHDNMHJF@Record?3?3remove?$AA@ 0047ff64     WebApi:Record.obj
 0002:0000cf74       ??_C@_0BB@GFMKIJLB@Record?3?3getTable?$AA@ 0047ff74     WebApi:Record.obj
 0002:0000cf88       ??_C@_0N@OPMPCKGB@Record?3?3join?$AA@ 0047ff88     WebApi:Record.obj
 0002:0000cf98       ??_C@_0P@OBHEFDNP@not?5modifiable?$AA@ 0047ff98     WebApi:Record.obj
 0002:0000cfa8       ??_C@_0BK@DMDGKKMJ@Record?3?3openTableFullPath?$AA@ 0047ffa8     WebApi:Record.obj
 0002:0000cfc4       ??_C@_0BO@MLCHODFM@?$CFs?5?3?5file?5?$CC?$CFs?$CC?5was?5not?5found?6?$AA@ 0047ffc4     WebApi:Record.obj
 0002:0000cfe4       ??_C@_0CH@OCAHIIAC@?$CFs?5?3?5CreateFile?$CI?$CFs?$CJ?5failed?0?5resu@ 0047ffe4     WebApi:Record.obj
 0002:0000d010       ??_C@_0NG@GCIMHDJL@?$CK?$CK?$CK?$CK?$CK?$CK?$CK?$CK?$CK?$CK?$CK?$CK?$CK?$CK?$CK?$CK?$CK?$CK?$CK?$CK?$CK?$CK?$CK?$CK?$CK?6?$CFs?5?3?5T@ 00480010     WebApi:Record.obj
 0002:0000d0e8       ??_C@_04HDOCAJNK@?$CFs?$CFs?$AA@ 004800e8     WebApi:Record.obj
 0002:0000d0f0       ??_C@_0L@NDDHBCKM@?1database?1?$AA@ 004800f0     WebApi:Record.obj
 0002:0000d0fc       ??_C@_05JPPLNOIE@?$CFs?$DN?$CFs?$AA@ 004800fc     WebApi:Record.obj
 0002:0000d104       ??_C@_02BNFKLOHE@?5?3?$AA@ 00480104     WebApi:Record.obj
 0002:0000d108       ??_C@_0BB@HBLPDDOF@LanmanRedirector?$AA@ 00480108     WebApi:Record.obj
 0002:0000d11c       ??_C@_01ICJEACDI@?$DL?$AA@ 0048011c     WebApi:Record.obj
 0002:0000d120       ??_C@_01KICIPPFI@?2?$AA@   00480120     WebApi:Record.obj
 0002:0000d124       ??_C@_0BE@PKBBGPOC@Record?3?3getPathName?$AA@ 00480124     WebApi:Record.obj
 0002:0000d138       ??_C@_0DH@HPCCEKDM@?$CFs?$CI?$CJ?5?3?5GetFileInformationByHandl@ 00480138     WebApi:Record.obj
 0002:0000d170       ??_C@_0BC@MBBMOCDI@Flush?5failed?0?5?$CFd?6?$AA@ 00480170     WebApi:Record.obj
 0002:0000d190       ??_7Record@@6B@            00480190     WebApi:Record.obj
 0002:0000d1d0       ??_C@_03MKFOLDKI@nak?$AA@  004801d0     WebApi:JsonRequestOp.obj
 0002:0000d1d4       ??_C@_07ENHGAJCI@request?$AA@ 004801d4     WebApi:JsonRequestOp.obj
 0002:0000d1dc       ??_C@_08HKMEAON@response?$AA@ 004801dc     WebApi:JsonRequestOp.obj
 0002:0000d1ec       ??_7JsonValueRequestOp@@6B@ 004801ec     WebApi:JsonRequestOp.obj
 0002:0000d224       ??_C@_06LHJMGKLI@attach?$AA@ 00480224     WebApi:JsonRequestType.obj
 0002:0000d22c       ??_C@_03HNAFFKGA@get?$AA@  0048022c     WebApi:JsonRequestType.obj
 0002:0000d230       ??_C@_06OAOPNKHP@insert?$AA@ 00480230     WebApi:JsonRequestType.obj
 0002:0000d238       ??_C@_03KCHOJKKI@set?$AA@  00480238     WebApi:JsonRequestType.obj
 0002:0000d240       ??_7JsonValueRequestType@@6B@ 00480240     WebApi:JsonRequestType.obj
 0002:0000d278       ??_C@_04DAMGJPCA@file?$AA@ 00480278     WebApi:JsonRequestItem.obj
 0002:0000d284       ??_7JsonValueRequestItem@@6B@ 00480284     WebApi:JsonRequestItem.obj
 0002:0000d2bc       ??_C@_0BJ@PCCCEEEN@JsonProgram?3?3JsonProgram?$AA@ 004802bc     WebApi:JsonProgram.obj
 0002:0000d2d8       ??_C@_0P@BHJIOMPF@JsonProgram?5id?$AA@ 004802d8     WebApi:JsonProgram.obj
 0002:0000d2e8       ??_C@_0BD@BGLANEFN@JsonProgram?5handle?$AA@ 004802e8     WebApi:JsonProgram.obj
 0002:0000d2fc       ??_C@_0BB@BNAMEHIA@JsonProgram?5name?$AA@ 004802fc     WebApi:JsonProgram.obj
 0002:0000d310       ??_C@_0BC@BAPMENKL@JsonProgram?5descr?$AA@ 00480310     WebApi:JsonProgram.obj
 0002:0000d324       ??_C@_0BC@CBKGOFJB@JsonProgram?5steps?$AA@ 00480324     WebApi:JsonProgram.obj
 0002:0000d33c       ??_7JsonProgram@@6B@       0048033c     WebApi:JsonProgram.obj
 0002:0000d39c       ??_C@_0BP@HCNOBEHH@JsonController?3?3JsonController?$AA@ 0048039c     WebApi:JsonController.obj
 0002:0000d3bc       ??_C@_0BC@DFNLAGG@JsonController?5id?$AA@ 004803bc     WebApi:JsonController.obj
 0002:0000d3d0       ??_C@_0BG@HALELKLF@JsonController?5handle?$AA@ 004803d0     WebApi:JsonController.obj
 0002:0000d3e8       ??_C@_0BJ@JBPOICGL@JsonController?5serialNum?$AA@ 004803e8     WebApi:JsonController.obj
 0002:0000d404       ??_C@_0BL@FKIBLPEG@JsonController?5verFirmware?$AA@ 00480404     WebApi:JsonController.obj
 0002:0000d420       ??_C@_0BL@GGKJCOKJ@JsonController?5verHardware?$AA@ 00480420     WebApi:JsonController.obj
 0002:0000d43c       ??_C@_0BE@INBDKBCP@JsonController?5mode?$AA@ 0048043c     WebApi:JsonController.obj
 0002:0000d450       ??_C@_0BH@NEDKOLGJ@JsonController?5current?$AA@ 00480450     WebApi:JsonController.obj
 0002:0000d468       ??_C@_0BG@FFLMOMEF@JsonController?5kemoid?$AA@ 00480468     WebApi:JsonController.obj
 0002:0000d480       ??_C@_0BH@KLCOOMGI@JsonController?5channel?$AA@ 00480480     WebApi:JsonController.obj
 0002:0000d498       ??_C@_0BF@MMBCDGHP@JsonController?5panid?$AA@ 00480498     WebApi:JsonController.obj
 0002:0000d4b0       ??_C@_0BG@HPNBMNED@JsonController?5addr16?$AA@ 004804b0     WebApi:JsonController.obj
 0002:0000d4c8       ??_C@_0BH@EHPIKCCK@JsonController?5primary?$AA@ 004804c8     WebApi:JsonController.obj
 0002:0000d4e0       ??_C@_0BJ@PEDEOOBB@JsonController?5encrypted?$AA@ 004804e0     WebApi:JsonController.obj
 0002:0000d4fc       ??_C@_0BI@BOADDHIA@JsonController?5datetime?$AA@ 004804fc     WebApi:JsonController.obj
 0002:0000d514       ??_C@_0BF@JFPBFFMD@JsonController?5reset?$AA@ 00480514     WebApi:JsonController.obj
 0002:0000d530       ??_7JsonController@@6B@    00480530     WebApi:JsonController.obj
 0002:0000d590       ??_C@_0BJ@INBCOINA@JsonFixture?3?3JsonFixture?$AA@ 00480590     WebApi:JsonFixture.obj
 0002:0000d5ac       ??_C@_0P@MEJFIEGI@JsonFixture?5id?$AA@ 004805ac     WebApi:JsonFixture.obj
 0002:0000d5bc       ??_C@_0BD@LFCKIKJP@JsonFixture?5handle?$AA@ 004805bc     WebApi:JsonFixture.obj
 0002:0000d5d0       ??_C@_0BB@IPEMAAON@JsonFixture?5bias?$AA@ 004805d0     WebApi:JsonFixture.obj
 0002:0000d5e4       ??_C@_0BD@CKMGFANJ@JsonFixture?5colors?$AA@ 004805e4     WebApi:JsonFixture.obj
 0002:0000d5f8       ??_C@_0BE@PEELMIP@JsonFixture?5current?$AA@ 004805f8     WebApi:JsonFixture.obj
 0002:0000d60c       ??_C@_0BH@DDJKCCMM@JsonFixture?5deviceType?$AA@ 0048060c     WebApi:JsonFixture.obj
 0002:0000d624       ??_C@_0BE@HCMPCILB@JsonFixture?5enabled?$AA@ 00480624     WebApi:JsonFixture.obj
 0002:0000d638       ??_C@_0BK@LHMPPGPF@JsonFixture?5sticky?5faults?$AA@ 00480638     WebApi:JsonFixture.obj
 0002:0000d654       ??_C@_0BB@JKIKIJLA@JsonFixture?5name?$AA@ 00480654     WebApi:JsonFixture.obj
 0002:0000d668       ??_C@_0BD@HDCMEMMK@JsonFixture?5overid?$AA@ 00480668     WebApi:JsonFixture.obj
 0002:0000d67c       ??_C@_0BD@NMBNNHKI@JsonFixture?5overkh?$AA@ 0048067c     WebApi:JsonFixture.obj
 0002:0000d690       ??_C@_0BC@LGFEBPIH@JsonFixture?5range?$AA@ 00480690     WebApi:JsonFixture.obj
 0002:0000d6a4       ??_C@_0BE@PAENCNIO@JsonFixture?5schedid?$AA@ 004806a4     WebApi:JsonFixture.obj
 0002:0000d6b8       ??_C@_0BE@FPHMLGOM@JsonFixture?5schedkh?$AA@ 004806b8     WebApi:JsonFixture.obj
 0002:0000d6cc       ??_C@_0BG@GMNFMJCI@JsonFixture?5serialNum?$AA@ 004806cc     WebApi:JsonFixture.obj
 0002:0000d6e4       ??_C@_0BD@IHBHGKMJ@JsonFixture?5signal?$AA@ 004806e4     WebApi:JsonFixture.obj
 0002:0000d6f8       ??_C@_0BG@IIDAHBKL@JsonFixture?5sleepMode?$AA@ 004806f8     WebApi:JsonFixture.obj
 0002:0000d710       ??_C@_0BD@FOMODMOF@JsonFixture?5status?$AA@ 00480710     WebApi:JsonFixture.obj
 0002:0000d724       ??_C@_0BD@DEJDNDPA@JsonFixture?5stepid?$AA@ 00480724     WebApi:JsonFixture.obj
 0002:0000d738       ??_C@_0BI@GANLMGLD@JsonFixture?5verFirmware?$AA@ 00480738     WebApi:JsonFixture.obj
 0002:0000d750       ??_C@_0BI@FMPDFHFM@JsonFixture?5verHardware?$AA@ 00480750     WebApi:JsonFixture.obj
 0002:0000d768       ??_C@_0BD@NIANPCMH@JsonFixture?5zoneid?$AA@ 00480768     WebApi:JsonFixture.obj
 0002:0000d77c       ??_C@_0BD@HHDMGJKF@JsonFixture?5zonekh?$AA@ 0048077c     WebApi:JsonFixture.obj
 0002:0000d790       ??_C@_0BF@LHFEJNJA@JsonFixture?5runState?$AA@ 00480790     WebApi:JsonFixture.obj
 0002:0000d7a8       ??_C@_0BG@PEBEPLEL@JsonFixture?5runStatue?$AA@ 004807a8     WebApi:JsonFixture.obj
 0002:0000d7c4       ??_7JsonFixture@@6B@       004807c4     WebApi:JsonFixture.obj
 0002:0000d824       ??_C@_0BD@DFMJPNEO@JsonZone?3?3JsonZone?$AA@ 00480824     WebApi:JsonZone.obj
 0002:0000d838       ??_C@_0M@LBGCODBP@JsonZone?5id?$AA@ 00480838     WebApi:JsonZone.obj
 0002:0000d844       ??_C@_0BA@HFMIDNNG@JsonZone?5handle?$AA@ 00480844     WebApi:JsonZone.obj
 0002:0000d854       ??_C@_0BB@IEKHAM@JsonZone?5current?$AA@ 00480854     WebApi:JsonZone.obj
 0002:0000d868       ??_C@_0P@GOHJBPLG@JsonZone?5descr?$AA@ 00480868     WebApi:JsonZone.obj
 0002:0000d878       ??_C@_0O@CJCCOHIN@JsonZone?5name?$AA@ 00480878     WebApi:JsonZone.obj
 0002:0000d888       ??_C@_0BE@IGLLIIKI@JsonZone?5overrideId?$AA@ 00480888     WebApi:JsonZone.obj
 0002:0000d89c       ??_C@_0BE@CJIKBDMK@JsonZone?5overrideKh?$AA@ 0048089c     WebApi:JsonZone.obj
 0002:0000d8b0       ??_C@_09DIJHBMAL@JsonZone?5?$AA@ 004808b0     WebApi:JsonZone.obj
 0002:0000d8bc       ??_C@_0BF@KGMCLMCG@JsonZone?5scheduledId?$AA@ 004808bc     WebApi:JsonZone.obj
 0002:0000d8d4       ??_C@_0BF@JPDCHEE@JsonZone?5scheduledKh?$AA@ 004808d4     WebApi:JsonZone.obj
 0002:0000d8ec       ??_C@_0BD@BCPLHMAP@JsonZone?5sleepMode?$AA@ 004808ec     WebApi:JsonZone.obj
 0002:0000d900       ??_C@_0BA@JOCMILKM@JsonZone?5status?$AA@ 00480900     WebApi:JsonZone.obj
 0002:0000d910       ??_C@_0BA@MMDMCCFJ@JsonZone?5stepId?$AA@ 00480910     WebApi:JsonZone.obj
 0002:0000d924       ??_7JsonZone@@6B@          00480924     WebApi:JsonZone.obj
 0002:0000d984       ??_C@_0N@BGHJOBPL@kProgramStep?$AA@ 00480984     WebApi:kProgramStep.obj
 0002:0000d994       ??_C@_0P@HBCGBGCH@jspFromProgram?$AA@ 00480994     WebApi:kProgramStep.obj
 0002:0000d9a4       ??_C@_0N@CEHDEEPN@programid?$DN?$CFd?$AA@ 004809a4     WebApi:kProgramStep.obj
 0002:0000d9b4       ??_C@_0P@LAINFPDC@jpsFromProgram?$AA@ 004809b4     WebApi:kProgramStep.obj
 0002:0000d9c4       ??_C@_0BE@NFHHPKAH@jspFromProgram?5link?$AA@ 004809c4     WebApi:kProgramStep.obj
 0002:0000d9dc       ??_7kProgramStep@@6B@      004809dc     WebApi:kProgramStep.obj
 0002:0000da3c       ??_C@_0CB@GDCGBCBD@JsonProgramStep?3?3JsonProgramStep@ 00480a3c     WebApi:JsonProgramStep.obj
 0002:0000da60       ??_C@_0BD@NLPGODKB@JsonProgramStep?5id?$AA@ 00480a60     WebApi:JsonProgramStep.obj
 0002:0000da74       ??_C@_0BG@KECGOGFP@JsonProgramStep?5start?$AA@ 00480a74     WebApi:JsonProgramStep.obj
 0002:0000da8c       ??_C@_0BG@OANCP@JsonProgramStep?5color?$AA@ 00480a8c     WebApi:JsonProgramStep.obj
 0002:0000daa4       ??_C@_0BF@PLMKDIED@JsonProgramStep?5mode?$AA@ 00480aa4     WebApi:JsonProgramStep.obj
 0002:0000dabc       ??_C@_0BF@ONCJPLLE@JsonProgramStep?5rand?$AA@ 00480abc     WebApi:JsonProgramStep.obj
 0002:0000dad8       ??_7JsonProgramStep@@6B@   00480ad8     WebApi:JsonProgramStep.obj
 0002:0000db38       ??_C@_05HKAKDGKI@EMPTY?$AA@ 00480b38     WebApi:JsonProgramStepMode.obj
 0002:0000db40       ??_C@_05COCCGPHC@FIXED?$AA@ 00480b40     WebApi:JsonProgramStepMode.obj
 0002:0000db48       ??_C@_04JKFPOING@RAMP?$AA@ 00480b48     WebApi:JsonProgramStepMode.obj
 0002:0000db50       ??_C@_04MDHMLCKF@STOP?$AA@ 00480b50     WebApi:JsonProgramStepMode.obj
 0002:0000db5c       ??_7JsonValueProgramStepMode@@6B@ 00480b5c     WebApi:JsonProgramStepMode.obj
 0002:0000db98       __real@0000000000000000    00480b98     WebApi:WebApi.obj
 0002:0000dba0       __real@404f000000000000    00480ba0     WebApi:WebApi.obj
 0002:0000dba8       __real@40dfffc000000000    00480ba8     WebApi:WebApi.obj
 0002:0000dbb0       __xmm@00000000000000000000000000000000 00480bb0     WebApi:WebApi.obj
 0002:0000dbc0       __xmm@00000000ffffb1e00000000000000000 00480bc0     WebApi:WebApi.obj
 0002:0000dbd0       __xmm@00000000ffffb1e00000000500000000 00480bd0     WebApi:WebApi.obj
 0002:0000dbe0       __xmm@00000000ffffb1e00000001300000000 00480be0     WebApi:WebApi.obj
 0002:0000dbf0       __xmm@00000001000000010000000100000001 00480bf0     WebApi:WebApi.obj
 0002:0000dc00       __xmm@00000002000000020000000300000002 00480c00     WebApi:WebApi.obj
 0002:0000dc10       __xmm@00000003000000020000000100000000 00480c10     WebApi:WebApi.obj
 0002:0000dc20       __pDestructExceptionObject 00480c20     LIBCMT:frame.obj
 0002:0000dc28       ??_7bad_exception@std@@6B@ 00480c28     LIBCMT:frame.obj
 0002:0000dc30       ??_C@_0O@DPKOEFFH@bad?5exception?$AA@ 00480c30     LIBCMT:frame.obj
 0002:0000dc40       __load_config_used         00480c40     LIBCMT:loadcfg.obj
 0002:0000dd04       ??_R4type_info@@6B@        00480d04     LIBCMT:typinfo.obj
 0002:0000dd18       ??_R3type_info@@8          00480d18     LIBCMT:typinfo.obj
 0002:0000dd28       ??_R2type_info@@8          00480d28     LIBCMT:typinfo.obj
 0002:0000dd30       ??_R1A@?0A@EA@type_info@@8 00480d30     LIBCMT:typinfo.obj
 0002:0000dd4c       ??_R1A@?0A@EA@exception@std@@8 00480d4c     LIBCMT:new.obj
 0002:0000dd68       ??_R3exception@std@@8      00480d68     LIBCMT:new.obj
 0002:0000dd78       ??_R2exception@std@@8      00480d78     LIBCMT:new.obj
 0002:0000dd80       ??_R4bad_alloc@std@@6B@    00480d80     LIBCMT:new.obj
 0002:0000dd94       ??_R3bad_alloc@std@@8      00480d94     LIBCMT:new.obj
 0002:0000dda4       ??_R2bad_alloc@std@@8      00480da4     LIBCMT:new.obj
 0002:0000ddb0       ??_R1A@?0A@EA@bad_alloc@std@@8 00480db0     LIBCMT:new.obj
 0002:0000ddcc       ??_R4exception@std@@6B@    00480dcc     LIBCMT:stdexcpt.obj
 0002:0000dde0       ??_R4bad_cast@std@@6B@     00480de0     LIBCMT:stdexcpt.obj
 0002:0000ddf4       ??_R3bad_cast@std@@8       00480df4     LIBCMT:stdexcpt.obj
 0002:0000de04       ??_R2bad_cast@std@@8       00480e04     LIBCMT:stdexcpt.obj
 0002:0000de10       ??_R1A@?0A@EA@bad_cast@std@@8 00480e10     LIBCMT:stdexcpt.obj
 0002:0000de2c       ??_R4bad_typeid@std@@6B@   00480e2c     LIBCMT:stdexcpt.obj
 0002:0000de40       ??_R3bad_typeid@std@@8     00480e40     LIBCMT:stdexcpt.obj
 0002:0000de50       ??_R2bad_typeid@std@@8     00480e50     LIBCMT:stdexcpt.obj
 0002:0000de5c       ??_R1A@?0A@EA@bad_typeid@std@@8 00480e5c     LIBCMT:stdexcpt.obj
 0002:0000de78       ??_R4__non_rtti_object@std@@6B@ 00480e78     LIBCMT:stdexcpt.obj
 0002:0000de8c       ??_R3__non_rtti_object@std@@8 00480e8c     LIBCMT:stdexcpt.obj
 0002:0000de9c       ??_R2__non_rtti_object@std@@8 00480e9c     LIBCMT:stdexcpt.obj
 0002:0000deac       ??_R1A@?0A@EA@__non_rtti_object@std@@8 00480eac     LIBCMT:stdexcpt.obj
 0002:0000dec8       ??_R4DNameNode@@6B@        00480ec8     LIBCMT:undname.obj
 0002:0000dedc       ??_R3DNameNode@@8          00480edc     LIBCMT:undname.obj
 0002:0000deec       ??_R2DNameNode@@8          00480eec     LIBCMT:undname.obj
 0002:0000def4       ??_R1A@?0A@EA@DNameNode@@8 00480ef4     LIBCMT:undname.obj
 0002:0000df10       ??_R4charNode@@6B@         00480f10     LIBCMT:undname.obj
 0002:0000df24       ??_R3charNode@@8           00480f24     LIBCMT:undname.obj
 0002:0000df34       ??_R2charNode@@8           00480f34     LIBCMT:undname.obj
 0002:0000df40       ??_R1A@?0A@EA@charNode@@8  00480f40     LIBCMT:undname.obj
 0002:0000df5c       ??_R4pcharNode@@6B@        00480f5c     LIBCMT:undname.obj
 0002:0000df70       ??_R3pcharNode@@8          00480f70     LIBCMT:undname.obj
 0002:0000df80       ??_R2pcharNode@@8          00480f80     LIBCMT:undname.obj
 0002:0000df8c       ??_R1A@?0A@EA@pcharNode@@8 00480f8c     LIBCMT:undname.obj
 0002:0000dfa8       ??_R4pDNameNode@@6B@       00480fa8     LIBCMT:undname.obj
 0002:0000dfbc       ??_R3pDNameNode@@8         00480fbc     LIBCMT:undname.obj
 0002:0000dfcc       ??_R2pDNameNode@@8         00480fcc     LIBCMT:undname.obj
 0002:0000dfd8       ??_R1A@?0A@EA@pDNameNode@@8 00480fd8     LIBCMT:undname.obj
 0002:0000dff4       ??_R4DNameStatusNode@@6B@  00480ff4     LIBCMT:undname.obj
 0002:0000e008       ??_R3DNameStatusNode@@8    00481008     LIBCMT:undname.obj
 0002:0000e018       ??_R2DNameStatusNode@@8    00481018     LIBCMT:undname.obj
 0002:0000e024       ??_R1A@?0A@EA@DNameStatusNode@@8 00481024     LIBCMT:undname.obj
 0002:0000e040       ??_R4pairNode@@6B@         00481040     LIBCMT:undname.obj
 0002:0000e054       ??_R3pairNode@@8           00481054     LIBCMT:undname.obj
 0002:0000e064       ??_R2pairNode@@8           00481064     LIBCMT:undname.obj
 0002:0000e070       ??_R1A@?0A@EA@pairNode@@8  00481070     LIBCMT:undname.obj
 0002:0000e08c       ??_R2JsonValueEnum@@8      0048108c     WebApi:JsonEnum.obj
 0002:0000e09c       ??_R3JsonValueInt@@8       0048109c     WebApi:JsonEnum.obj
 0002:0000e0ac       ??_R1A@?0A@EA@JsonValueEnum@@8 004810ac     WebApi:JsonEnum.obj
 0002:0000e0c8       ??_R4JsonValueEnum@@6B@    004810c8     WebApi:JsonEnum.obj
 0002:0000e0dc       ??_R3JsonValue@@8          004810dc     WebApi:JsonEnum.obj
 0002:0000e0ec       ??_R2JsonValueInt@@8       004810ec     WebApi:JsonEnum.obj
 0002:0000e0f8       ??_R1A@?0A@EA@JsonValueInt@@8 004810f8     WebApi:JsonEnum.obj
 0002:0000e114       ??_R3JsonValueEnum@@8      00481114     WebApi:JsonEnum.obj
 0002:0000e124       ??_R1A@?0A@EA@JsonValue@@8 00481124     WebApi:JsonEnum.obj
 0002:0000e140       ??_R2JsonValue@@8          00481140     WebApi:JsonEnum.obj
 0002:0000e148       ??_R4JsonObject@@6B@       00481148     WebApi:JsonObject.obj
 0002:0000e15c       ??_R1A@?0A@EA@JsonObject@@8 0048115c     WebApi:JsonObject.obj
 0002:0000e178       ??_R3JsonObject@@8         00481178     WebApi:JsonObject.obj
 0002:0000e188       ??_R2JsonObject@@8         00481188     WebApi:JsonObject.obj
 0002:0000e194       ??_R2Alert@@8              00481194     WebApi:Alert.obj
 0002:0000e1a4       ??_R1A@?0A@EA@Alert@@8     004811a4     WebApi:Alert.obj
 0002:0000e1c0       ??_R3Alert@@8              004811c0     WebApi:Alert.obj
 0002:0000e1d0       ??_R4Alert@@6B@            004811d0     WebApi:Alert.obj
 0002:0000e1e4       ??_R2Controller@@8         004811e4     WebApi:Controller.obj
 0002:0000e1ec       ??_R1A@?0A@EA@Controller@@8 004811ec     WebApi:Controller.obj
 0002:0000e208       ??_R3Controller@@8         00481208     WebApi:Controller.obj
 0002:0000e218       ??_R4Controller@@6B@       00481218     WebApi:Controller.obj
 0002:0000e22c       ??_R2AuthToken@@8          0048122c     WebApi:AuthToken.obj
 0002:0000e23c       ??_R1A@?0A@EA@AuthToken@@8 0048123c     WebApi:AuthToken.obj
 0002:0000e258       ??_R3AuthToken@@8          00481258     WebApi:AuthToken.obj
 0002:0000e268       ??_R4AuthToken@@6B@        00481268     WebApi:AuthToken.obj
 0002:0000e27c       ??_R2Error@@8              0048127c     WebApi:Error.obj
 0002:0000e28c       ??_R1A@?0A@EA@Error@@8     0048128c     WebApi:Error.obj
 0002:0000e2a8       ??_R3Error@@8              004812a8     WebApi:Error.obj
 0002:0000e2b8       ??_R4Error@@6B@            004812b8     WebApi:Error.obj
 0002:0000e2cc       ??_R4JsonValue@@6B@        004812cc     WebApi:JsonValue.obj
 0002:0000e2e0       ??_R2UserWrapper@@8        004812e0     WebApi:User.obj
 0002:0000e2f0       ??_R2User@@8               004812f0     WebApi:User.obj
 0002:0000e300       ??_R1A@?0A@EJ@JsonValue@@8 00481300     WebApi:User.obj
 0002:0000e31c       ??_R1A@?0A@EN@JsonObject@@8 0048131c     WebApi:User.obj
 0002:0000e338       ??_R1A@?0A@EA@UserWrapper@@8 00481338     WebApi:User.obj
 0002:0000e354       ??_R1A@?0A@EA@User@@8      00481354     WebApi:User.obj
 0002:0000e370       ??_R3UserWrapper@@8        00481370     WebApi:User.obj
 0002:0000e380       ??_R3User@@8               00481380     WebApi:User.obj
 0002:0000e390       ??_R4UserWrapper@@6B@      00481390     WebApi:User.obj
 0002:0000e3a4       ??_R4User@@6B@             004813a4     WebApi:User.obj
 0002:0000e3b8       ??_R2Zone@@8               004813b8     WebApi:Zone.obj
 0002:0000e3c8       ??_R1A@?0A@EA@Zone@@8      004813c8     WebApi:Zone.obj
 0002:0000e3e4       ??_R3Zone@@8               004813e4     WebApi:Zone.obj
 0002:0000e3f4       ??_R4Zone@@6B@             004813f4     WebApi:Zone.obj
 0002:0000e408       ??_R2Fixture@@8            00481408     WebApi:Fixture.obj
 0002:0000e418       ??_R1A@?0A@EA@Fixture@@8   00481418     WebApi:Fixture.obj
 0002:0000e434       ??_R3Fixture@@8            00481434     WebApi:Fixture.obj
 0002:0000e444       ??_R4Fixture@@6B@          00481444     WebApi:Fixture.obj
 0002:0000e458       ??_R2Program@@8            00481458     WebApi:Program.obj
 0002:0000e468       ??_R1A@?0A@EA@Program@@8   00481468     WebApi:Program.obj
 0002:0000e484       ??_R3Program@@8            00481484     WebApi:Program.obj
 0002:0000e494       ??_R4Program@@6B@          00481494     WebApi:Program.obj
 0002:0000e4a8       ??_R2ProgramStep@@8        004814a8     WebApi:ProgramStep.obj
 0002:0000e4b8       ??_R1A@?0A@EA@ProgramStep@@8 004814b8     WebApi:ProgramStep.obj
 0002:0000e4d4       ??_R3ProgramStep@@8        004814d4     WebApi:ProgramStep.obj
 0002:0000e4e4       ??_R4ProgramStep@@6B@      004814e4     WebApi:ProgramStep.obj
 0002:0000e4f8       ??_R2Network@@8            004814f8     WebApi:Network.obj
 0002:0000e508       ??_R1A@?0A@EA@Network@@8   00481508     WebApi:Network.obj
 0002:0000e524       ??_R3Network@@8            00481524     WebApi:Network.obj
 0002:0000e534       ??_R4Network@@6B@          00481534     WebApi:Network.obj
 0002:0000e548       ??_R2RfConfig@@8           00481548     WebApi:RfConfig.obj
 0002:0000e558       ??_R1A@?0A@EA@RfConfig@@8  00481558     WebApi:RfConfig.obj
 0002:0000e574       ??_R3RfConfig@@8           00481574     WebApi:RfConfig.obj
 0002:0000e584       ??_R4RfConfig@@6B@         00481584     WebApi:RfConfig.obj
 0002:0000e598       ??_R2Webster@@8            00481598     WebApi:Webster.obj
 0002:0000e5ac       ??_R2JsonWebster@@8        004815ac     WebApi:Webster.obj
 0002:0000e5bc       ??_R1A@?0A@EA@Webster@@8   004815bc     WebApi:Webster.obj
 0002:0000e5d8       ??_R1A@?0A@EA@JsonWebster@@8 004815d8     WebApi:Webster.obj
 0002:0000e5f4       ??_R3JsonWebster@@8        004815f4     WebApi:Webster.obj
 0002:0000e604       ??_R3Webster@@8            00481604     WebApi:Webster.obj
 0002:0000e614       ??_R4Webster@@6B@          00481614     WebApi:Webster.obj
 0002:0000e628       ??_R2Controller4Web@@8     00481628     WebApi:Controller4Web.obj
 0002:0000e638       ??_R1A@?0A@EA@Controller4Web@@8 00481638     WebApi:Controller4Web.obj
 0002:0000e654       ??_R3Controller4Web@@8     00481654     WebApi:Controller4Web.obj
 0002:0000e664       ??_R4Controller4Web@@6B@   00481664     WebApi:Controller4Web.obj
 0002:0000e678       ??_R2ZoneFault@@8          00481678     WebApi:ZoneFault.obj
 0002:0000e688       ??_R1A@?0A@EA@ZoneFault@@8 00481688     WebApi:ZoneFault.obj
 0002:0000e6a4       ??_R3ZoneFault@@8          004816a4     WebApi:ZoneFault.obj
 0002:0000e6b4       ??_R4ZoneFault@@6B@        004816b4     WebApi:ZoneFault.obj
 0002:0000e6c8       ??_R2Map@@8                004816c8     WebApi:Map.obj
 0002:0000e6d8       ??_R1A@?0A@EA@Map@@8       004816d8     WebApi:Map.obj
 0002:0000e6f4       ??_R3Map@@8                004816f4     WebApi:Map.obj
 0002:0000e704       ??_R4Map@@6B@              00481704     WebApi:Map.obj
 0002:0000e718       ??_R2Sensor@@8             00481718     WebApi:Sensor.obj
 0002:0000e72c       ??_R2JsonSensor@@8         0048172c     WebApi:Sensor.obj
 0002:0000e73c       ??_R1A@?0A@EA@Sensor@@8    0048173c     WebApi:Sensor.obj
 0002:0000e758       ??_R1A@?0A@EA@JsonSensor@@8 00481758     WebApi:Sensor.obj
 0002:0000e774       ??_R3JsonSensor@@8         00481774     WebApi:Sensor.obj
 0002:0000e784       ??_R3Sensor@@8             00481784     WebApi:Sensor.obj
 0002:0000e794       ??_R4Sensor@@6B@           00481794     WebApi:Sensor.obj
 0002:0000e7a8       ??_R2JsonValueString@@8    004817a8     WebApi:JsonString.obj
 0002:0000e7b4       ??_R1A@?0A@EA@JsonValueString@@8 004817b4     WebApi:JsonString.obj
 0002:0000e7d0       ??_R3JsonValueString@@8    004817d0     WebApi:JsonString.obj
 0002:0000e7e0       ??_R4JsonValueString@@6B@  004817e0     WebApi:JsonString.obj
 0002:0000e7f4       ??_R4JsonValueInt@@6B@     004817f4     WebApi:JsonInt.obj
 0002:0000e808       ??_R2JsonValueArray@@8     00481808     WebApi:JsonValueArray.obj
 0002:0000e818       ??_R4JsonValueArray@@6B@   00481818     WebApi:JsonValueArray.obj
 0002:0000e82c       ??_R3JsonValueArray@@8     0048182c     WebApi:JsonValueArray.obj
 0002:0000e83c       ??_R1A@?0A@EA@JsonValueArray@@8 0048183c     WebApi:JsonValueArray.obj
 0002:0000e858       ??_R3JsonValueObjectError@@8 00481858     WebApi:JsonObjectError.obj
 0002:0000e868       ??_R2JsonValueObjectError@@8 00481868     WebApi:JsonObjectError.obj
 0002:0000e87c       ??_R1A@?0A@EA@JsonValueObjectError@@8 0048187c     WebApi:JsonObjectError.obj
 0002:0000e898       ??_R4JsonValueObjectError@@6B@ 00481898     WebApi:JsonObjectError.obj
 0002:0000e8ac       ??_R3JsonValueObjectCause@@8 004818ac     WebApi:JsonObjectCause.obj
 0002:0000e8bc       ??_R4JsonValueObjectCause@@6B@ 004818bc     WebApi:JsonObjectCause.obj
 0002:0000e8d0       ??_R2JsonValueObjectCause@@8 004818d0     WebApi:JsonObjectCause.obj
 0002:0000e8e4       ??_R1A@?0A@EA@JsonValueObjectCause@@8 004818e4     WebApi:JsonObjectCause.obj
 0002:0000e900       ??_R4JsonValueBool@@6B@    00481900     WebApi:JsonBool.obj
 0002:0000e914       ??_R2JsonValueBool@@8      00481914     WebApi:JsonBool.obj
 0002:0000e920       ??_R1A@?0A@EA@JsonValueBool@@8 00481920     WebApi:JsonBool.obj
 0002:0000e93c       ??_R3JsonValueBool@@8      0048193c     WebApi:JsonBool.obj
 0002:0000e94c       ??_R4JsonResponseItem@@6B@ 0048194c     WebApi:JsonResponseItem.obj
 0002:0000e960       ??_R3JsonResponseItem@@8   00481960     WebApi:JsonResponseItem.obj
 0002:0000e970       ??_R2JsonResponseItem@@8   00481970     WebApi:JsonResponseItem.obj
 0002:0000e980       ??_R1A@?0A@EA@JsonResponseItem@@8 00481980     WebApi:JsonResponseItem.obj
 0002:0000e99c       ??_R2AlertRecord@@8        0048199c     WebApi:AlertRecord.obj
 0002:0000e9a8       ??_R2Record@@8             004819a8     WebApi:AlertRecord.obj
 0002:0000e9b0       ??_R1A@?0A@EA@AlertRecord@@8 004819b0     WebApi:AlertRecord.obj
 0002:0000e9cc       ??_R1A@?0A@EA@Record@@8    004819cc     WebApi:AlertRecord.obj
 0002:0000e9e8       ??_R3Record@@8             004819e8     WebApi:AlertRecord.obj
 0002:0000e9f8       ??_R3AlertRecord@@8        004819f8     WebApi:AlertRecord.obj
 0002:0000ea08       ??_R4AlertRecord@@6B@      00481a08     WebApi:AlertRecord.obj
 0002:0000ea1c       ??_R2SerialController@@8   00481a1c     WebApi:SerialController.obj
 0002:0000ea28       ??_R1A@?0A@EA@SerialController@@8 00481a28     WebApi:SerialController.obj
 0002:0000ea44       ??_R3SerialController@@8   00481a44     WebApi:SerialController.obj
 0002:0000ea54       ??_R4SerialController@@6B@ 00481a54     WebApi:SerialController.obj
 0002:0000ea68       ??_R2IpController@@8       00481a68     WebApi:IpController.obj
 0002:0000ea74       ??_R1A@?0A@EA@IpController@@8 00481a74     WebApi:IpController.obj
 0002:0000ea90       ??_R3IpController@@8       00481a90     WebApi:IpController.obj
 0002:0000eaa0       ??_R4IpController@@6B@     00481aa0     WebApi:IpController.obj
 0002:0000eab4       ??_R3JsonResponse@@8       00481ab4     WebApi:JsonResponse.obj
 0002:0000eac4       ??_R4JsonResponse@@6B@     00481ac4     WebApi:JsonResponse.obj
 0002:0000ead8       ??_R1A@?0A@EA@JsonResponse@@8 00481ad8     WebApi:JsonResponse.obj
 0002:0000eaf4       ??_R2JsonResponse@@8       00481af4     WebApi:JsonResponse.obj
 0002:0000eb04       ??_R2JsonRequest@@8        00481b04     WebApi:JsonRequest.obj
 0002:0000eb14       ??_R1A@?0A@EA@JsonRequest@@8 00481b14     WebApi:JsonRequest.obj
 0002:0000eb30       ??_R4JsonRequest@@6B@      00481b30     WebApi:JsonRequest.obj
 0002:0000eb44       ??_R3JsonRequest@@8        00481b44     WebApi:JsonRequest.obj
 0002:0000eb54       ??_R4JsonImporter@@6B@     00481b54     WebApi:JsonImporter.obj
 0002:0000eb68       ??_R3JsonImporter@@8       00481b68     WebApi:JsonImporter.obj
 0002:0000eb78       ??_R1A@?0A@EA@JsonImporter@@8 00481b78     WebApi:JsonImporter.obj
 0002:0000eb94       ??_R2JsonImporter@@8       00481b94     WebApi:JsonImporter.obj
 0002:0000eba4       ??_R3JsonRequestParams@@8  00481ba4     WebApi:JsonRequestParams.obj
 0002:0000ebb4       ??_R1A@?0A@EA@JsonRequestParams@@8 00481bb4     WebApi:JsonRequestParams.obj
 0002:0000ebd0       ??_R2JsonRequestParams@@8  00481bd0     WebApi:JsonRequestParams.obj
 0002:0000ebe0       ??_R4JsonRequestParams@@6B@ 00481be0     WebApi:JsonRequestParams.obj
 0002:0000ebf4       ??_R2JsonRequestFields@@8  00481bf4     WebApi:JsonRequestFields.obj
 0002:0000ec08       ??_R4JsonRequestFields@@6B@ 00481c08     WebApi:JsonRequestFields.obj
 0002:0000ec1c       ??_R1A@?0A@EA@JsonRequestFields@@8 00481c1c     WebApi:JsonRequestFields.obj
 0002:0000ec38       ??_R3JsonRequestFields@@8  00481c38     WebApi:JsonRequestFields.obj
 0002:0000ec48       ??_R2ProgramRecord@@8      00481c48     WebApi:ProgramRecord.obj
 0002:0000ec54       ??_R1A@?0A@EA@ProgramRecord@@8 00481c54     WebApi:ProgramRecord.obj
 0002:0000ec70       ??_R3ProgramRecord@@8      00481c70     WebApi:ProgramRecord.obj
 0002:0000ec80       ??_R4ProgramRecord@@6B@    00481c80     WebApi:ProgramRecord.obj
 0002:0000ec94       ??_R2ZoneRecord@@8         00481c94     WebApi:ZoneRecord.obj
 0002:0000eca0       ??_R1A@?0A@EA@ZoneRecord@@8 00481ca0     WebApi:ZoneRecord.obj
 0002:0000ecbc       ??_R3ZoneRecord@@8         00481cbc     WebApi:ZoneRecord.obj
 0002:0000eccc       ??_R4ZoneRecord@@6B@       00481ccc     WebApi:ZoneRecord.obj
 0002:0000ece0       ??_R2FixtureRecord@@8      00481ce0     WebApi:FixtureRecord.obj
 0002:0000ecec       ??_R1A@?0A@EA@FixtureRecord@@8 00481cec     WebApi:FixtureRecord.obj
 0002:0000ed08       ??_R3FixtureRecord@@8      00481d08     WebApi:FixtureRecord.obj
 0002:0000ed18       ??_R4FixtureRecord@@6B@    00481d18     WebApi:FixtureRecord.obj
 0002:0000ed2c       ??_R2SensorRecord@@8       00481d2c     WebApi:SensorRecord.obj
 0002:0000ed38       ??_R1A@?0A@EA@SensorRecord@@8 00481d38     WebApi:SensorRecord.obj
 0002:0000ed54       ??_R3SensorRecord@@8       00481d54     WebApi:SensorRecord.obj
 0002:0000ed64       ??_R4SensorRecord@@6B@     00481d64     WebApi:SensorRecord.obj
 0002:0000ed78       ??_R2UserRecord@@8         00481d78     WebApi:UserRecord.obj
 0002:0000ed84       ??_R1A@?0A@EA@UserRecord@@8 00481d84     WebApi:UserRecord.obj
 0002:0000eda0       ??_R3UserRecord@@8         00481da0     WebApi:UserRecord.obj
 0002:0000edb0       ??_R4UserRecord@@6B@       00481db0     WebApi:UserRecord.obj
 0002:0000edc4       ??_R2JsonPosition@@8       00481dc4     WebApi:JsonPosition.obj
 0002:0000edd4       ??_R1A@?0A@EA@JsonPosition@@8 00481dd4     WebApi:JsonPosition.obj
 0002:0000edf0       ??_R4JsonPosition@@6B@     00481df0     WebApi:JsonPosition.obj
 0002:0000ee04       ??_R3JsonPosition@@8       00481e04     WebApi:JsonPosition.obj
 0002:0000ee14       ??_R2ProgramStepRecord@@8  00481e14     WebApi:ProgramStepRecord.obj
 0002:0000ee20       ??_R1A@?0A@EA@ProgramStepRecord@@8 00481e20     WebApi:ProgramStepRecord.obj
 0002:0000ee3c       ??_R3ProgramStepRecord@@8  00481e3c     WebApi:ProgramStepRecord.obj
 0002:0000ee4c       ??_R4ProgramStepRecord@@6B@ 00481e4c     WebApi:ProgramStepRecord.obj
 0002:0000ee60       ??_R2JsonValueNetworkMode@@8 00481e60     WebApi:JsonNetworkMode.obj
 0002:0000ee74       ??_R4JsonValueNetworkMode@@6B@ 00481e74     WebApi:JsonNetworkMode.obj
 0002:0000ee88       ??_R3JsonValueNetworkMode@@8 00481e88     WebApi:JsonNetworkMode.obj
 0002:0000ee98       ??_R1A@?0A@EA@JsonValueNetworkMode@@8 00481e98     WebApi:JsonNetworkMode.obj
 0002:0000eeb4       ??_R4JsonWebster@@6B@      00481eb4     WebApi:JsonWebster.obj
 0002:0000eec8       ??_R2JsonValueControllerReset@@8 00481ec8     WebApi:JsonControllerReset.obj
 0002:0000eedc       ??_R1A@?0A@EA@JsonValueControllerReset@@8 00481edc     WebApi:JsonControllerReset.obj
 0002:0000eef8       ??_R3JsonValueControllerReset@@8 00481ef8     WebApi:JsonControllerReset.obj
 0002:0000ef08       ??_R4JsonValueControllerReset@@6B@ 00481f08     WebApi:JsonControllerReset.obj
 0002:0000ef1c       ??_R1A@?0A@EA@JsonColor@@8 00481f1c     WebApi:JsonColor.obj
 0002:0000ef38       ??_R2JsonColor@@8          00481f38     WebApi:JsonColor.obj
 0002:0000ef48       ??_R4JsonColor@@6B@        00481f48     WebApi:JsonColor.obj
 0002:0000ef5c       ??_R3JsonColor@@8          00481f5c     WebApi:JsonColor.obj
 0002:0000ef6c       ??_R1A@?0A@EA@JsonValueControllerMode@@8 00481f6c     WebApi:JsonControllerMode.obj
 0002:0000ef88       ??_R4JsonValueControllerMode@@6B@ 00481f88     WebApi:JsonControllerMode.obj
 0002:0000ef9c       ??_R2JsonValueControllerMode@@8 00481f9c     WebApi:JsonControllerMode.obj
 0002:0000efb0       ??_R3JsonValueControllerMode@@8 00481fb0     WebApi:JsonControllerMode.obj
 0002:0000efc0       ??_R4JsonValueFaultStatus@@6B@ 00481fc0     WebApi:JsonFaultStatus.obj
 0002:0000efd4       ??_R1A@?0A@EA@JsonValueFaultStatus@@8 00481fd4     WebApi:JsonFaultStatus.obj
 0002:0000eff0       ??_R2JsonValueFaultStatus@@8 00481ff0     WebApi:JsonFaultStatus.obj
 0002:0000f004       ??_R3JsonValueFaultStatus@@8 00482004     WebApi:JsonFaultStatus.obj
 0002:0000f014       ??_R2MapRecord@@8          00482014     WebApi:MapRecord.obj
 0002:0000f020       ??_R1A@?0A@EA@MapRecord@@8 00482020     WebApi:MapRecord.obj
 0002:0000f03c       ??_R3MapRecord@@8          0048203c     WebApi:MapRecord.obj
 0002:0000f04c       ??_R4MapRecord@@6B@        0048204c     WebApi:MapRecord.obj
 0002:0000f060       ??_R4JsonSensor@@6B@       00482060     WebApi:JsonSensor.obj
 0002:0000f074       ??_R4Record@@6B@           00482074     WebApi:Record.obj
 0002:0000f088       ??_R3JsonValueRequestOp@@8 00482088     WebApi:JsonRequestOp.obj
 0002:0000f098       ??_R4JsonValueRequestOp@@6B@ 00482098     WebApi:JsonRequestOp.obj
 0002:0000f0ac       ??_R2JsonValueRequestOp@@8 004820ac     WebApi:JsonRequestOp.obj
 0002:0000f0c0       ??_R1A@?0A@EA@JsonValueRequestOp@@8 004820c0     WebApi:JsonRequestOp.obj
 0002:0000f0dc       ??_R1A@?0A@EA@JsonValueRequestType@@8 004820dc     WebApi:JsonRequestType.obj
 0002:0000f0f8       ??_R2JsonValueRequestType@@8 004820f8     WebApi:JsonRequestType.obj
 0002:0000f10c       ??_R3JsonValueRequestType@@8 0048210c     WebApi:JsonRequestType.obj
 0002:0000f11c       ??_R4JsonValueRequestType@@6B@ 0048211c     WebApi:JsonRequestType.obj
 0002:0000f130       ??_R3JsonValueRequestItem@@8 00482130     WebApi:JsonRequestItem.obj
 0002:0000f140       ??_R2JsonValueRequestItem@@8 00482140     WebApi:JsonRequestItem.obj
 0002:0000f154       ??_R4JsonValueRequestItem@@6B@ 00482154     WebApi:JsonRequestItem.obj
 0002:0000f168       ??_R1A@?0A@EA@JsonValueRequestItem@@8 00482168     WebApi:JsonRequestItem.obj
 0002:0000f184       ??_R2JsonProgram@@8        00482184     WebApi:JsonProgram.obj
 0002:0000f194       ??_R3JsonProgram@@8        00482194     WebApi:JsonProgram.obj
 0002:0000f1a4       ??_R1A@?0A@EA@JsonProgram@@8 004821a4     WebApi:JsonProgram.obj
 0002:0000f1c0       ??_R4JsonProgram@@6B@      004821c0     WebApi:JsonProgram.obj
 0002:0000f1d4       ??_R3JsonController@@8     004821d4     WebApi:JsonController.obj
 0002:0000f1e4       ??_R4JsonController@@6B@   004821e4     WebApi:JsonController.obj
 0002:0000f1f8       ??_R1A@?0A@EA@JsonController@@8 004821f8     WebApi:JsonController.obj
 0002:0000f214       ??_R2JsonController@@8     00482214     WebApi:JsonController.obj
 0002:0000f224       ??_R4JsonFixture@@6B@      00482224     WebApi:JsonFixture.obj
 0002:0000f238       ??_R3JsonFixture@@8        00482238     WebApi:JsonFixture.obj
 0002:0000f248       ??_R1A@?0A@EA@JsonFixture@@8 00482248     WebApi:JsonFixture.obj
 0002:0000f264       ??_R2JsonFixture@@8        00482264     WebApi:JsonFixture.obj
 0002:0000f274       ??_R3JsonZone@@8           00482274     WebApi:JsonZone.obj
 0002:0000f284       ??_R2JsonZone@@8           00482284     WebApi:JsonZone.obj
 0002:0000f294       ??_R1A@?0A@EA@JsonZone@@8  00482294     WebApi:JsonZone.obj
 0002:0000f2b0       ??_R4JsonZone@@6B@         004822b0     WebApi:JsonZone.obj
 0002:0000f2c4       ??_R2kProgramStep@@8       004822c4     WebApi:kProgramStep.obj
 0002:0000f2d8       ??_R2JsonProgramStep@@8    004822d8     WebApi:kProgramStep.obj
 0002:0000f2e8       ??_R1A@?0A@EA@kProgramStep@@8 004822e8     WebApi:kProgramStep.obj
 0002:0000f304       ??_R1A@?0A@EA@JsonProgramStep@@8 00482304     WebApi:kProgramStep.obj
 0002:0000f320       ??_R3JsonProgramStep@@8    00482320     WebApi:kProgramStep.obj
 0002:0000f330       ??_R3kProgramStep@@8       00482330     WebApi:kProgramStep.obj
 0002:0000f340       ??_R4kProgramStep@@6B@     00482340     WebApi:kProgramStep.obj
 0002:0000f354       ??_R4JsonProgramStep@@6B@  00482354     WebApi:JsonProgramStep.obj
 0002:0000f368       ??_R1A@?0A@EA@JsonValueProgramStepMode@@8 00482368     WebApi:JsonProgramStepMode.obj
 0002:0000f384       ??_R3JsonValueProgramStepMode@@8 00482384     WebApi:JsonProgramStepMode.obj
 0002:0000f394       ??_R2JsonValueProgramStepMode@@8 00482394     WebApi:JsonProgramStepMode.obj
 0002:0000f3a8       ??_R4JsonValueProgramStepMode@@6B@ 004823a8     WebApi:JsonProgramStepMode.obj
 0002:0000f3bc       ??_R4bad_exception@std@@6B@ 004823bc     LIBCMT:frame.obj
 0002:0000f3d0       ??_R3bad_exception@std@@8  004823d0     LIBCMT:frame.obj
 0002:0000f3e0       ??_R2bad_exception@std@@8  004823e0     LIBCMT:frame.obj
 0002:0000f3ec       ??_R1A@?0A@EA@bad_exception@std@@8 004823ec     LIBCMT:frame.obj
 0002:0000f410       ___safe_se_handler_table   00482410     <linker-defined>
 0002:0000f82c       ___rtc_iaa                 0048282c     LIBCMT:initsect.obj
 0002:0000f830       ___rtc_izz                 00482830     LIBCMT:initsect.obj
 0002:0000f834       ___rtc_taa                 00482834     LIBCMT:initsect.obj
 0002:0000f838       ___rtc_tzz                 00482838     LIBCMT:initsect.obj
 0002:00013b44       __TI2?AVbad_alloc@std@@    00486b44     LIBCMT:new.obj
 0002:00013b54       __CTA2?AVbad_alloc@std@@   00486b54     LIBCMT:new.obj
 0002:00013b60       __CT??_R0?AVbad_alloc@std@@@8??0bad_alloc@std@@QAE@ABV01@@Z12 00486b60     LIBCMT:new.obj
 0002:00013b7c       __CT??_R0?AVexception@std@@@8??0exception@std@@QAE@ABV01@@Z12 00486b7c     LIBCMT:new.obj
 0002:00014344       __TI2?AVbad_exception@std@@ 00487344     LIBCMT:frame.obj
 0002:00014354       __CTA2?AVbad_exception@std@@ 00487354     LIBCMT:frame.obj
 0002:00014360       __CT??_R0?AVbad_exception@std@@@8??0bad_exception@std@@QAE@ABV01@@Z12 00487360     LIBCMT:frame.obj
 0002:0001437c       __IMPORT_DESCRIPTOR_libgo  0048737c     libgo:libgo.dll
 0002:00014390       __IMPORT_DESCRIPTOR_WS2_32 00487390     ws2_32:WS2_32.dll
 0002:000143a4       __IMPORT_DESCRIPTOR_KERNEL32 004873a4     kernel32:KERNEL32.dll
 0002:000143b8       __IMPORT_DESCRIPTOR_USER32 004873b8     user32:USER32.dll
 0002:000143cc       __IMPORT_DESCRIPTOR_ADVAPI32 004873cc     advapi32:ADVAPI32.dll
 0002:000143e0       __IMPORT_DESCRIPTOR_IPHLPAPI 004873e0     iphlpapi:IPHLPAPI.DLL
 0002:000143f4       __NULL_IMPORT_DESCRIPTOR   004873f4     libgo:libgo.dll
 0003:00000010       __iob                      00489010     LIBCMT:_file.obj
 0003:00000290       ___security_cookie         00489290     LIBCMT:gs_cookie.obj
 0003:00000294       ___security_cookie_complement 00489294     LIBCMT:gs_cookie.obj
 0003:000002b8       __timezone                 004892b8     LIBCMT:timeset.obj
 0003:000002bc       __daylight                 004892bc     LIBCMT:timeset.obj
 0003:000002c0       __dstbias                  004892c0     LIBCMT:timeset.obj
 0003:00000348       __tzname                   00489348     LIBCMT:timeset.obj
 0003:000005e4       __cfltcvt_tab              004895e4     LIBCMT:cmiscdat.obj
 0003:00000610       __mbctype                  00489610     LIBCMT:mbctype.obj
 0003:00000718       __mbcasemap                00489718     LIBCMT:mbctype.obj
 0003:00000818       ___initialmbcinfo          00489818     LIBCMT:mbctype.obj
 0003:00000a3c       ___ptmbcinfo               00489a3c     LIBCMT:mbctype.obj
 0003:00000b30       ___nullstring              00489b30     LIBCMT:output.obj
 0003:00000b34       ___wnullstring             00489b34     LIBCMT:output.obj
 0003:00000b38       ___badioinfo               00489b38     LIBCMT:ioinit.obj
 0003:00000b78       ___flsindex                00489b78     LIBCMT:tidtable.obj
 0003:00000b7c       ___mb_cur_max              00489b7c     LIBCMT:nlsdata.obj
 0003:00000b80       ___wclocalestr             00489b80     LIBCMT:nlsdata.obj
 0003:00000b88       ___lc_time_c               00489b88     LIBCMT:nlsdata.obj
 0003:00000cec       ___ptlocinfo               00489cec     LIBCMT:nlsdata.obj
 0003:00000cf0       ___initiallocinfo          00489cf0     LIBCMT:nlsdata.obj
 0003:00000da8       ___initiallocalestructinfo 00489da8     LIBCMT:nlsdata.obj
 0003:00000db0       ___globallocalestatus      00489db0     LIBCMT:glstatus.obj
 0003:00000dc0       ___isa_enabled             00489dc0     LIBCMT:cpu_disp.obj
 0003:00000dd0       ___abort_behavior          00489dd0     LIBCMT:abort.obj
 0003:00000de0       __days                     00489de0     LIBCMT:days.obj
 0003:00000e14       __lpdays                   00489e14     LIBCMT:days.obj
 0003:00000e50       ___lconv                   00489e50     LIBCMT:lconv.obj
 0003:00000e54       ___lconv_static_decimal    00489e54     LIBCMT:lconv.obj
 0003:00000e58       ___lconv_c                 00489e58     LIBCMT:lconv.obj
 0003:00000ea8       ___lconv_static_W_decimal  00489ea8     LIBCMT:lconv.obj
 0003:00000eac       __pctype                   00489eac     LIBCMT:ctype.obj
 0003:00000eb0       __pwctype                  00489eb0     LIBCMT:ctype.obj
 0003:00000eb4       __fltused                  00489eb4     LIBCMT:fpinit.obj
 0003:00000eb8       __ldused                   00489eb8     LIBCMT:fpinit.obj
 0003:00000ec0       __NLG_Destination          00489ec0     LIBCMT:exsup.obj
 0003:00000ed0       __HUGE                     00489ed0     LIBCMT:huge.obj
 0003:00000f08       __lookuptrailbytes         00489f08     LIBCMT:read.obj
 0003:00001008       __confh                    0048a008     LIBCMT:initcon.obj
 0003:00001010       __pow10pos                 0048a010     LIBCMT:constpow.obj
 0003:00001170       __pow10neg                 0048a170     LIBCMT:constpow.obj
 0003:0000139c       ?m_status@Controller@@1HA  0048a39c     WebApi:Controller.obj
 0003:000013c0       ?jfOp@@3U_NAMED_ENUM@@A    0048a3c0     WebApi:LumiGrowJson.obj
 0003:000013c8       ?m_hTable@AlertRecord@@1PAXA 0048a3c8     WebApi:AlertRecord.obj
 0003:000013cc       ?m_nextId@AlertRecord@@1HA 0048a3cc     WebApi:AlertRecord.obj
 0003:000013d0       ?m_nRecords@AlertRecord@@1HA 0048a3d0     WebApi:AlertRecord.obj
 0003:000013d4       ?m_hTable@ProgramRecord@@1PAXA 0048a3d4     WebApi:ProgramRecord.obj
 0003:000013d8       ?m_nextId@ProgramRecord@@1HA 0048a3d8     WebApi:ProgramRecord.obj
 0003:000013dc       ?m_nRecords@ProgramRecord@@1HA 0048a3dc     WebApi:ProgramRecord.obj
 0003:000013e0       ?m_hTable@ZoneRecord@@1PAXA 0048a3e0     WebApi:ZoneRecord.obj
 0003:000013e4       ?m_nextId@ZoneRecord@@1HA  0048a3e4     WebApi:ZoneRecord.obj
 0003:000013e8       ?m_nRecords@ZoneRecord@@1HA 0048a3e8     WebApi:ZoneRecord.obj
 0003:000013ec       ?m_hTable@FixtureRecord@@1PAXA 0048a3ec     WebApi:FixtureRecord.obj
 0003:000013f0       ?m_nextId@FixtureRecord@@1HA 0048a3f0     WebApi:FixtureRecord.obj
 0003:000013f4       ?m_nRecords@FixtureRecord@@1HA 0048a3f4     WebApi:FixtureRecord.obj
 0003:000013f8       ?runStatusAlertList@@3PAU_NAMED_ENUM@@A 0048a3f8     WebApi:FixtureRecord.obj
 0003:00001400       ?runStateAlertList@@3PAU_NAMED_ENUM@@A 0048a400     WebApi:FixtureRecord.obj
 0003:00001438       ?m_hTable@SensorRecord@@1PAXA 0048a438     WebApi:SensorRecord.obj
 0003:0000143c       ?m_nextId@SensorRecord@@1HA 0048a43c     WebApi:SensorRecord.obj
 0003:00001440       ?faultAlertList@@3PAU_NAMED_ENUM@@A 0048a440     WebApi:FixtureRecord.obj
 0003:00001460       ?m_nRecords@SensorRecord@@1HA 0048a460     WebApi:SensorRecord.obj
 0003:00001464       ?m_hTable@UserRecord@@1PAXA 0048a464     WebApi:UserRecord.obj
 0003:00001468       ?m_nextId@UserRecord@@1HA  0048a468     WebApi:UserRecord.obj
 0003:0000146c       ?m_nRecords@UserRecord@@1HA 0048a46c     WebApi:UserRecord.obj
 0003:00001470       ?m_hTable@ProgramStepRecord@@0PAXA 0048a470     WebApi:ProgramStepRecord.obj
 0003:00001474       ?m_nextId@ProgramStepRecord@@0HA 0048a474     WebApi:ProgramStepRecord.obj
 0003:00001478       ?m_nRecords@ProgramStepRecord@@0HA 0048a478     WebApi:ProgramStepRecord.obj
 0003:0000147c       ?m_hTable@MapRecord@@1PAXA 0048a47c     WebApi:MapRecord.obj
 0003:00001480       ?m_dnsName@Ethernet@@2PADA 0048a480     WebApi:Ethernet.obj
 0003:00001580       ?m_nextId@MapRecord@@1HA   0048a580     WebApi:MapRecord.obj
 0003:00001584       ?m_nRecords@MapRecord@@1HA 0048a584     WebApi:MapRecord.obj
 0003:00001588       ?m_myDetailsNotFound@JsonObject@@0PAU_JSON_FIELD@@A 0048a588     WebApi:JsonObject.obj
 0003:00001594       ?m_myDetailsAll@JsonObject@@0PAU_JSON_FIELD@@A 0048a594     WebApi:JsonObject.obj
 0003:000015c4       ?m_myDetails@AuthToken@@0PAU_JSON_FIELD@@A 0048a5c4     WebApi:AuthToken.obj
 0003:000015d0       ?m_myDetails@Alert@@0PAU_JSON_FIELD@@A 0048a5d0     WebApi:Alert.obj
 0003:00001624       ?m_myDetails@UserWrapper@@0PAU_JSON_FIELD@@A 0048a624     WebApi:User.obj
 0003:00001630       ?m_myQueryDetails@Alert@@0PAU_JSON_FIELD@@A 0048a630     WebApi:Alert.obj
 0003:00001678       ?m_myRestrictions@Alert@@0QBVRestriction@@B 0048a678     WebApi:Alert.obj
 0003:000016a8       ?m_reconnectThreadObj@Controller@@1VThread@@A 0048a6a8     WebApi:Controller.obj
 0003:000016b8       ?m_clockSkewThreadObj@Controller@@1VThread@@A 0048a6b8     WebApi:Controller.obj
 0003:000016c8       ?m_master@DatabaseManager@@1V1@A 0048a6c8     WebApi:DatabaseManager.obj
 0003:000016f0       ?m_myDetails@User@@0PAU_JSON_FIELD@@A 0048a6f0     WebApi:User.obj
 0003:00001750       ?m_myRestrictions@User@@0QBVRestriction@@B 0048a750     WebApi:User.obj
 0003:000017a4       ?m_myDetails@Program@@0QBU_JSON_FIELD@@B 0048a7a4     WebApi:Program.obj
 0003:000017c8       ?m_myDetails@Zone@@0QBU_JSON_FIELD@@B 0048a7c8     WebApi:Zone.obj
 0003:00001888       ?m_myRestrictions@Zone@@0QBVRestriction@@B 0048a888     WebApi:Zone.obj
 0003:000018b8       ?m_myDetails@Fixture@@0QBU_JSON_FIELD@@B 0048a8b8     WebApi:Fixture.obj
 0003:00001984       ?m_myRestrictions@Fixture@@0QBVRestriction@@B 0048a984     WebApi:Fixture.obj
 0003:000019b4       ?m_myRestrictions@Program@@0QBVRestriction@@B 0048a9b4     WebApi:Program.obj
 0003:000019e4       ?m_myDetails@RfConfig@@0QBU_JSON_FIELD@@B 0048a9e4     WebApi:RfConfig.obj
 0003:000019f0       ?m_myDetails@ProgramStep@@0QBU_JSON_FIELD@@B 0048a9f0     WebApi:ProgramStep.obj
 0003:00001a68       ?m_myRestrictions@ProgramStep@@0QBVRestriction@@B 0048aa68     WebApi:ProgramStep.obj
 0003:00001a98       ?m_myDetails@Network@@0PAU_JSON_FIELD@@A 0048aa98     WebApi:Network.obj
 0003:00001af8       ?m_myRestrictions@Webster@@0QBVRestriction@@B 0048aaf8     WebApi:Webster.obj
 0003:00001b10       ?m_myDetails@Controller4Web@@0QBU_JSON_FIELD@@B 0048ab10     WebApi:Controller4Web.obj
 0003:00001b64       ?m_myRestrictions@Controller4Web@@0QBVRestriction@@B 0048ab64     WebApi:Controller4Web.obj
 0003:00001b7c       ?m_myDetails@ZoneFault@@0QBU_JSON_FIELD@@B 0048ab7c     WebApi:ZoneFault.obj
 0003:00001b94       ?m_myRestrictions@ZoneFault@@0QBVRestriction@@B 0048ab94     WebApi:ZoneFault.obj
 0003:00001bc4       ?m_myRequestHeaderDetails@JsonRequest@@1QBU_JSON_FIELD@@B 0048abc4     WebApi:JsonRequest.obj
 0003:00001be8       ?m_myDetails@Map@@0QBU_JSON_FIELD@@B 0048abe8     WebApi:Map.obj
 0003:00001c3c       ?m_myRestrictions@Map@@0QBVRestriction@@B 0048ac3c     WebApi:Map.obj
 0003:00001c6c       ?m_myRestrictions@Sensor@@0QBVRestriction@@B 0048ac6c     WebApi:Sensor.obj
 0003:00001c9c       ?m_myEnum@JsonValueObjectError@@0QBU_NAMED_ENUM@@B 0048ac9c     WebApi:JsonObjectError.obj
 0003:00001cbc       ?m_myEnum@JsonValueObjectCause@@0QBU_NAMED_ENUM@@B 0048acbc     WebApi:JsonObjectCause.obj
 0003:00001cec       ?m_myDetails@JsonResponse@@1QBU_JSON_FIELD@@B 0048acec     WebApi:JsonResponse.obj
 0003:00001d1c       ?m_myRequestDetails@JsonRequest@@1QBU_JSON_FIELD@@B 0048ad1c     WebApi:JsonRequest.obj
 0003:00001d58       ?m_myRequestParamsLimitedDetails@JsonRequest@@1QBU_JSON_FIELD@@B 0048ad58     WebApi:JsonRequest.obj
 0003:00001dac       ?m_myDetails@JsonImporter@@1QBU_JSON_FIELD@@B 0048adac     WebApi:JsonImporter.obj
 0003:00001de8       ?m_myRequestLimitedDetails@JsonRequest@@1QBU_JSON_FIELD@@B 0048ade8     WebApi:JsonRequest.obj
 0003:00001e30       ?m_myRequestCountLimitedDetails@JsonRequest@@1QBU_JSON_FIELD@@B 0048ae30     WebApi:JsonRequest.obj
 0003:00001e84       ?m_myDetails@JsonProgram@@1PAU_JSON_FIELD@@A 0048ae84     WebApi:JsonProgram.obj
 0003:00001ec0       ?m_myRequestAllDetails@JsonRequest@@1QBU_JSON_FIELD@@B 0048aec0     WebApi:JsonRequest.obj
 0003:00001f20       ?m_myRequestParamsDetails@JsonRequest@@1QBU_JSON_FIELD@@B 0048af20     WebApi:JsonRequest.obj
 0003:00001f68       ?m_myRequestCountDetails@JsonRequest@@1QBU_JSON_FIELD@@B 0048af68     WebApi:JsonRequest.obj
 0003:00001fb0       ?m_tableSeed@ProgramRecord@@1QBU_RECORD_V4@1@B 0048afb0     WebApi:ProgramRecord.obj
 0003:00002df4       ?m_myDetails@JsonPosition@@1PAU_JSON_FIELD@@A 0048bdf4     WebApi:JsonPosition.obj
 0003:00002e0c       ?m_myDetails@JsonProgramStep@@1PAU_JSON_FIELD@@A 0048be0c     WebApi:JsonProgramStep.obj
 0003:00002e48       ?m_tableSeed@ProgramStepRecord@@0QBU_RECORD_V3@1@B 0048be48     WebApi:ProgramStepRecord.obj
 0003:000034d8       ?m_myEnum@JsonValueNetworkMode@@0QBU_NAMED_ENUM@@B 0048c4d8     WebApi:JsonNetworkMode.obj
 0003:000034f0       ?m_myDetails@JsonWebster@@1QBU_JSON_FIELD@@B 0048c4f0     WebApi:JsonWebster.obj
 0003:00003538       ?m_myEnum@JsonValueControllerReset@@0QBU_NAMED_ENUM@@B 0048c538     WebApi:JsonControllerReset.obj
 0003:00003550       ?m_myDetails@JsonColor@@1PAU_JSON_FIELD@@A 0048c550     WebApi:JsonColor.obj
 0003:00003598       ?m_myEnum@JsonValueControllerMode@@0QBU_NAMED_ENUM@@B 0048c598     WebApi:JsonControllerMode.obj
 0003:000035c0       ?m_myEnum@JsonValueFaultStatus@@0QBU_NAMED_ENUM@@B 0048c5c0     WebApi:JsonFaultStatus.obj
 0003:000035e0       ?m_myDetails@JsonSensor@@1QBU_JSON_FIELD@@B 0048c5e0     WebApi:JsonSensor.obj
 0003:000036c4       ?m_myEnum@JsonValueRequestOp@@0QBU_NAMED_ENUM@@B 0048c6c4     WebApi:JsonRequestOp.obj
 0003:000036e4       ?m_myEnum@JsonValueRequestType@@0QBU_NAMED_ENUM@@B 0048c6e4     WebApi:JsonRequestType.obj
 0003:00003714       ?m_myEnum@JsonValueRequestItem@@0QBU_NAMED_ENUM@@B 0048c714     WebApi:JsonRequestItem.obj
 0003:00003750       ?m_myDetails@JsonController@@1PAU_JSON_FIELD@@A 0048c750     WebApi:JsonController.obj
 0003:00003808       ?m_myDetails@JsonFixture@@1QBU_JSON_FIELD@@B 0048c808     WebApi:JsonFixture.obj
 0003:00003920       ?m_myDetails@JsonZone@@1PAU_JSON_FIELD@@A 0048c920     WebApi:JsonZone.obj
 0003:000039bc       ?m_myEnum@JsonValueProgramStepMode@@0QBU_NAMED_ENUM@@B 0048c9bc     WebApi:JsonProgramStepMode.obj
 0003:000039f0       ??_R0?AVtype_info@@@8      0048c9f0     LIBCMT:typinfo.obj
 0003:00003a08       ??_R0?AVbad_alloc@std@@@8  0048ca08     LIBCMT:new.obj
 0003:00003a24       ??_R0?AVexception@std@@@8  0048ca24     LIBCMT:new.obj
 0003:00003a40       ??_R0?AVbad_cast@std@@@8   0048ca40     LIBCMT:stdexcpt.obj
 0003:00003a5c       ??_R0?AVbad_typeid@std@@@8 0048ca5c     LIBCMT:stdexcpt.obj
 0003:00003a7c       ??_R0?AV__non_rtti_object@std@@@8 0048ca7c     LIBCMT:stdexcpt.obj
 0003:00003aa0       ??_R0?AVDNameNode@@@8      0048caa0     LIBCMT:undname.obj
 0003:00003ab8       ??_R0?AVcharNode@@@8       0048cab8     LIBCMT:undname.obj
 0003:00003ad0       ??_R0?AVpcharNode@@@8      0048cad0     LIBCMT:undname.obj
 0003:00003ae8       ??_R0?AVpDNameNode@@@8     0048cae8     LIBCMT:undname.obj
 0003:00003b04       ??_R0?AVDNameStatusNode@@@8 0048cb04     LIBCMT:undname.obj
 0003:00003b24       ??_R0?AVpairNode@@@8       0048cb24     LIBCMT:undname.obj
 0003:00003b3c       ??_R0?AVJsonValueEnum@@@8  0048cb3c     WebApi:JsonEnum.obj
 0003:00003b58       ??_R0?AVJsonValueInt@@@8   0048cb58     WebApi:JsonEnum.obj
 0003:00003b74       ??_R0?AVJsonValue@@@8      0048cb74     WebApi:JsonEnum.obj
 0003:00003b8c       ??_R0?AVJsonObject@@@8     0048cb8c     WebApi:JsonObject.obj
 0003:00003ba8       ??_R0?AVAlert@@@8          0048cba8     WebApi:Alert.obj
 0003:00003bbc       ??_R0?AVController@@@8     0048cbbc     WebApi:Controller.obj
 0003:00003bd8       ??_R0?AVAuthToken@@@8      0048cbd8     WebApi:AuthToken.obj
 0003:00003bf0       ??_R0?AVError@@@8          0048cbf0     WebApi:Error.obj
 0003:00003c04       ??_R0?AVUserWrapper@@@8    0048cc04     WebApi:User.obj
 0003:00003c20       ??_R0?AVUser@@@8           0048cc20     WebApi:User.obj
 0003:00003c34       ??_R0?AVZone@@@8           0048cc34     WebApi:Zone.obj
 0003:00003c48       ??_R0?AVFixture@@@8        0048cc48     WebApi:Fixture.obj
 0003:00003c60       ??_R0?AVProgram@@@8        0048cc60     WebApi:Program.obj
 0003:00003c78       ??_R0?AVProgramStep@@@8    0048cc78     WebApi:ProgramStep.obj
 0003:00003c94       ??_R0?AVNetwork@@@8        0048cc94     WebApi:Network.obj
 0003:00003cac       ??_R0?AVRfConfig@@@8       0048ccac     WebApi:RfConfig.obj
 0003:00003cc4       ??_R0?AVJsonWebster@@@8    0048ccc4     WebApi:Webster.obj
 0003:00003ce0       ??_R0?AVWebster@@@8        0048cce0     WebApi:Webster.obj
 0003:00003cf8       ??_R0?AVController4Web@@@8 0048ccf8     WebApi:Controller4Web.obj
 0003:00003d18       ??_R0?AVZoneFault@@@8      0048cd18     WebApi:ZoneFault.obj
 0003:00003d30       ??_R0?AVMap@@@8            0048cd30     WebApi:Map.obj
 0003:00003d44       ??_R0?AVJsonSensor@@@8     0048cd44     WebApi:Sensor.obj
 0003:00003d60       ??_R0?AVSensor@@@8         0048cd60     WebApi:Sensor.obj
 0003:00003d78       ??_R0?AVJsonValueString@@@8 0048cd78     WebApi:JsonString.obj
 0003:00003d98       ??_R0?AVJsonValueArray@@@8 0048cd98     WebApi:JsonValueArray.obj
 0003:00003db8       ??_R0?AVJsonValueObjectError@@@8 0048cdb8     WebApi:JsonObjectError.obj
 0003:00003ddc       ??_R0?AVJsonValueObjectCause@@@8 0048cddc     WebApi:JsonObjectCause.obj
 0003:00003e00       ??_R0?AVJsonValueBool@@@8  0048ce00     WebApi:JsonBool.obj
 0003:00003e1c       ??_R0?AVJsonResponseItem@@@8 0048ce1c     WebApi:JsonResponseItem.obj
 0003:00003e3c       ??_R0?AVRecord@@@8         0048ce3c     WebApi:AlertRecord.obj
 0003:00003e54       ??_R0?AVAlertRecord@@@8    0048ce54     WebApi:AlertRecord.obj
 0003:00003e70       ??_R0?AVSerialController@@@8 0048ce70     WebApi:SerialController.obj
 0003:00003e90       ??_R0?AVIpController@@@8   0048ce90     WebApi:IpController.obj
 0003:00003eac       ??_R0?AVJsonResponse@@@8   0048ceac     WebApi:JsonResponse.obj
 0003:00003ec8       ??_R0?AVJsonRequest@@@8    0048cec8     WebApi:JsonRequest.obj
 0003:00003ee4       ??_R0?AVJsonImporter@@@8   0048cee4     WebApi:JsonImporter.obj
 0003:00003f00       ??_R0?AVJsonRequestParams@@@8 0048cf00     WebApi:JsonRequestParams.obj
 0003:00003f20       ??_R0?AVJsonRequestFields@@@8 0048cf20     WebApi:JsonRequestFields.obj
 0003:00003f40       ??_R0?AVProgramRecord@@@8  0048cf40     WebApi:ProgramRecord.obj
 0003:00003f5c       ??_R0?AVZoneRecord@@@8     0048cf5c     WebApi:ZoneRecord.obj
 0003:00003f78       ??_R0?AVFixtureRecord@@@8  0048cf78     WebApi:FixtureRecord.obj
 0003:00003f94       ??_R0?AVSensorRecord@@@8   0048cf94     WebApi:SensorRecord.obj
 0003:00003fb0       ??_R0?AVUserRecord@@@8     0048cfb0     WebApi:UserRecord.obj
 0003:00003fcc       ??_R0?AVJsonPosition@@@8   0048cfcc     WebApi:JsonPosition.obj
 0003:00003fe8       ??_R0?AVProgramStepRecord@@@8 0048cfe8     WebApi:ProgramStepRecord.obj
 0003:00004008       ??_R0?AVJsonValueNetworkMode@@@8 0048d008     WebApi:JsonNetworkMode.obj
 0003:0000402c       ??_R0?AVJsonValueControllerReset@@@8 0048d02c     WebApi:JsonControllerReset.obj
 0003:00004054       ??_R0?AVJsonColor@@@8      0048d054     WebApi:JsonColor.obj
 0003:0000406c       ??_R0?AVJsonValueControllerMode@@@8 0048d06c     WebApi:JsonControllerMode.obj
 0003:00004094       ??_R0?AVJsonValueFaultStatus@@@8 0048d094     WebApi:JsonFaultStatus.obj
 0003:000040b8       ??_R0?AVMapRecord@@@8      0048d0b8     WebApi:MapRecord.obj
 0003:000040d0       ??_R0?AVJsonValueRequestOp@@@8 0048d0d0     WebApi:JsonRequestOp.obj
 0003:000040f4       ??_R0?AVJsonValueRequestType@@@8 0048d0f4     WebApi:JsonRequestType.obj
 0003:00004118       ??_R0?AVJsonValueRequestItem@@@8 0048d118     WebApi:JsonRequestItem.obj
 0003:0000413c       ??_R0?AVJsonProgram@@@8    0048d13c     WebApi:JsonProgram.obj
 0003:00004158       ??_R0?AVJsonController@@@8 0048d158     WebApi:JsonController.obj
 0003:00004178       ??_R0?AVJsonFixture@@@8    0048d178     WebApi:JsonFixture.obj
 0003:00004194       ??_R0?AVJsonZone@@@8       0048d194     WebApi:JsonZone.obj
 0003:000041ac       ??_R0?AVJsonProgramStep@@@8 0048d1ac     WebApi:kProgramStep.obj
 0003:000041cc       ??_R0?AVkProgramStep@@@8   0048d1cc     WebApi:kProgramStep.obj
 0003:000041e8       ??_R0?AVJsonValueProgramStepMode@@@8 0048d1e8     WebApi:JsonProgramStepMode.obj
 0003:00004210       ??_R0?AVbad_exception@std@@@8 0048d210     LIBCMT:frame.obj
 0003:00004244       __C_Exit_Done              0048d244     LIBCMT:crt0dat.obj
 0003:00004248       ___argc                    0048d248     LIBCMT:crt0dat.obj
 0003:0000424c       ___argv                    0048d24c     LIBCMT:crt0dat.obj
 0003:00004250       ___wargv                   0048d250     LIBCMT:crt0dat.obj
 0003:00004254       __environ                  0048d254     LIBCMT:crt0dat.obj
 0003:00004258       __wenviron                 0048d258     LIBCMT:crt0dat.obj
 0003:0000425c       __pgmptr                   0048d25c     LIBCMT:crt0dat.obj
 0003:00004260       __wpgmptr                  0048d260     LIBCMT:crt0dat.obj
 0003:00004264       __umaskval                 0048d264     LIBCMT:crt0dat.obj
 0003:00004268       __exitflag                 0048d268     LIBCMT:crt0dat.obj
 0003:0000426c       __C_Termination_Done       0048d26c     LIBCMT:crt0dat.obj
 0003:00004270       ___winitenv                0048d270     LIBCMT:crt0dat.obj
 0003:00004274       ___initenv                 0048d274     LIBCMT:crt0dat.obj
 0003:00004278       __cflush                   0048d278     LIBCMT:_file.obj
 0003:00004280       __fmode                    0048d280     LIBCMT:txtmode.obj
 0003:00004284       __aenvptr                  0048d284     LIBCMT:crt0.obj
 0003:00004288       __wenvptr                  0048d288     LIBCMT:crt0.obj
 0003:0000466c       ___pInvalidArgHandler      0048d66c     LIBCMT:invarg.obj
 0003:000047c0       ___app_type                0048d7c0     LIBCMT:crt0msg.obj
 0003:00004df0       __maxwait                  0048ddf0     LIBCMT:crtheap.obj
 0003:00004df4       ?__pInconsistency@@3P6AXXZA 0048ddf4     LIBCMT:hooks.obj
 0003:00004df8       ?_pnhHeap@@3P6AHI@ZA       0048ddf8     LIBCMT:handler.obj
 0003:00004dfc       ___pPurecall               0048ddfc     LIBCMT:inithelp.obj
 0003:00004e18       ___mbcodepage              0048de18     LIBCMT:mbctype.obj
 0003:00004e1c       ___ismbcodepage            0048de1c     LIBCMT:mbctype.obj
 0003:00004e20       ___mbulinfo                0048de20     LIBCMT:mbctype.obj
 0003:00004e2c       ___mblocalename            0048de2c     LIBCMT:mbctype.obj
 0003:00004e34       __stdbuf                   0048de34     LIBCMT:_sftbuf.obj
 0003:00004e40       ___pioinfo                 0048de40     LIBCMT:ioinit.obj
 0003:00004f40       __crtheap                  0048df40     LIBCMT:heapinit.obj
 0003:00005050       ___error_mode              0048e050     LIBCMT:errmode.obj
 0003:00005054       ___locale_changed          0048e054     LIBCMT:wsetloca.obj
 0003:00005058       ___isa_available           0048e058     LIBCMT:cpu_disp.obj
 0003:0000505c       ___favor                   0048e05c     LIBCMT:cpu_disp.obj
 0003:00005080       ___lconv_static_null       0048e080     LIBCMT:lconv.obj
 0003:00005084       ___lconv_static_W_null     0048e084     LIBCMT:lconv.obj
 0003:00005088       ___fastflag                0048e088     LIBCMT:fpinit.obj
 0003:0000508c       ?pArgList@UnDecorator@@0PAVReplicator@@A 0048e08c     LIBCMT:undname.obj
 0003:00005090       ?pZNameList@UnDecorator@@0PAVReplicator@@A 0048e090     LIBCMT:undname.obj
 0003:00005094       ?pTemplateArgList@UnDecorator@@0PAVReplicator@@A 0048e094     LIBCMT:undname.obj
 0003:00005098       ?gName@UnDecorator@@0PBDB  0048e098     LIBCMT:undname.obj
 0003:0000509c       ?name@UnDecorator@@0PBDB   0048e09c     LIBCMT:undname.obj
 0003:000050a0       ?outputString@UnDecorator@@0PADA 0048e0a0     LIBCMT:undname.obj
 0003:000050a4       ?maxStringLength@UnDecorator@@0HA 0048e0a4     LIBCMT:undname.obj
 0003:000050a8       ?disableFlags@UnDecorator@@0KA 0048e0a8     LIBCMT:undname.obj
 0003:000050ac       ?fExplicitTemplateParams@UnDecorator@@0_NA 0048e0ac     LIBCMT:undname.obj
 0003:000050ad       ?fGetTemplateArgumentList@UnDecorator@@0_NA 0048e0ad     LIBCMT:undname.obj
 0003:000050b0       ?m_pGetParameter@UnDecorator@@0P6APADJ@ZA 0048e0b0     LIBCMT:undname.obj
 0003:000050c8       ?nodes@?1??make@DNameStatusNode@@SAPAV2@W4DNameStatus@@@Z@4PAV2@A 0048e0c8     LIBCMT:undname.obj
 0003:000050f8       ??_B?1??make@DNameStatusNode@@SAPAV1@W4DNameStatus@@@Z@51 0048e0f8     LIBCMT:undname.obj
 0003:000050fc       __newmode                  0048e0fc     LIBCMT:_newmode.obj
 0003:00005100       __outputformat             0048e100     LIBCMT:outputformat.obj
 0003:00005108       ?buf@?1??GetSymbolName@PE_Debug@@IAEPBDPAU_IMAGE_SYMBOL@@@Z@4PADA 0048e108     WebApi:WebApi.obj
 0003:00005150       ?module@?1??DumpDebugInfo@PE_Debug@@QAEXPBEPAUHINSTANCE__@@@Z@4PADA 0048e150     WebApi:WebApi.obj
 0003:00005350       ___@@_PchSym_@00@UhnzigkziUyfrowUivklhUurindzivUofnrtildRhnzigkziRurindzivUhnzigkziUdvyzkrUivovzhvUhgwzucOlyq@4B4EC902C7EF0D4C 0048e350     WebApi:stdafx.obj
 0003:00005358       ?csLog@@3U_RTL_CRITICAL_SECTION@@A 0048e358     WebApi:Log.obj
 0003:00005370       ?m_lockInit@Controller@@0_NA 0048e370     WebApi:Controller.obj
 0003:00005371       ?m_connecting@Controller@@1_NA 0048e371     WebApi:Controller.obj
 0003:00005372       ?m_lockInit@AlertRecord@@1_NA 0048e372     WebApi:AlertRecord.obj
 0003:00005373       ?m_lockInit@ProgramRecord@@1_NA 0048e373     WebApi:ProgramRecord.obj
 0003:00005374       ?m_lock@Controller@@0U_RTL_CRITICAL_SECTION@@A 0048e374     WebApi:Controller.obj
 0003:0000538c       ?m_target@Controller@@1PADA 0048e38c     WebApi:Controller.obj
 0003:00005390       ?m_requestKey@Controller@@1PADA 0048e390     WebApi:Controller.obj
 0003:00005394       ?m_controller@Controller@@1PAV1@A 0048e394     WebApi:Controller.obj
 0003:00005398       ?m_reference@Controller@@1HA 0048e398     WebApi:Controller.obj
 0003:000063a4       ?m_lock@AlertRecord@@1U_RTL_CRITICAL_SECTION@@A 0048f3a4     WebApi:AlertRecord.obj
 0003:000063bc       ?m_cbFile@AlertRecord@@1IA 0048f3bc     WebApi:AlertRecord.obj
 0003:000063c0       ?m_tableVer@AlertRecord@@1PAIA 0048f3c0     WebApi:AlertRecord.obj
 0003:000063c4       ?m_mapping@AlertRecord@@1PAXA 0048f3c4     WebApi:AlertRecord.obj
 0003:000063c8       ?m_table@AlertRecord@@1PAU_RECORD_V2@1@A 0048f3c8     WebApi:AlertRecord.obj
 0003:000063cc       ?m_hMappedView@AlertRecord@@1PAXA 0048f3cc     WebApi:AlertRecord.obj
 0003:000063d0       ?m_counterFreq@Performance@@0T_LARGE_INTEGER@@A 0048f3d0     WebApi:Performance.obj
 0003:000063d8       ?m_lock@ProgramRecord@@1U_RTL_CRITICAL_SECTION@@A 0048f3d8     WebApi:ProgramRecord.obj
 0003:000063f0       ?m_configDone@ProgramRecord@@1_NA 0048f3f0     WebApi:ProgramRecord.obj
 0003:000063f1       ?m_lockInit@ZoneRecord@@1_NA 0048f3f1     WebApi:ZoneRecord.obj
 0003:000063f2       ?m_lockInit@FixtureRecord@@1_NA 0048f3f2     WebApi:FixtureRecord.obj
 0003:000063f3       ?m_lockInit@SensorRecord@@1_NA 0048f3f3     WebApi:SensorRecord.obj
 0003:000063f4       ?m_cbFile@ProgramRecord@@1IA 0048f3f4     WebApi:ProgramRecord.obj
 0003:000063f8       ?m_tableVer@ProgramRecord@@1PAIA 0048f3f8     WebApi:ProgramRecord.obj
 0003:000063fc       ?m_table@ProgramRecord@@1PAU_RECORD_V4@1@A 0048f3fc     WebApi:ProgramRecord.obj
 0003:00006400       ?m_mapping@ProgramRecord@@1PAXA 0048f400     WebApi:ProgramRecord.obj
 0003:00006404       ?m_hMappedView@ProgramRecord@@1PAXA 0048f404     WebApi:ProgramRecord.obj
 0003:00006408       ?m_lock@ZoneRecord@@1U_RTL_CRITICAL_SECTION@@A 0048f408     WebApi:ZoneRecord.obj
 0003:00006420       ?m_cbFile@ZoneRecord@@1IA  0048f420     WebApi:ZoneRecord.obj
 0003:00006424       ?m_tableVer@ZoneRecord@@1PAIA 0048f424     WebApi:ZoneRecord.obj
 0003:00006428       ?m_table@ZoneRecord@@1PAU_RECORD_V7@1@A 0048f428     WebApi:ZoneRecord.obj
 0003:0000642c       ?m_mapping@ZoneRecord@@1PAXA 0048f42c     WebApi:ZoneRecord.obj
 0003:00006430       ?m_hMappedView@ZoneRecord@@1PAXA 0048f430     WebApi:ZoneRecord.obj
 0003:00006434       ?m_lock@FixtureRecord@@1U_RTL_CRITICAL_SECTION@@A 0048f434     WebApi:FixtureRecord.obj
 0003:0000644c       ?m_cbFile@FixtureRecord@@1IA 0048f44c     WebApi:FixtureRecord.obj
 0003:00006450       ?m_tableVer@FixtureRecord@@1PAIA 0048f450     WebApi:FixtureRecord.obj
 0003:00006454       ?m_table@FixtureRecord@@1PAU_RECORD_V8@1@A 0048f454     WebApi:FixtureRecord.obj
 0003:00006458       ?m_mapping@FixtureRecord@@1PAXA 0048f458     WebApi:FixtureRecord.obj
 0003:0000645c       ?m_hMappedView@FixtureRecord@@1PAXA 0048f45c     WebApi:FixtureRecord.obj
 0003:00006460       ?m_lock@SensorRecord@@1U_RTL_CRITICAL_SECTION@@A 0048f460     WebApi:SensorRecord.obj
 0003:00006478       ?m_cbFile@SensorRecord@@1IA 0048f478     WebApi:SensorRecord.obj
 0003:0000647c       ?m_tableVer@SensorRecord@@1PAIA 0048f47c     WebApi:SensorRecord.obj
 0003:00006480       ?m_table@SensorRecord@@1PAU_RECORD_V1@1@A 0048f480     WebApi:SensorRecord.obj
 0003:00006484       ?m_mapping@SensorRecord@@1PAXA 0048f484     WebApi:SensorRecord.obj
 0003:00006488       ?m_hMappedView@SensorRecord@@1PAXA 0048f488     WebApi:SensorRecord.obj
 0003:0000648c       ?m_lockInit@UserRecord@@1_NA 0048f48c     WebApi:UserRecord.obj
 0003:0000648d       ?m_lockInit@ProgramStepRecord@@0_NA 0048f48d     WebApi:ProgramStepRecord.obj
 0003:0000648e       ?m_lockInit@MapRecord@@1_NA 0048f48e     WebApi:MapRecord.obj
 0003:00006490       ?m_lock@UserRecord@@1U_RTL_CRITICAL_SECTION@@A 0048f490     WebApi:UserRecord.obj
 0003:000064a8       ?m_cbFile@UserRecord@@1IA  0048f4a8     WebApi:UserRecord.obj
 0003:000064ac       ?m_tableVer@UserRecord@@1PAIA 0048f4ac     WebApi:UserRecord.obj
 0003:000064b0       ?m_table@UserRecord@@1PAU_RECORD_V2@1@A 0048f4b0     WebApi:UserRecord.obj
 0003:000064b4       ?m_mapping@UserRecord@@1PAXA 0048f4b4     WebApi:UserRecord.obj
 0003:000064b8       ?m_hMappedView@UserRecord@@1PAXA 0048f4b8     WebApi:UserRecord.obj
 0003:000064bc       ?m_lock@ProgramStepRecord@@0U_RTL_CRITICAL_SECTION@@A 0048f4bc     WebApi:ProgramStepRecord.obj
 0003:000064d4       ?m_cbFile@ProgramStepRecord@@0IA 0048f4d4     WebApi:ProgramStepRecord.obj
 0003:000064d8       ?m_tableVer@ProgramStepRecord@@0PAIA 0048f4d8     WebApi:ProgramStepRecord.obj
 0003:000064dc       ?m_table@ProgramStepRecord@@0PAU_RECORD_V3@1@A 0048f4dc     WebApi:ProgramStepRecord.obj
 0003:000064e0       ?m_mapping@ProgramStepRecord@@0PAXA 0048f4e0     WebApi:ProgramStepRecord.obj
 0003:000064e4       ?m_hMappedView@ProgramStepRecord@@0PAXA 0048f4e4     WebApi:ProgramStepRecord.obj
 0003:000064e8       ?m_mode@Ethernet@@2W4EthernetMode@1@A 0048f4e8     WebApi:Ethernet.obj
 0003:000064ec       ?m_cbFile@MapRecord@@1IA   0048f4ec     WebApi:MapRecord.obj
 0003:000064f0       ?m_serviceName@Ethernet@@2PADA 0048f4f0     WebApi:Ethernet.obj
 0003:000065f0       ?m_lock@MapRecord@@1U_RTL_CRITICAL_SECTION@@A 0048f5f0     WebApi:MapRecord.obj
 0003:00006608       ?m_tableVer@MapRecord@@1PAIA 0048f608     WebApi:MapRecord.obj
 0003:0000660c       ?m_table@MapRecord@@1PAU_RECORD_V1@1@A 0048f60c     WebApi:MapRecord.obj
 0003:00006610       ?m_mapping@MapRecord@@1PAXA 0048f610     WebApi:MapRecord.obj
 0003:00006614       ?m_hMappedView@MapRecord@@1PAXA 0048f614     WebApi:MapRecord.obj
 0003:00006618       ?m_databasePath@Record@@0PBDB 0048f618     WebApi:Record.obj
 0003:0000661c       ?m_ipAddr@Ethernet@@2IA    0048f61c     WebApi:Ethernet.obj
 0003:00006638       ?m_ipMask@Ethernet@@2IA    0048f638     WebApi:Ethernet.obj
 0003:0000663c       ?m_ipGateway@Ethernet@@2IA 0048f63c     WebApi:Ethernet.obj
 0003:00006a78       ?m_myDetails@JsonValueArray@@1QBU_JSON_FIELD@@B 0048fa78     WebApi:JsonValueArray.obj
 0003:00006a84       ?m_ipDnsSrv@Ethernet@@2PAIA 0048fa84     WebApi:Ethernet.obj
 0003:00006f8c       ?g_OutOfMemoryExceptionCallback@@3P6GPAXXZA 0048ff8c     LIBCMT:frame.obj
 0003:00006f90       __debugger_hook_dummy      0048ff90     <common>
 0003:00006f94       ___unguarded_readlc_active 0048ff94     <common>
 0003:00006f98       ___setlc_active            0048ff98     <common>
 0003:00006f9c       __nhandle                  0048ff9c     <common>
 0003:00006fa0       _encodedKERNEL32Functions  0048ffa0     <common>
 0003:00007024       __acmdln                   00490024     <common>
 0003:00007040       __bufin                    00490040     <common>
 0003:00008040       ___piob                    00491040     <common>
 0003:00008044       __nstream                  00491044     <common>
 0003:00008048       ___dyn_tls_init_callback   00491048     <common>
 0003:0000804c       ___onexitend               0049104c     <common>
 0003:00008050       ___onexitbegin             00491050     <common>
 0003:00008054       ___mbctype_initialized     00491054     <common>
 0003:00008058       ___env_initialized         00491058     <common>

 entry point at        0001:000416cc

 Static symbols

 0000:fff64000       .debug$S                   00400000     libgo:libgo.dll
 0000:fff64000       .debug$S                   00400000     iphlpapi:IPHLPAPI.DLL
 0000:fff64000       .debug$S                   00400000     iphlpapi:IPHLPAPI.DLL
 0000:fff64000       .debug$S                   00400000     kernel32:KERNEL32.dll
 0000:fff64000       .debug$S                   00400000     kernel32:KERNEL32.dll
 0000:fff64000       .debug$S                   00400000     libgo:libgo.dll
 0000:fff64000       .debug$S                   00400000     libgo:libgo.dll
 0000:fff64000       .debug$S                   00400000     libgo:libgo.dll
 0000:fff64000       .debug$S                   00400000     libgo:libgo.dll
 0000:fff64000       .debug$S                   00400000     libgo:libgo.dll
 0000:fff64000       .debug$S                   00400000     libgo:libgo.dll
 0000:fff64000       .debug$S                   00400000     libgo:libgo.dll
 0000:fff64000       .debug$S                   00400000     libgo:libgo.dll
 0000:fff64000       .debug$S                   00400000     libgo:libgo.dll
 0000:fff64000       .debug$S                   00400000     libgo:libgo.dll
 0000:fff64000       .debug$S                   00400000     libgo:libgo.dll
